 toasty

 Timestamp is 629920ab (Thu Jun  2 17:42:19 2022)

 Preferred load address is 0000000140000000

 Start         Length     Name                   Class
 0001:00000000 0013e2d0H .text$mn                CODE
 0001:0013e2d0 00001040H .text$mn$00             CODE
 0001:0013f310 00002c70H .text$x                 CODE
 0001:00141f80 000011afH .text$yd                CODE
 0002:00000000 00000110H .CRT$XCA                DATA
 0002:00000110 00000110H .CRT$XCAA               DATA
 0002:00000220 00000110H .CRT$XCZ                DATA
 0002:00000330 00000110H .CRT$XIA                DATA
 0002:00000440 00000110H .CRT$XIAA               DATA
 0002:00000550 00000110H .CRT$XIAC               DATA
 0002:00000660 00000110H .CRT$XIC                DATA
 0002:00000770 00000110H .CRT$XIZ                DATA
 0002:00000880 00000008H .CRT$XLA                DATA
 0002:00000888 00000008H .CRT$XLZ                DATA
 0002:00000890 00000110H .CRT$XPA                DATA
 0002:000009a0 00000110H .CRT$XPZ                DATA
 0002:00000ab0 00000110H .CRT$XTA                DATA
 0002:00000bc0 00000110H .CRT$XTZ                DATA
 0002:00000cd0 000532b0H .rdata                  DATA
 0002:00053f80 00000200H .rdata$CastGuardVftablesA DATA
 0002:00054180 000001a0H .rdata$CastGuardVftablesC DATA
 0002:00054320 00000130H .rdata$T                DATA
 0002:00054450 00000348H .rdata$r                DATA
 0002:00054798 00000178H .rdata$zzzdbg           DATA
 0002:00054910 00000110H .rtc$IAA                DATA
 0002:00054a20 00000110H .rtc$IZZ                DATA
 0002:00054b30 00000110H .rtc$TAA                DATA
 0002:00054c40 00000110H .rtc$TZZ                DATA
 0002:00054d50 00007ce0H .xdata                  DATA
 0002:0005ca30 00000209H .xdata$x                DATA
 0002:0005cc39 00000000H .edata                  DATA
 0003:00000000 00005958H .data                   DATA
 0003:00005958 00000198H .data$r                 DATA
 0003:00005af0 00000130H .data$rs                DATA
 0003:00005c20 00009d51H .bss                    DATA
 0004:00000000 00008da8H .pdata                  DATA
 0005:00000000 00000d20H .idata$5                DATA
 0005:00000d20 00000154H .idata$2                DATA
 0005:00000e74 00000014H .idata$3                DATA
 0005:00000e88 00000d20H .idata$4                DATA
 0005:00001ba8 0000129eH .idata$6                DATA
 0006:00000000 00000108H .tls                    DATA
 0006:00000108 0000012dH .tls$                   DATA
 0006:00000235 00000101H .tls$ZZZ                DATA
 0007:00000000 00000175H .00cfg                  DATA

  Address         Publics by Value              Rva+Base               Lib:Object

 0000:00000000       __enclave_config           0000000000000000     <absolute>
 0000:00000000       __guard_longjmp_count      0000000000000000     <absolute>
 0000:00000000       ___safe_se_handler_table   0000000000000000     <absolute>
 0000:00000000       __AbsoluteZero             0000000000000000     <absolute>
 0000:00000000       __arm64x_extra_rfe_table   0000000000000000     <absolute>
 0000:00000000       __guard_iat_count          0000000000000000     <absolute>
 0000:00000000       __arm64x_redirection_metadata 0000000000000000     <absolute>
 0000:00000000       __arm64x_redirection_metadata_count 0000000000000000     <absolute>
 0000:00000000       __arm64x_native_entrypoint 0000000000000000     <absolute>
 0000:00000000       __dynamic_value_reloc_table 0000000000000000     <absolute>
 0000:00000000       __arm64x_extra_rfe_table_size 0000000000000000     <absolute>
 0000:00000000       __volatile_metadata        0000000000000000     <absolute>
 0000:00000000       __guard_iat_table          0000000000000000     <absolute>
 0000:00000000       __guard_eh_cont_count      0000000000000000     <absolute>
 0000:00000000       __hybrid_code_map          0000000000000000     <absolute>
 0000:00000000       __guard_fids_count         0000000000000000     <absolute>
 0000:00000000       __guard_eh_cont_table      0000000000000000     <absolute>
 0000:00000000       __hybrid_auxiliary_iat     0000000000000000     <absolute>
 0000:00000000       __guard_fids_table         0000000000000000     <absolute>
 0000:00000000       __hybrid_code_map_count    0000000000000000     <absolute>
 0000:00000000       __x64_code_ranges_to_entry_points_count 0000000000000000     <absolute>
 0000:00000000       __x64_code_ranges_to_entry_points 0000000000000000     <absolute>
 0000:00000000       __hybrid_auxiliary_iat_copy 0000000000000000     <absolute>
 0000:00000000       __guard_longjmp_table      0000000000000000     <absolute>
 0000:00000000       __guard_check_icall_a64n_fptr 0000000000000000     <absolute>
 0000:00000000       ___safe_se_handler_count   0000000000000000     <absolute>
 0000:00000100       __guard_flags              0000000000000100     <absolute>
 0000:00000000       __ImageBase                0000000140000000     <linker-defined>
 0001:00005ca0       SDL_main                   0000000140006ca0 f   toasty.obj
 0001:000063b0       gladLoadGL                 00000001400073b0 f   toasty.obj
 0001:000063f0       gladLoadGLLoader           00000001400073f0 f   toasty.obj
 0001:00009840       ?CreateContext@ImGui@@YAPEAUImGuiContext@@PEAUImFontAtlas@@@Z 000000014000a840 f   toasty.obj
 0001:00009900       ?DestroyContext@ImGui@@YAXPEAUImGuiContext@@@Z 000000014000a900 f   toasty.obj
 0001:00009980       ?GetCurrentContext@ImGui@@YAPEAUImGuiContext@@XZ 000000014000a980 f   toasty.obj
 0001:00009990       ?SetCurrentContext@ImGui@@YAXPEAUImGuiContext@@@Z 000000014000a990 f   toasty.obj
 0001:000099b0       ?GetIO@ImGui@@YAAEAUImGuiIO@@XZ 000000014000a9b0 f   toasty.obj
 0001:00009a00       ?GetStyle@ImGui@@YAAEAUImGuiStyle@@XZ 000000014000aa00 f   toasty.obj
 0001:00009a50       ?NewFrame@ImGui@@YAXXZ     000000014000aa50 f   toasty.obj
 0001:0000a7b0       ?EndFrame@ImGui@@YAXXZ     000000014000b7b0 f   toasty.obj
 0001:0000abc0       ?Render@ImGui@@YAXXZ       000000014000bbc0 f   toasty.obj
 0001:0000b060       ?GetDrawData@ImGui@@YAPEAUImDrawData@@XZ 000000014000c060 f   toasty.obj
 0001:0000b0d0       ?ShowDemoWindow@ImGui@@YAXPEA_N@Z 000000014000c0d0 f   toasty.obj
 0001:0000be90       ?ShowMetricsWindow@ImGui@@YAXPEA_N@Z 000000014000ce90 f   toasty.obj
 0001:0000df00       ?ShowStackToolWindow@ImGui@@YAXPEA_N@Z 000000014000ef00 f   toasty.obj
 0001:0000e4a0       ?ShowAboutWindow@ImGui@@YAXPEA_N@Z 000000014000f4a0 f   toasty.obj
 0001:0000eac0       ?ShowStyleEditor@ImGui@@YAXPEAUImGuiStyle@@@Z 000000014000fac0 f   toasty.obj
 0001:000101b0       ?ShowStyleSelector@ImGui@@YA_NPEBD@Z 00000001400111b0 f   toasty.obj
 0001:00010230       ?ShowFontSelector@ImGui@@YAXPEBD@Z 0000000140011230 f   toasty.obj
 0001:00010370       ?ShowUserGuide@ImGui@@YAXXZ 0000000140011370 f   toasty.obj
 0001:00010490       ?GetVersion@ImGui@@YAPEBDXZ 0000000140011490 f   toasty.obj
 0001:000104a0       ?StyleColorsDark@ImGui@@YAXPEAUImGuiStyle@@@Z 00000001400114a0 f   toasty.obj
 0001:00011500       ?StyleColorsLight@ImGui@@YAXPEAUImGuiStyle@@@Z 0000000140012500 f   toasty.obj
 0001:00012560       ?StyleColorsClassic@ImGui@@YAXPEAUImGuiStyle@@@Z 0000000140013560 f   toasty.obj
 0001:000135c0       ?Begin@ImGui@@YA_NPEBDPEA_NH@Z 00000001400145c0 f   toasty.obj
 0001:00016740       ?End@ImGui@@YAXXZ          0000000140017740 f   toasty.obj
 0001:00016960       ?BeginChild@ImGui@@YA_NPEBDAEBUImVec2@@_NH@Z 0000000140017960 f   toasty.obj
 0001:000169c0       ?BeginChild@ImGui@@YA_NIAEBUImVec2@@_NH@Z 00000001400179c0 f   toasty.obj
 0001:00016a30       ?EndChild@ImGui@@YAXXZ     0000000140017a30 f   toasty.obj
 0001:00016d30       ?IsWindowAppearing@ImGui@@YA_NXZ 0000000140017d30 f   toasty.obj
 0001:00016d60       ?IsWindowCollapsed@ImGui@@YA_NXZ 0000000140017d60 f   toasty.obj
 0001:00016d90       ?IsWindowFocused@ImGui@@YA_NH@Z 0000000140017d90 f   toasty.obj
 0001:00016ea0       ?IsWindowHovered@ImGui@@YA_NH@Z 0000000140017ea0 f   toasty.obj
 0001:00017050       ?GetWindowDrawList@ImGui@@YAPEAUImDrawList@@XZ 0000000140018050 f   toasty.obj
 0001:00017080       ?GetWindowPos@ImGui@@YA?AUImVec2@@XZ 0000000140018080 f   toasty.obj
 0001:000170d0       ?GetWindowSize@ImGui@@YA?AUImVec2@@XZ 00000001400180d0 f   toasty.obj
 0001:00017110       ?GetWindowWidth@ImGui@@YAMXZ 0000000140018110 f   toasty.obj
 0001:00017140       ?GetWindowHeight@ImGui@@YAMXZ 0000000140018140 f   toasty.obj
 0001:00017170       ?SetNextWindowPos@ImGui@@YAXAEBUImVec2@@H0@Z 0000000140018170 f   toasty.obj
 0001:00017240       ?SetNextWindowSize@ImGui@@YAXAEBUImVec2@@H@Z 0000000140018240 f   toasty.obj
 0001:000172f0       ?SetNextWindowSizeConstraints@ImGui@@YAXAEBUImVec2@@0P6AXPEAUImGuiSizeCallbackData@@@ZPEAX@Z 00000001400182f0 f   toasty.obj
 0001:00017390       ?SetNextWindowContentSize@ImGui@@YAXAEBUImVec2@@@Z 0000000140018390 f   toasty.obj
 0001:000173f0       ?SetNextWindowCollapsed@ImGui@@YAX_NH@Z 00000001400183f0 f   toasty.obj
 0001:000174a0       ?SetNextWindowFocus@ImGui@@YAXXZ 00000001400184a0 f   toasty.obj
 0001:000174e0       ?SetNextWindowBgAlpha@ImGui@@YAXM@Z 00000001400184e0 f   toasty.obj
 0001:00017530       ?SetWindowPos@ImGui@@YAXAEBUImVec2@@H@Z 0000000140018530 f   toasty.obj
 0001:00017570       ?SetWindowSize@ImGui@@YAXAEBUImVec2@@H@Z 0000000140018570 f   toasty.obj
 0001:000175b0       ?SetWindowCollapsed@ImGui@@YAX_NH@Z 00000001400185b0 f   toasty.obj
 0001:000175f0       ?SetWindowFocus@ImGui@@YAXXZ 00000001400185f0 f   toasty.obj
 0001:00017620       ?SetWindowFontScale@ImGui@@YAXM@Z 0000000140018620 f   toasty.obj
 0001:000176c0       ?SetWindowPos@ImGui@@YAXPEBDAEBUImVec2@@H@Z 00000001400186c0 f   toasty.obj
 0001:00017710       ?SetWindowSize@ImGui@@YAXPEBDAEBUImVec2@@H@Z 0000000140018710 f   toasty.obj
 0001:00017760       ?SetWindowCollapsed@ImGui@@YAXPEBD_NH@Z 0000000140018760 f   toasty.obj
 0001:000177b0       ?SetWindowFocus@ImGui@@YAXPEBD@Z 00000001400187b0 f   toasty.obj
 0001:00017800       ?GetContentRegionAvail@ImGui@@YA?AUImVec2@@XZ 0000000140018800 f   toasty.obj
 0001:00017860       ?GetContentRegionMax@ImGui@@YA?AUImVec2@@XZ 0000000140018860 f   toasty.obj
 0001:00017910       ?GetWindowContentRegionMin@ImGui@@YA?AUImVec2@@XZ 0000000140018910 f   toasty.obj
 0001:00017970       ?GetWindowContentRegionMax@ImGui@@YA?AUImVec2@@XZ 0000000140018970 f   toasty.obj
 0001:000179d0       ?GetScrollX@ImGui@@YAMXZ   00000001400189d0 f   toasty.obj
 0001:00017a00       ?GetScrollY@ImGui@@YAMXZ   0000000140018a00 f   toasty.obj
 0001:00017a30       ?SetScrollX@ImGui@@YAXM@Z  0000000140018a30 f   toasty.obj
 0001:00017a70       ?SetScrollY@ImGui@@YAXM@Z  0000000140018a70 f   toasty.obj
 0001:00017ab0       ?GetScrollMaxX@ImGui@@YAMXZ 0000000140018ab0 f   toasty.obj
 0001:00017ae0       ?GetScrollMaxY@ImGui@@YAMXZ 0000000140018ae0 f   toasty.obj
 0001:00017b10       ?SetScrollHereX@ImGui@@YAXM@Z 0000000140018b10 f   toasty.obj
 0001:00017c00       ?SetScrollHereY@ImGui@@YAXM@Z 0000000140018c00 f   toasty.obj
 0001:00017d00       ?SetScrollFromPosX@ImGui@@YAXMM@Z 0000000140018d00 f   toasty.obj
 0001:00017d50       ?SetScrollFromPosY@ImGui@@YAXMM@Z 0000000140018d50 f   toasty.obj
 0001:00017da0       ?PushFont@ImGui@@YAXPEAUImFont@@@Z 0000000140018da0 f   toasty.obj
 0001:00017e20       ?PopFont@ImGui@@YAXXZ      0000000140018e20 f   toasty.obj
 0001:00017ec0       ?PushStyleColor@ImGui@@YAXHI@Z 0000000140018ec0 f   toasty.obj
 0001:00017f70       ?PushStyleColor@ImGui@@YAXHAEBUImVec4@@@Z 0000000140018f70 f   toasty.obj
 0001:00018010       ?PopStyleColor@ImGui@@YAXH@Z 0000000140019010 f   toasty.obj
 0001:000180a0       ?PushStyleVar@ImGui@@YAXHM@Z 00000001400190a0 f   toasty.obj
 0001:00018170       ?PushStyleVar@ImGui@@YAXHAEBUImVec2@@@Z 0000000140019170 f   toasty.obj
 0001:00018240       ?PopStyleVar@ImGui@@YAXH@Z 0000000140019240 f   toasty.obj
 0001:00018380       ?PushAllowKeyboardFocus@ImGui@@YAX_N@Z 0000000140019380 f   toasty.obj
 0001:000183c0       ?PopAllowKeyboardFocus@ImGui@@YAXXZ 00000001400193c0 f   toasty.obj
 0001:000183e0       ?PushButtonRepeat@ImGui@@YAX_N@Z 00000001400193e0 f   toasty.obj
 0001:00018410       ?PopButtonRepeat@ImGui@@YAXXZ 0000000140019410 f   toasty.obj
 0001:00018430       ?PushItemWidth@ImGui@@YAXM@Z 0000000140019430 f   toasty.obj
 0001:000184e0       ?PopItemWidth@ImGui@@YAXXZ 00000001400194e0 f   toasty.obj
 0001:00018530       ?SetNextItemWidth@ImGui@@YAXM@Z 0000000140019530 f   toasty.obj
 0001:00018580       ?CalcItemWidth@ImGui@@YAMXZ 0000000140019580 f   toasty.obj
 0001:00018650       ?PushTextWrapPos@ImGui@@YAXM@Z 0000000140019650 f   toasty.obj
 0001:000186b0       ?PopTextWrapPos@ImGui@@YAXXZ 00000001400196b0 f   toasty.obj
 0001:00018700       ?GetFont@ImGui@@YAPEAUImFont@@XZ 0000000140019700 f   toasty.obj
 0001:00018720       ?GetFontSize@ImGui@@YAMXZ  0000000140019720 f   toasty.obj
 0001:00018740       ?GetFontTexUvWhitePixel@ImGui@@YA?AUImVec2@@XZ 0000000140019740 f   toasty.obj
 0001:00018770       ?GetColorU32@ImGui@@YAIHM@Z 0000000140019770 f   toasty.obj
 0001:000187f0       ?GetColorU32@ImGui@@YAIAEBUImVec4@@@Z 00000001400197f0 f   toasty.obj
 0001:00018850       ?GetColorU32@ImGui@@YAII@Z 0000000140019850 f   toasty.obj
 0001:000188d0       ?GetStyleColorVec4@ImGui@@YAAEBUImVec4@@H@Z 00000001400198d0 f   toasty.obj
 0001:00018910       ?Separator@ImGui@@YAXXZ    0000000140019910 f   toasty.obj
 0001:00018990       ?SameLine@ImGui@@YAXMM@Z   0000000140019990 f   toasty.obj
 0001:00018af0       ?NewLine@ImGui@@YAXXZ      0000000140019af0 f   toasty.obj
 0001:00018bd0       ?Spacing@ImGui@@YAXXZ      0000000140019bd0 f   toasty.obj
 0001:00018c20       ?Dummy@ImGui@@YAXAEBUImVec2@@@Z 0000000140019c20 f   toasty.obj
 0001:00018cb0       ?Indent@ImGui@@YAXM@Z      0000000140019cb0 f   toasty.obj
 0001:00018d60       ?Unindent@ImGui@@YAXM@Z    0000000140019d60 f   toasty.obj
 0001:00018e10       ?BeginGroup@ImGui@@YAXXZ   0000000140019e10 f   toasty.obj
 0001:00019000       ?EndGroup@ImGui@@YAXXZ     000000014001a000 f   toasty.obj
 0001:000193f0       ?GetCursorPos@ImGui@@YA?AUImVec2@@XZ 000000014001a3f0 f   toasty.obj
 0001:00019460       ?GetCursorPosX@ImGui@@YAMXZ 000000014001a460 f   toasty.obj
 0001:000194a0       ?GetCursorPosY@ImGui@@YAMXZ 000000014001a4a0 f   toasty.obj
 0001:000194e0       ?SetCursorPos@ImGui@@YAXAEBUImVec2@@@Z 000000014001a4e0 f   toasty.obj
 0001:00019580       ?SetCursorPosX@ImGui@@YAXM@Z 000000014001a580 f   toasty.obj
 0001:00019600       ?SetCursorPosY@ImGui@@YAXM@Z 000000014001a600 f   toasty.obj
 0001:00019680       ?GetCursorStartPos@ImGui@@YA?AUImVec2@@XZ 000000014001a680 f   toasty.obj
 0001:000196d0       ?GetCursorScreenPos@ImGui@@YA?AUImVec2@@XZ 000000014001a6d0 f   toasty.obj
 0001:00019710       ?SetCursorScreenPos@ImGui@@YAXAEBUImVec2@@@Z 000000014001a710 f   toasty.obj
 0001:00019780       ?AlignTextToFramePadding@ImGui@@YAXXZ 000000014001a780 f   toasty.obj
 0001:00019840       ?GetTextLineHeight@ImGui@@YAMXZ 000000014001a840 f   toasty.obj
 0001:00019870       ?GetTextLineHeightWithSpacing@ImGui@@YAMXZ 000000014001a870 f   toasty.obj
 0001:000198b0       ?GetFrameHeight@ImGui@@YAMXZ 000000014001a8b0 f   toasty.obj
 0001:00019900       ?GetFrameHeightWithSpacing@ImGui@@YAMXZ 000000014001a900 f   toasty.obj
 0001:00019950       ?PushID@ImGui@@YAXPEBD@Z   000000014001a950 f   toasty.obj
 0001:000199b0       ?PushID@ImGui@@YAXPEBD0@Z  000000014001a9b0 f   toasty.obj
 0001:00019a20       ?PushID@ImGui@@YAXPEBX@Z   000000014001aa20 f   toasty.obj
 0001:00019a80       ?PushID@ImGui@@YAXH@Z      000000014001aa80 f   toasty.obj
 0001:00019ae0       ?PopID@ImGui@@YAXXZ        000000014001aae0 f   toasty.obj
 0001:00019b40       ?GetID@ImGui@@YAIPEBD@Z    000000014001ab40 f   toasty.obj
 0001:00019b80       ?GetID@ImGui@@YAIPEBD0@Z   000000014001ab80 f   toasty.obj
 0001:00019bc0       ?GetID@ImGui@@YAIPEBX@Z    000000014001abc0 f   toasty.obj
 0001:00019c00       ?TextUnformatted@ImGui@@YAXPEBD0@Z 000000014001ac00 f   toasty.obj
 0001:00019c30       ?Text@ImGui@@YAXPEBDZZ     000000014001ac30 f   toasty.obj
 0001:00019c80       ?TextV@ImGui@@YAXPEBDPEAD@Z 000000014001ac80 f   toasty.obj
 0001:00019d20       ?TextColored@ImGui@@YAXAEBUImVec4@@PEBDZZ 000000014001ad20 f   toasty.obj
 0001:00019d70       ?TextColoredV@ImGui@@YAXAEBUImVec4@@PEBDPEAD@Z 000000014001ad70 f   toasty.obj
 0001:00019e60       ?TextDisabled@ImGui@@YAXPEBDZZ 000000014001ae60 f   toasty.obj
 0001:00019eb0       ?TextDisabledV@ImGui@@YAXPEBDPEAD@Z 000000014001aeb0 f   toasty.obj
 0001:00019fb0       ?TextWrapped@ImGui@@YAXPEBDZZ 000000014001afb0 f   toasty.obj
 0001:0001a000       ?TextWrappedV@ImGui@@YAXPEBDPEAD@Z 000000014001b000 f   toasty.obj
 0001:0001a130       ?LabelText@ImGui@@YAXPEBD0ZZ 000000014001b130 f   toasty.obj
 0001:0001a180       ?LabelTextV@ImGui@@YAXPEBD0PEAD@Z 000000014001b180 f   toasty.obj
 0001:0001a4b0       ?BulletText@ImGui@@YAXPEBDZZ 000000014001b4b0 f   toasty.obj
 0001:0001a500       ?BulletTextV@ImGui@@YAXPEBDPEAD@Z 000000014001b500 f   toasty.obj
 0001:0001a7b0       ?Button@ImGui@@YA_NPEBDAEBUImVec2@@@Z 000000014001b7b0 f   toasty.obj
 0001:0001a7e0       ?SmallButton@ImGui@@YA_NPEBD@Z 000000014001b7e0 f   toasty.obj
 0001:0001a870       ?InvisibleButton@ImGui@@YA_NPEBDAEBUImVec2@@H@Z 000000014001b870 f   toasty.obj
 0001:0001a9d0       ?ArrowButton@ImGui@@YA_NPEBDH@Z 000000014001b9d0 f   toasty.obj
 0001:0001aa20       ?Image@ImGui@@YAXPEAXAEBUImVec2@@11AEBUImVec4@@2@Z 000000014001ba20 f   toasty.obj
 0001:0001ac90       ?ImageButton@ImGui@@YA_NPEAXAEBUImVec2@@11HAEBUImVec4@@2@Z 000000014001bc90 f   toasty.obj
 0001:0001add0       ?Checkbox@ImGui@@YA_NPEBDPEA_N@Z 000000014001bdd0 f   toasty.obj
 0001:0001b380       ?CheckboxFlags@ImGui@@YA_NPEBDPEAHH@Z 000000014001c380 f   toasty.obj
 0001:0001b3c0       ?CheckboxFlags@ImGui@@YA_NPEBDPEAII@Z 000000014001c3c0 f   toasty.obj
 0001:0001b400       ?RadioButton@ImGui@@YA_NPEBD_N@Z 000000014001c400 f   toasty.obj
 0001:0001b920       ?RadioButton@ImGui@@YA_NPEBDPEAHH@Z 000000014001c920 f   toasty.obj
 0001:0001b990       ?ProgressBar@ImGui@@YAXMAEBUImVec2@@PEBD@Z 000000014001c990 f   toasty.obj
 0001:0001bd30       ?Bullet@ImGui@@YAXXZ       000000014001cd30 f   toasty.obj
 0001:0001bf20       ?BeginCombo@ImGui@@YA_NPEBD0H@Z 000000014001cf20 f   toasty.obj
 0001:0001c6c0       ?EndCombo@ImGui@@YAXXZ     000000014001d6c0 f   toasty.obj
 0001:0001c6e0       ?Combo@ImGui@@YA_NPEBDPEAHQEBQEBDHH@Z 000000014001d6e0 f   toasty.obj
 0001:0001c740       ?Combo@ImGui@@YA_NPEBDPEAH0H@Z 000000014001d740 f   toasty.obj
 0001:0001c7e0       ?Combo@ImGui@@YA_NPEBDPEAHP6A_NPEAXHPEAPEBD@Z2HH@Z 000000014001d7e0 f   toasty.obj
 0001:0001c9d0       ?DragFloat@ImGui@@YA_NPEBDPEAMMMM0H@Z 000000014001d9d0 f   toasty.obj
 0001:0001ca40       ?DragFloat2@ImGui@@YA_NPEBDQEAMMMM0H@Z 000000014001da40 f   toasty.obj
 0001:0001cac0       ?DragFloat3@ImGui@@YA_NPEBDQEAMMMM0H@Z 000000014001dac0 f   toasty.obj
 0001:0001cb40       ?DragFloat4@ImGui@@YA_NPEBDQEAMMMM0H@Z 000000014001db40 f   toasty.obj
 0001:0001cbc0       ?DragFloatRange2@ImGui@@YA_NPEBDPEAM1MMM00H@Z 000000014001dbc0 f   toasty.obj
 0001:0001cf10       ?DragInt@ImGui@@YA_NPEBDPEAHMHH0H@Z 000000014001df10 f   toasty.obj
 0001:0001cf80       ?DragInt2@ImGui@@YA_NPEBDQEAHMHH0H@Z 000000014001df80 f   toasty.obj
 0001:0001d000       ?DragInt3@ImGui@@YA_NPEBDQEAHMHH0H@Z 000000014001e000 f   toasty.obj
 0001:0001d080       ?DragInt4@ImGui@@YA_NPEBDQEAHMHH0H@Z 000000014001e080 f   toasty.obj
 0001:0001d100       ?DragIntRange2@ImGui@@YA_NPEBDPEAH1MHH00H@Z 000000014001e100 f   toasty.obj
 0001:0001d3f0       ?DragScalar@ImGui@@YA_NPEBDHPEAXMPEBX20H@Z 000000014001e3f0 f   toasty.obj
 0001:0001dc40       ?DragScalarN@ImGui@@YA_NPEBDHPEAXHMPEBX20H@Z 000000014001ec40 f   toasty.obj
 0001:0001de20       ?SliderFloat@ImGui@@YA_NPEBDPEAMMM0H@Z 000000014001ee20 f   toasty.obj
 0001:0001de80       ?SliderFloat2@ImGui@@YA_NPEBDQEAMMM0H@Z 000000014001ee80 f   toasty.obj
 0001:0001def0       ?SliderFloat3@ImGui@@YA_NPEBDQEAMMM0H@Z 000000014001eef0 f   toasty.obj
 0001:0001df60       ?SliderFloat4@ImGui@@YA_NPEBDQEAMMM0H@Z 000000014001ef60 f   toasty.obj
 0001:0001dfd0       ?SliderAngle@ImGui@@YA_NPEBDPEAMMM0H@Z 000000014001efd0 f   toasty.obj
 0001:0001e080       ?SliderInt@ImGui@@YA_NPEBDPEAHHH0H@Z 000000014001f080 f   toasty.obj
 0001:0001e0e0       ?SliderInt2@ImGui@@YA_NPEBDQEAHHH0H@Z 000000014001f0e0 f   toasty.obj
 0001:0001e150       ?SliderInt3@ImGui@@YA_NPEBDQEAHHH0H@Z 000000014001f150 f   toasty.obj
 0001:0001e1c0       ?SliderInt4@ImGui@@YA_NPEBDQEAHHH0H@Z 000000014001f1c0 f   toasty.obj
 0001:0001e230       ?SliderScalar@ImGui@@YA_NPEBDHPEAXPEBX20H@Z 000000014001f230 f   toasty.obj
 0001:0001ea30       ?SliderScalarN@ImGui@@YA_NPEBDHPEAXHPEBX20H@Z 000000014001fa30 f   toasty.obj
 0001:0001ec00       ?VSliderFloat@ImGui@@YA_NPEBDAEBUImVec2@@PEAMMM0H@Z 000000014001fc00 f   toasty.obj
 0001:0001ec70       ?VSliderInt@ImGui@@YA_NPEBDAEBUImVec2@@PEAHHH0H@Z 000000014001fc70 f   toasty.obj
 0001:0001ece0       ?VSliderScalar@ImGui@@YA_NPEBDAEBUImVec2@@HPEAXPEBX30H@Z 000000014001fce0 f   toasty.obj
 0001:0001f270       ?InputText@ImGui@@YA_NPEBDPEAD_KHP6AHPEAUImGuiInputTextCallbackData@@@ZPEAX@Z 0000000140020270 f   toasty.obj
 0001:0001f310       ?InputTextMultiline@ImGui@@YA_NPEBDPEAD_KAEBUImVec2@@HP6AHPEAUImGuiInputTextCallbackData@@@ZPEAX@Z 0000000140020310 f   toasty.obj
 0001:0001f380       ?InputTextWithHint@ImGui@@YA_NPEBD0PEAD_KHP6AHPEAUImGuiInputTextCallbackData@@@ZPEAX@Z 0000000140020380 f   toasty.obj
 0001:0001f430       ?InputFloat@ImGui@@YA_NPEBDPEAMMM0H@Z 0000000140020430 f   toasty.obj
 0001:0001f4f0       ?InputFloat2@ImGui@@YA_NPEBDQEAM0H@Z 00000001400204f0 f   toasty.obj
 0001:0001f560       ?InputFloat3@ImGui@@YA_NPEBDQEAM0H@Z 0000000140020560 f   toasty.obj
 0001:0001f5d0       ?InputFloat4@ImGui@@YA_NPEBDQEAM0H@Z 00000001400205d0 f   toasty.obj
 0001:0001f640       ?InputInt@ImGui@@YA_NPEBDPEAHHHH@Z 0000000140020640 f   toasty.obj
 0001:0001f720       ?InputInt2@ImGui@@YA_NPEBDQEAHH@Z 0000000140020720 f   toasty.obj
 0001:0001f780       ?InputInt3@ImGui@@YA_NPEBDQEAHH@Z 0000000140020780 f   toasty.obj
 0001:0001f7e0       ?InputInt4@ImGui@@YA_NPEBDQEAHH@Z 00000001400207e0 f   toasty.obj
 0001:0001f840       ?InputDouble@ImGui@@YA_NPEBDPEANNN0H@Z 0000000140020840 f   toasty.obj
 0001:0001f900       ?InputScalar@ImGui@@YA_NPEBDHPEAXPEBX20H@Z 0000000140020900 f   toasty.obj
 0001:0001fd90       ?InputScalarN@ImGui@@YA_NPEBDHPEAXHPEBX20H@Z 0000000140020d90 f   toasty.obj
 0001:0001ff60       ?ColorEdit3@ImGui@@YA_NPEBDQEAMH@Z 0000000140020f60 f   toasty.obj
 0001:0001ffa0       ?ColorEdit4@ImGui@@YA_NPEBDQEAMH@Z 0000000140020fa0 f   toasty.obj
 0001:00021770       ?ColorPicker3@ImGui@@YA_NPEBDQEAMH@Z 0000000140022770 f   toasty.obj
 0001:000218a0       ?ColorPicker4@ImGui@@YA_NPEBDQEAMHPEBM@Z 00000001400228a0 f   toasty.obj
 0001:000241d0       ?ColorButton@ImGui@@YA_NPEBDAEBUImVec4@@HAEBUImVec2@@@Z 00000001400251d0 f   toasty.obj
 0001:000249a0       ?SetColorEditOptions@ImGui@@YAXH@Z 00000001400259a0 f   toasty.obj
 0001:00024b00       ?TreeNode@ImGui@@YA_NPEBD@Z 0000000140025b00 f   toasty.obj
 0001:00024b60       ?TreeNode@ImGui@@YA_NPEBD0ZZ 0000000140025b60 f   toasty.obj
 0001:00024bc0       ?TreeNode@ImGui@@YA_NPEBXPEBDZZ 0000000140025bc0 f   toasty.obj
 0001:00024c20       ?TreeNodeV@ImGui@@YA_NPEBD0PEAD@Z 0000000140025c20 f   toasty.obj
 0001:00024c60       ?TreeNodeV@ImGui@@YA_NPEBXPEBDPEAD@Z 0000000140025c60 f   toasty.obj
 0001:00024ca0       ?TreeNodeEx@ImGui@@YA_NPEBDH@Z 0000000140025ca0 f   toasty.obj
 0001:00024d00       ?TreeNodeEx@ImGui@@YA_NPEBDH0ZZ 0000000140025d00 f   toasty.obj
 0001:00024d60       ?TreeNodeEx@ImGui@@YA_NPEBXHPEBDZZ 0000000140025d60 f   toasty.obj
 0001:00024dc0       ?TreeNodeExV@ImGui@@YA_NPEBDH0PEAD@Z 0000000140025dc0 f   toasty.obj
 0001:00024e80       ?TreeNodeExV@ImGui@@YA_NPEBXHPEBDPEAD@Z 0000000140025e80 f   toasty.obj
 0001:00024f40       ?TreePush@ImGui@@YAXPEBD@Z 0000000140025f40 f   toasty.obj
 0001:00024f90       ?TreePush@ImGui@@YAXPEBX@Z 0000000140025f90 f   toasty.obj
 0001:00024fe0       ?TreePop@ImGui@@YAXXZ      0000000140025fe0 f   toasty.obj
 0001:00025140       ?GetTreeNodeToLabelSpacing@ImGui@@YAMXZ 0000000140026140 f   toasty.obj
 0001:00025190       ?CollapsingHeader@ImGui@@YA_NPEBDH@Z 0000000140026190 f   toasty.obj
 0001:00025200       ?CollapsingHeader@ImGui@@YA_NPEBDPEA_NH@Z 0000000140026200 f   toasty.obj
 0001:000253f0       ?SetNextItemOpen@ImGui@@YAX_NH@Z 00000001400263f0 f   toasty.obj
 0001:00025480       ?Selectable@ImGui@@YA_NPEBD_NHAEBUImVec2@@@Z 0000000140026480 f   toasty.obj
 0001:00025e00       ?Selectable@ImGui@@YA_NPEBDPEA_NHAEBUImVec2@@@Z 0000000140026e00 f   toasty.obj
 0001:00025e80       ?BeginListBox@ImGui@@YA_NPEBDAEBUImVec2@@@Z 0000000140026e80 f   toasty.obj
 0001:00026190       ?EndListBox@ImGui@@YAXXZ   0000000140027190 f   toasty.obj
 0001:00026200       ?ListBox@ImGui@@YA_NPEBDPEAHQEBQEBDHH@Z 0000000140027200 f   toasty.obj
 0001:00026260       ?ListBox@ImGui@@YA_NPEBDPEAHP6A_NPEAXHPEAPEBD@Z2HH@Z 0000000140027260 f   toasty.obj
 0001:00026470       ?PlotLines@ImGui@@YAXPEBDPEBMHH0MMUImVec2@@H@Z 0000000140027470 f   toasty.obj
 0001:00026510       ?PlotLines@ImGui@@YAXPEBDP6AMPEAXH@Z1HH0MMUImVec2@@@Z 0000000140027510 f   toasty.obj
 0001:000265a0       ?PlotHistogram@ImGui@@YAXPEBDPEBMHH0MMUImVec2@@H@Z 00000001400275a0 f   toasty.obj
 0001:00026650       ?PlotHistogram@ImGui@@YAXPEBDP6AMPEAXH@Z1HH0MMUImVec2@@@Z 0000000140027650 f   toasty.obj
 0001:000266e0       ?Value@ImGui@@YAXPEBD_N@Z  00000001400276e0 f   toasty.obj
 0001:00026740       ?Value@ImGui@@YAXPEBDH@Z   0000000140027740 f   toasty.obj
 0001:00026770       ?Value@ImGui@@YAXPEBDI@Z   0000000140027770 f   toasty.obj
 0001:000267a0       ?Value@ImGui@@YAXPEBDM0@Z  00000001400277a0 f   toasty.obj
 0001:00026850       ?BeginMenuBar@ImGui@@YA_NXZ 0000000140027850 f   toasty.obj
 0001:00026a70       ?EndMenuBar@ImGui@@YAXXZ   0000000140027a70 f   toasty.obj
 0001:00026d30       ?BeginMainMenuBar@ImGui@@YA_NXZ 0000000140027d30 f   toasty.obj
 0001:00026e20       ?EndMainMenuBar@ImGui@@YAXXZ 0000000140027e20 f   toasty.obj
 0001:00026e90       ?BeginMenu@ImGui@@YA_NPEBD_N@Z 0000000140027e90 f   toasty.obj
 0001:00026ec0       ?EndMenu@ImGui@@YAXXZ      0000000140027ec0 f   toasty.obj
 0001:00026f90       ?MenuItem@ImGui@@YA_NPEBD0_N1@Z 0000000140027f90 f   toasty.obj
 0001:00026fe0       ?MenuItem@ImGui@@YA_NPEBD0PEA_N_N@Z 0000000140027fe0 f   toasty.obj
 0001:00027080       ?BeginTooltip@ImGui@@YAXXZ 0000000140028080 f   toasty.obj
 0001:000270a0       ?EndTooltip@ImGui@@YAXXZ   00000001400280a0 f   toasty.obj
 0001:000270f0       ?SetTooltip@ImGui@@YAXPEBDZZ 00000001400280f0 f   toasty.obj
 0001:00027140       ?SetTooltipV@ImGui@@YAXPEBDPEAD@Z 0000000140028140 f   toasty.obj
 0001:00027180       ?BeginPopup@ImGui@@YA_NPEBDH@Z 0000000140028180 f   toasty.obj
 0001:00027210       ?BeginPopupModal@ImGui@@YA_NPEBDPEA_NH@Z 0000000140028210 f   toasty.obj
 0001:00027360       ?EndPopup@ImGui@@YAXXZ     0000000140028360 f   toasty.obj
 0001:00027460       ?OpenPopup@ImGui@@YAXPEBDH@Z 0000000140028460 f   toasty.obj
 0001:000274b0       ?OpenPopup@ImGui@@YAXIH@Z  00000001400284b0 f   toasty.obj
 0001:000274e0       ?OpenPopupOnItemClick@ImGui@@YAXPEBDH@Z 00000001400284e0 f   toasty.obj
 0001:000275b0       ?CloseCurrentPopup@ImGui@@YAXXZ 00000001400285b0 f   toasty.obj
 0001:00027710       ?BeginPopupContextItem@ImGui@@YA_NPEBDH@Z 0000000140028710 f   toasty.obj
 0001:00027800       ?BeginPopupContextWindow@ImGui@@YA_NPEBDH@Z 0000000140028800 f   toasty.obj
 0001:000278c0       ?BeginPopupContextVoid@ImGui@@YA_NPEBDH@Z 00000001400288c0 f   toasty.obj
 0001:00027970       ?IsPopupOpen@ImGui@@YA_NPEBDH@Z 0000000140028970 f   toasty.obj
 0001:00027a20       ?BeginTable@ImGui@@YA_NPEBDHHAEBUImVec2@@M@Z 0000000140028a20 f   toasty.obj
 0001:00027a80       ?EndTable@ImGui@@YAXXZ     0000000140028a80 f   toasty.obj
 0001:00028a20       ?TableNextRow@ImGui@@YAXHM@Z 0000000140029a20 f   toasty.obj
 0001:00028b90       ?TableNextColumn@ImGui@@YA_NXZ 0000000140029b90 f   toasty.obj
 0001:00028c90       ?TableSetColumnIndex@ImGui@@YA_NH@Z 0000000140029c90 f   toasty.obj
 0001:00028d80       ?TableSetupColumn@ImGui@@YAXPEBDHMI@Z 0000000140029d80 f   toasty.obj
 0001:000291a0       ?TableSetupScrollFreeze@ImGui@@YAXHH@Z 000000014002a1a0 f   toasty.obj
 0001:000294e0       ?TableHeadersRow@ImGui@@YAXXZ 000000014002a4e0 f   toasty.obj
 0001:00029690       ?TableHeader@ImGui@@YAXPEBD@Z 000000014002a690 f   toasty.obj
 0001:0002a280       ?TableGetSortSpecs@ImGui@@YAPEAUImGuiTableSortSpecs@@XZ 000000014002b280 f   toasty.obj
 0001:0002a320       ?TableGetColumnCount@ImGui@@YAHXZ 000000014002b320 f   toasty.obj
 0001:0002a370       ?TableGetColumnIndex@ImGui@@YAHXZ 000000014002b370 f   toasty.obj
 0001:0002a3b0       ?TableGetRowIndex@ImGui@@YAHXZ 000000014002b3b0 f   toasty.obj
 0001:0002a3f0       ?TableGetColumnName@ImGui@@YAPEBDH@Z 000000014002b3f0 f   toasty.obj
 0001:0002a450       ?TableGetColumnFlags@ImGui@@YAHH@Z 000000014002b450 f   toasty.obj
 0001:0002a4f0       ?TableSetColumnEnabled@ImGui@@YAXH_N@Z 000000014002b4f0 f   toasty.obj
 0001:0002a5f0       ?TableSetBgColor@ImGui@@YAXHIH@Z 000000014002b5f0 f   toasty.obj
 0001:0002a820       ?Columns@ImGui@@YAXHPEBD_N@Z 000000014002b820 f   toasty.obj
 0001:0002a8f0       ?NextColumn@ImGui@@YAXXZ   000000014002b8f0 f   toasty.obj
 0001:0002abf0       ?GetColumnIndex@ImGui@@YAHXZ 000000014002bbf0 f   toasty.obj
 0001:0002ac40       ?GetColumnWidth@ImGui@@YAMH@Z 000000014002bc40 f   toasty.obj
 0001:0002ad00       ?SetColumnWidth@ImGui@@YAXHM@Z 000000014002bd00 f   toasty.obj
 0001:0002ad90       ?GetColumnOffset@ImGui@@YAMH@Z 000000014002bd90 f   toasty.obj
 0001:0002ae60       ?SetColumnOffset@ImGui@@YAXHM@Z 000000014002be60 f   toasty.obj
 0001:0002b060       ?GetColumnsCount@ImGui@@YAHXZ 000000014002c060 f   toasty.obj
 0001:0002b0b0       ?BeginTabBar@ImGui@@YA_NPEBDH@Z 000000014002c0b0 f   toasty.obj
 0001:0002b1c0       ?EndTabBar@ImGui@@YAXXZ    000000014002c1c0 f   toasty.obj
 0001:0002b3d0       ?BeginTabItem@ImGui@@YA_NPEBDPEA_NH@Z 000000014002c3d0 f   toasty.obj
 0001:0002b500       ?EndTabItem@ImGui@@YAXXZ   000000014002c500 f   toasty.obj
 0001:0002b5f0       ?TabItemButton@ImGui@@YA_NPEBDH@Z 000000014002c5f0 f   toasty.obj
 0001:0002b6b0       ?SetTabItemClosed@ImGui@@YAXPEBD@Z 000000014002c6b0 f   toasty.obj
 0001:0002b770       ?LogToTTY@ImGui@@YAXH@Z    000000014002c770 f   toasty.obj
 0001:0002b7d0       ?LogToFile@ImGui@@YAXHPEBD@Z 000000014002c7d0 f   toasty.obj
 0001:0002b8a0       ?LogToClipboard@ImGui@@YAXH@Z 000000014002c8a0 f   toasty.obj
 0001:0002b8e0       ?LogFinish@ImGui@@YAXXZ    000000014002c8e0 f   toasty.obj
 0001:0002ba10       ?LogButtons@ImGui@@YAXXZ   000000014002ca10 f   toasty.obj
 0001:0002bb60       ?LogText@ImGui@@YAXPEBDZZ  000000014002cb60 f   toasty.obj
 0001:0002bbd0       ?LogTextV@ImGui@@YAXPEBDPEAD@Z 000000014002cbd0 f   toasty.obj
 0001:0002bc20       ?BeginDragDropSource@ImGui@@YA_NH@Z 000000014002cc20 f   toasty.obj
 0001:0002c040       ?SetDragDropPayload@ImGui@@YA_NPEBDPEBX_KH@Z 000000014002d040 f   toasty.obj
 0001:0002c2d0       ?EndDragDropSource@ImGui@@YAXXZ 000000014002d2d0 f   toasty.obj
 0001:0002c390       ?BeginDragDropTarget@ImGui@@YA_NXZ 000000014002d390 f   toasty.obj
 0001:0002c530       ?AcceptDragDropPayload@ImGui@@YAPEBUImGuiPayload@@PEBDH@Z 000000014002d530 f   toasty.obj
 0001:0002c860       ?EndDragDropTarget@ImGui@@YAXXZ 000000014002d860 f   toasty.obj
 0001:0002c8e0       ?GetDragDropPayload@ImGui@@YAPEBUImGuiPayload@@XZ 000000014002d8e0 f   toasty.obj
 0001:0002c930       ?BeginDisabled@ImGui@@YAX_N@Z 000000014002d930 f   toasty.obj
 0001:0002ca40       ?EndDisabled@ImGui@@YAXXZ  000000014002da40 f   toasty.obj
 0001:0002cb40       ?PushClipRect@ImGui@@YAXAEBUImVec2@@0_N@Z 000000014002db40 f   toasty.obj
 0001:0002cbd0       ?PopClipRect@ImGui@@YAXXZ  000000014002dbd0 f   toasty.obj
 0001:0002cc40       ?SetItemDefaultFocus@ImGui@@YAXXZ 000000014002dc40 f   toasty.obj
 0001:0002cd70       ?SetKeyboardFocusHere@ImGui@@YAXH@Z 000000014002dd70 f   toasty.obj
 0001:0002ce70       ?IsItemHovered@ImGui@@YA_NH@Z 000000014002de70 f   toasty.obj
 0001:0002d050       ?IsItemActive@ImGui@@YA_NXZ 000000014002e050 f   toasty.obj
 0001:0002d0b0       ?IsItemFocused@ImGui@@YA_NXZ 000000014002e0b0 f   toasty.obj
 0001:0002d100       ?IsItemClicked@ImGui@@YA_NH@Z 000000014002e100 f   toasty.obj
 0001:0002d150       ?IsItemVisible@ImGui@@YA_NXZ 000000014002e150 f   toasty.obj
 0001:0002d1a0       ?IsItemEdited@ImGui@@YA_NXZ 000000014002e1a0 f   toasty.obj
 0001:0002d1f0       ?IsItemActivated@ImGui@@YA_NXZ 000000014002e1f0 f   toasty.obj
 0001:0002d250       ?IsItemDeactivated@ImGui@@YA_NXZ 000000014002e250 f   toasty.obj
 0001:0002d300       ?IsItemDeactivatedAfterEdit@ImGui@@YA_NXZ 000000014002e300 f   toasty.obj
 0001:0002d370       ?IsItemToggledOpen@ImGui@@YA_NXZ 000000014002e370 f   toasty.obj
 0001:0002d3b0       ?IsAnyItemHovered@ImGui@@YA_NXZ 000000014002e3b0 f   toasty.obj
 0001:0002d400       ?IsAnyItemActive@ImGui@@YA_NXZ 000000014002e400 f   toasty.obj
 0001:0002d440       ?IsAnyItemFocused@ImGui@@YA_NXZ 000000014002e440 f   toasty.obj
 0001:0002d490       ?GetItemRectMin@ImGui@@YA?AUImVec2@@XZ 000000014002e490 f   toasty.obj
 0001:0002d4d0       ?GetItemRectMax@ImGui@@YA?AUImVec2@@XZ 000000014002e4d0 f   toasty.obj
 0001:0002d510       ?GetItemRectSize@ImGui@@YA?AUImVec2@@XZ 000000014002e510 f   toasty.obj
 0001:0002d550       ?SetItemAllowOverlap@ImGui@@YAXXZ 000000014002e550 f   toasty.obj
 0001:0002d5c0       ?GetMainViewport@ImGui@@YAPEAUImGuiViewport@@XZ 000000014002e5c0 f   toasty.obj
 0001:0002d600       ?GetBackgroundDrawList@ImGui@@YAPEAUImDrawList@@XZ 000000014002e600 f   toasty.obj
 0001:0002d640       ?GetForegroundDrawList@ImGui@@YAPEAUImDrawList@@XZ 000000014002e640 f   toasty.obj
 0001:0002d680       ?IsRectVisible@ImGui@@YA_NAEBUImVec2@@@Z 000000014002e680 f   toasty.obj
 0001:0002d700       ?IsRectVisible@ImGui@@YA_NAEBUImVec2@@0@Z 000000014002e700 f   toasty.obj
 0001:0002d760       ?GetTime@ImGui@@YANXZ      000000014002e760 f   toasty.obj
 0001:0002d780       ?GetFrameCount@ImGui@@YAHXZ 000000014002e780 f   toasty.obj
 0001:0002d7a0       ?GetDrawListSharedData@ImGui@@YAPEAUImDrawListSharedData@@XZ 000000014002e7a0 f   toasty.obj
 0001:0002d7c0       ?GetStyleColorName@ImGui@@YAPEBDH@Z 000000014002e7c0 f   toasty.obj
 0001:0002db60       ?SetStateStorage@ImGui@@YAXPEAUImGuiStorage@@@Z 000000014002eb60 f   toasty.obj
 0001:0002dbc0       ?GetStateStorage@ImGui@@YAPEAUImGuiStorage@@XZ 000000014002ebc0 f   toasty.obj
 0001:0002dbf0       ?BeginChildFrame@ImGui@@YA_NIAEBUImVec2@@H@Z 000000014002ebf0 f   toasty.obj
 0001:0002dcd0       ?EndChildFrame@ImGui@@YAXXZ 000000014002ecd0 f   toasty.obj
 0001:0002dcf0       ?CalcTextSize@ImGui@@YA?AUImVec2@@PEBD0_NM@Z 000000014002ecf0 f   toasty.obj
 0001:0002de30       ?ColorConvertU32ToFloat4@ImGui@@YA?AUImVec4@@I@Z 000000014002ee30 f   toasty.obj
 0001:0002dee0       ?ColorConvertFloat4ToU32@ImGui@@YAIAEBUImVec4@@@Z 000000014002eee0 f   toasty.obj
 0001:0002dfc0       ?ColorConvertRGBtoHSV@ImGui@@YAXMMMAEAM00@Z 000000014002efc0 f   toasty.obj
 0001:0002e100       ?ColorConvertHSVtoRGB@ImGui@@YAXMMMAEAM00@Z 000000014002f100 f   toasty.obj
 0001:0002e3a0       ?IsKeyDown@ImGui@@YA_NH@Z  000000014002f3a0 f   toasty.obj
 0001:0002e3d0       ?IsKeyPressed@ImGui@@YA_NH_N@Z 000000014002f3d0 f   toasty.obj
 0001:0002e480       ?IsKeyReleased@ImGui@@YA_NH@Z 000000014002f480 f   toasty.obj
 0001:0002e4e0       ?GetKeyPressedAmount@ImGui@@YAHHMM@Z 000000014002f4e0 f   toasty.obj
 0001:0002e550       ?GetKeyName@ImGui@@YAPEBDH@Z 000000014002f550 f   toasty.obj
 0001:0002e630       ?CaptureKeyboardFromApp@ImGui@@YAX_N@Z 000000014002f630 f   toasty.obj
 0001:0002e680       ?IsMouseDown@ImGui@@YA_NH@Z 000000014002f680 f   toasty.obj
 0001:0002e6e0       ?IsMouseClicked@ImGui@@YA_NH_N@Z 000000014002f6e0 f   toasty.obj
 0001:0002e7d0       ?IsMouseReleased@ImGui@@YA_NH@Z 000000014002f7d0 f   toasty.obj
 0001:0002e830       ?IsMouseDoubleClicked@ImGui@@YA_NH@Z 000000014002f830 f   toasty.obj
 0001:0002e8b0       ?GetMouseClickedCount@ImGui@@YAHH@Z 000000014002f8b0 f   toasty.obj
 0001:0002e910       ?IsMouseHoveringRect@ImGui@@YA_NAEBUImVec2@@0_N@Z 000000014002f910 f   toasty.obj
 0001:0002ea00       ?IsMousePosValid@ImGui@@YA_NPEBUImVec2@@@Z 000000014002fa00 f   toasty.obj
 0001:0002eac0       ?IsAnyMouseDown@ImGui@@YA_NXZ 000000014002fac0 f   toasty.obj
 0001:0002eb10       ?GetMousePos@ImGui@@YA?AUImVec2@@XZ 000000014002fb10 f   toasty.obj
 0001:0002eb50       ?GetMousePosOnOpeningCurrentPopup@ImGui@@YA?AUImVec2@@XZ 000000014002fb50 f   toasty.obj
 0001:0002ebd0       ?IsMouseDragging@ImGui@@YA_NHM@Z 000000014002fbd0 f   toasty.obj
 0001:0002ec50       ?GetMouseDragDelta@ImGui@@YA?AUImVec2@@HM@Z 000000014002fc50 f   toasty.obj
 0001:0002eda0       ?ResetMouseDragDelta@ImGui@@YAXH@Z 000000014002fda0 f   toasty.obj
 0001:0002ee10       ?GetMouseCursor@ImGui@@YAHXZ 000000014002fe10 f   toasty.obj
 0001:0002ee40       ?SetMouseCursor@ImGui@@YAXH@Z 000000014002fe40 f   toasty.obj
 0001:0002ee70       ?CaptureMouseFromApp@ImGui@@YAX_N@Z 000000014002fe70 f   toasty.obj
 0001:0002eec0       ?GetClipboardText@ImGui@@YAPEBDXZ 000000014002fec0 f   toasty.obj
 0001:0002ef20       ?SetClipboardText@ImGui@@YAXPEBD@Z 000000014002ff20 f   toasty.obj
 0001:0002ef70       ?LoadIniSettingsFromDisk@ImGui@@YAXPEBD@Z 000000014002ff70 f   toasty.obj
 0001:0002efd0       ?LoadIniSettingsFromMemory@ImGui@@YAXPEBD_K@Z 000000014002ffd0 f   toasty.obj
 0001:0002f450       ?SaveIniSettingsToDisk@ImGui@@YAXPEBD@Z 0000000140030450 f   toasty.obj
 0001:0002f4f0       ?SaveIniSettingsToMemory@ImGui@@YAPEBDPEA_K@Z 00000001400304f0 f   toasty.obj
 0001:0002f5f0       ?DebugCheckVersionAndDataLayout@ImGui@@YA_NPEBD_K11111@Z 00000001400305f0 f   toasty.obj
 0001:0002f810       ?SetAllocatorFunctions@ImGui@@YAXP6APEAX_KPEAX@ZP6AX11@Z1@Z 0000000140030810 f   toasty.obj
 0001:0002f850       ?GetAllocatorFunctions@ImGui@@YAXPEAP6APEAX_KPEAX@ZPEAP6AX11@ZPEAPEAX@Z 0000000140030850 f   toasty.obj
 0001:0002f8a0       ?MemAlloc@ImGui@@YAPEAX_K@Z 00000001400308a0 f   toasty.obj
 0001:0002f900       ?MemFree@ImGui@@YAXPEAX@Z  0000000140030900 f   toasty.obj
 0001:0002f960       ??0ImGuiStyle@@QEAA@XZ     0000000140030960 f   toasty.obj
 0001:0002feb0       ?ScaleAllSizes@ImGuiStyle@@QEAAXM@Z 0000000140030eb0 f   toasty.obj
 0001:000303a0       ?AddKeyEvent@ImGuiIO@@QEAAXH_N@Z 00000001400313a0 f   toasty.obj
 0001:00030400       ?AddKeyAnalogEvent@ImGuiIO@@QEAAXH_NM@Z 0000000140031400 f   toasty.obj
 0001:000306c0       ?AddMousePosEvent@ImGuiIO@@QEAAXMM@Z 00000001400316c0 f   toasty.obj
 0001:00030770       ?AddMouseButtonEvent@ImGuiIO@@QEAAXH_N@Z 0000000140031770 f   toasty.obj
 0001:00030840       ?AddMouseWheelEvent@ImGuiIO@@QEAAXMM@Z 0000000140031840 f   toasty.obj
 0001:00030920       ?AddFocusEvent@ImGuiIO@@QEAAX_N@Z 0000000140031920 f   toasty.obj
 0001:000309b0       ?AddInputCharacter@ImGuiIO@@QEAAXI@Z 00000001400319b0 f   toasty.obj
 0001:00030a50       ?AddInputCharacterUTF16@ImGuiIO@@QEAAXG@Z 0000000140031a50 f   toasty.obj
 0001:00030b30       ?AddInputCharactersUTF8@ImGuiIO@@QEAAXPEBD@Z 0000000140031b30 f   toasty.obj
 0001:00030ba0       ?ClearInputCharacters@ImGuiIO@@QEAAXXZ 0000000140031ba0 f   toasty.obj
 0001:00030bd0       ?ClearInputKeys@ImGuiIO@@QEAAXXZ 0000000140031bd0 f   toasty.obj
 0001:00030d10       ?SetKeyEventNativeData@ImGuiIO@@QEAAXHHHH@Z 0000000140031d10 f   toasty.obj
 0001:00030e00       ??0ImGuiIO@@QEAA@XZ        0000000140031e00 f   toasty.obj
 0001:00031270       ??0ImGuiInputTextCallbackData@@QEAA@XZ 0000000140032270 f   toasty.obj
 0001:000312a0       ?DeleteChars@ImGuiInputTextCallbackData@@QEAAXHH@Z 00000001400322a0 f   toasty.obj
 0001:000313f0       ?InsertChars@ImGuiInputTextCallbackData@@QEAAXHPEBD0@Z 00000001400323f0 f   toasty.obj
 0001:00031690       ??0ImGuiTextFilter@@QEAA@PEBD@Z 0000000140032690 f   toasty.obj
 0001:00031710       ?Draw@ImGuiTextFilter@@QEAA_NPEBDM@Z 0000000140032710 f   toasty.obj
 0001:000317a0       ?PassFilter@ImGuiTextFilter@@QEBA_NPEBD0@Z 00000001400327a0 f   toasty.obj
 0001:000318e0       ?Build@ImGuiTextFilter@@QEAAXXZ 00000001400328e0 f   toasty.obj
 0001:00031aa0       ?split@ImGuiTextRange@ImGuiTextFilter@@QEBAXDPEAU?$ImVector@UImGuiTextRange@ImGuiTextFilter@@@@@Z 0000000140032aa0 f   toasty.obj
 0001:00031b70       ?append@ImGuiTextBuffer@@QEAAXPEBD0@Z 0000000140032b70 f   toasty.obj
 0001:00031cc0       ?appendf@ImGuiTextBuffer@@QEAAXPEBDZZ 0000000140032cc0 f   toasty.obj
 0001:00031d10       ?appendfv@ImGuiTextBuffer@@QEAAXPEBDPEAD@Z 0000000140032d10 f   toasty.obj
 0001:00031e50       ?GetInt@ImGuiStorage@@QEBAHIH@Z 0000000140032e50 f   toasty.obj
 0001:00031ec0       ?SetInt@ImGuiStorage@@QEAAXIH@Z 0000000140032ec0 f   toasty.obj
 0001:00031f50       ?GetBool@ImGuiStorage@@QEBA_NI_N@Z 0000000140032f50 f   toasty.obj
 0001:00031fc0       ?SetBool@ImGuiStorage@@QEAAXI_N@Z 0000000140032fc0 f   toasty.obj
 0001:00032010       ?GetFloat@ImGuiStorage@@QEBAMIM@Z 0000000140033010 f   toasty.obj
 0001:00032080       ?SetFloat@ImGuiStorage@@QEAAXIM@Z 0000000140033080 f   toasty.obj
 0001:00032110       ?GetVoidPtr@ImGuiStorage@@QEBAPEAXI@Z 0000000140033110 f   toasty.obj
 0001:00032170       ?SetVoidPtr@ImGuiStorage@@QEAAXIPEAX@Z 0000000140033170 f   toasty.obj
 0001:00032200       ?GetIntRef@ImGuiStorage@@QEAAPEAHIH@Z 0000000140033200 f   toasty.obj
 0001:00032290       ?GetBoolRef@ImGuiStorage@@QEAAPEA_NI_N@Z 0000000140033290 f   toasty.obj
 0001:000322e0       ?GetFloatRef@ImGuiStorage@@QEAAPEAMIM@Z 00000001400332e0 f   toasty.obj
 0001:00032370       ?GetVoidPtrRef@ImGuiStorage@@QEAAPEAPEAXIPEAX@Z 0000000140033370 f   toasty.obj
 0001:00032400       ?SetAllInt@ImGuiStorage@@QEAAXH@Z 0000000140033400 f   toasty.obj
 0001:00032460       ?BuildSortByKey@ImGuiStorage@@QEAAXXZ 0000000140033460 f   toasty.obj
 0001:000324a0       ??0ImGuiListClipper@@QEAA@XZ 00000001400334a0 f   toasty.obj
 0001:000324e0       ??1ImGuiListClipper@@QEAA@XZ 00000001400334e0 f   toasty.obj
 0001:00032500       ?Begin@ImGuiListClipper@@QEAAXHM@Z 0000000140033500 f   toasty.obj
 0001:000326b0       ?End@ImGuiListClipper@@QEAAXXZ 00000001400336b0 f   toasty.obj
 0001:000327d0       ?Step@ImGuiListClipper@@QEAA_NXZ 00000001400337d0 f   toasty.obj
 0001:000332c0       ?ForceDisplayRangeByIndices@ImGuiListClipper@@QEAAXHH@Z 00000001400342c0 f   toasty.obj
 0001:000333b0       ?ClearFreeMemory@ImDrawListSplitter@@QEAAXXZ 00000001400343b0 f   toasty.obj
 0001:00033490       ?Split@ImDrawListSplitter@@QEAAXPEAUImDrawList@@H@Z 0000000140034490 f   toasty.obj
 0001:00033660       ?Merge@ImDrawListSplitter@@QEAAXPEAUImDrawList@@@Z 0000000140034660 f   toasty.obj
 0001:00033b60       ?SetCurrentChannel@ImDrawListSplitter@@QEAAXPEAUImDrawList@@H@Z 0000000140034b60 f   toasty.obj
 0001:00033d50       ?PushClipRect@ImDrawList@@QEAAXAEBUImVec2@@0_N@Z 0000000140034d50 f   toasty.obj
 0001:00033eb0       ?PushClipRectFullScreen@ImDrawList@@QEAAXXZ 0000000140034eb0 f   toasty.obj
 0001:00033f30       ?PopClipRect@ImDrawList@@QEAAXXZ 0000000140034f30 f   toasty.obj
 0001:00033fd0       ?PushTextureID@ImDrawList@@QEAAXPEAX@Z 0000000140034fd0 f   toasty.obj
 0001:00034020       ?PopTextureID@ImDrawList@@QEAAXXZ 0000000140035020 f   toasty.obj
 0001:000340a0       ?AddLine@ImDrawList@@QEAAXAEBUImVec2@@0IM@Z 00000001400350a0 f   toasty.obj
 0001:00034160       ?AddRect@ImDrawList@@QEAAXAEBUImVec2@@0IMHM@Z 0000000140035160 f   toasty.obj
 0001:00034300       ?AddRectFilled@ImDrawList@@QEAAXAEBUImVec2@@0IMH@Z 0000000140035300 f   toasty.obj
 0001:000343b0       ?AddRectFilledMultiColor@ImDrawList@@QEAAXAEBUImVec2@@0IIII@Z 00000001400353b0 f   toasty.obj
 0001:00034540       ?AddQuad@ImDrawList@@QEAAXAEBUImVec2@@000IM@Z 0000000140035540 f   toasty.obj
 0001:000345d0       ?AddQuadFilled@ImDrawList@@QEAAXAEBUImVec2@@000I@Z 00000001400355d0 f   toasty.obj
 0001:00034650       ?AddTriangle@ImDrawList@@QEAAXAEBUImVec2@@00IM@Z 0000000140035650 f   toasty.obj
 0001:000346d0       ?AddTriangleFilled@ImDrawList@@QEAAXAEBUImVec2@@00I@Z 00000001400356d0 f   toasty.obj
 0001:00034740       ?AddCircle@ImDrawList@@QEAAXAEBUImVec2@@MIHM@Z 0000000140035740 f   toasty.obj
 0001:00034870       ?AddCircleFilled@ImDrawList@@QEAAXAEBUImVec2@@MIH@Z 0000000140035870 f   toasty.obj
 0001:00034980       ?AddNgon@ImDrawList@@QEAAXAEBUImVec2@@MIHM@Z 0000000140035980 f   toasty.obj
 0001:00034a40       ?AddNgonFilled@ImDrawList@@QEAAXAEBUImVec2@@MIH@Z 0000000140035a40 f   toasty.obj
 0001:00034af0       ?AddText@ImDrawList@@QEAAXAEBUImVec2@@IPEBD1@Z 0000000140035af0 f   toasty.obj
 0001:00034b60       ?AddText@ImDrawList@@QEAAXPEBUImFont@@MAEBUImVec2@@IPEBD2MPEBUImVec4@@@Z 0000000140035b60 f   toasty.obj
 0001:00034da0       ?AddPolyline@ImDrawList@@QEAAXPEBUImVec2@@HIHM@Z 0000000140035da0 f   toasty.obj
 0001:00036b90       ?AddConvexPolyFilled@ImDrawList@@QEAAXPEBUImVec2@@HI@Z 0000000140037b90 f   toasty.obj
 0001:000373a0       ?AddBezierCubic@ImDrawList@@QEAAXAEBUImVec2@@000IMH@Z 00000001400383a0 f   toasty.obj
 0001:00037420       ?AddBezierQuadratic@ImDrawList@@QEAAXAEBUImVec2@@00IMH@Z 0000000140038420 f   toasty.obj
 0001:000374a0       ?AddImage@ImDrawList@@QEAAXPEAXAEBUImVec2@@111I@Z 00000001400384a0 f   toasty.obj
 0001:00037570       ?AddImageQuad@ImDrawList@@QEAAXPEAXAEBUImVec2@@1111111I@Z 0000000140038570 f   toasty.obj
 0001:00037680       ?AddImageRounded@ImDrawList@@QEAAXPEAXAEBUImVec2@@111IMH@Z 0000000140038680 f   toasty.obj
 0001:00037820       ?PathArcTo@ImDrawList@@QEAAXAEBUImVec2@@MMMH@Z 0000000140038820 f   toasty.obj
 0001:00037d50       ?PathArcToFast@ImDrawList@@QEAAXAEBUImVec2@@MHH@Z 0000000140038d50 f   toasty.obj
 0001:00037de0       ?PathBezierCubicCurveTo@ImDrawList@@QEAAXAEBUImVec2@@00H@Z 0000000140038de0 f   toasty.obj
 0001:00037f80       ?PathBezierQuadraticCurveTo@ImDrawList@@QEAAXAEBUImVec2@@0H@Z 0000000140038f80 f   toasty.obj
 0001:000380e0       ?PathRect@ImDrawList@@QEAAXAEBUImVec2@@0MH@Z 00000001400390e0 f   toasty.obj
 0001:00038510       ?AddCallback@ImDrawList@@QEAAXP6AXPEBU1@PEBUImDrawCmd@@@ZPEAX@Z 0000000140039510 f   toasty.obj
 0001:000385d0       ?AddDrawCmd@ImDrawList@@QEAAXXZ 00000001400395d0 f   toasty.obj
 0001:00038690       ?CloneOutput@ImDrawList@@QEBAPEAU1@XZ 0000000140039690 f   toasty.obj
 0001:00038780       ?PrimReserve@ImDrawList@@QEAAXHH@Z 0000000140039780 f   toasty.obj
 0001:000388a0       ?PrimUnreserve@ImDrawList@@QEAAXHH@Z 00000001400398a0 f   toasty.obj
 0001:00038930       ?PrimRect@ImDrawList@@QEAAXAEBUImVec2@@0I@Z 0000000140039930 f   toasty.obj
 0001:00038bf0       ?PrimRectUV@ImDrawList@@QEAAXAEBUImVec2@@000I@Z 0000000140039bf0 f   toasty.obj
 0001:00038ef0       ?PrimQuadUV@ImDrawList@@QEAAXAEBUImVec2@@0000000I@Z 0000000140039ef0 f   toasty.obj
 0001:00039170       ?_ResetForNewFrame@ImDrawList@@QEAAXXZ 000000014003a170 f   toasty.obj
 0001:00039290       ?_ClearFreeMemory@ImDrawList@@QEAAXXZ 000000014003a290 f   toasty.obj
 0001:00039350       ?_PopUnusedDrawCmd@ImDrawList@@QEAAXXZ 000000014003a350 f   toasty.obj
 0001:000393c0       ?_TryMergeDrawCmds@ImDrawList@@QEAAXXZ 000000014003a3c0 f   toasty.obj
 0001:00039470       ?_OnChangedClipRect@ImDrawList@@QEAAXXZ 000000014003a470 f   toasty.obj
 0001:000395a0       ?_OnChangedTextureID@ImDrawList@@QEAAXXZ 000000014003a5a0 f   toasty.obj
 0001:000396c0       ?_OnChangedVtxOffset@ImDrawList@@QEAAXXZ 000000014003a6c0 f   toasty.obj
 0001:00039750       ?_CalcCircleAutoSegmentCount@ImDrawList@@QEBAHM@Z 000000014003a750 f   toasty.obj
 0001:00039810       ?_PathArcToFastEx@ImDrawList@@QEAAXAEBUImVec2@@MHHH@Z 000000014003a810 f   toasty.obj
 0001:00039c90       ?_PathArcToN@ImDrawList@@QEAAXAEBUImVec2@@MMMH@Z 000000014003ac90 f   toasty.obj
 0001:00039dd0       ?DeIndexAllBuffers@ImDrawData@@QEAAXXZ 000000014003add0 f   toasty.obj
 0001:00039f40       ?ScaleClipRects@ImDrawData@@QEAAXAEBUImVec2@@@Z 000000014003af40 f   toasty.obj
 0001:0003a070       ??0ImFontConfig@@QEAA@XZ   000000014003b070 f   toasty.obj
 0001:0003a110       ?AddText@ImFontGlyphRangesBuilder@@QEAAXPEBD0@Z 000000014003b110 f   toasty.obj
 0001:0003a1d0       ?AddRanges@ImFontGlyphRangesBuilder@@QEAAXPEBG@Z 000000014003b1d0 f   toasty.obj
 0001:0003a270       ?BuildRanges@ImFontGlyphRangesBuilder@@QEAAXPEAU?$ImVector@G@@@Z 000000014003b270 f   toasty.obj
 0001:0003a350       ??0ImFontAtlas@@QEAA@XZ    000000014003b350 f   toasty.obj
 0001:0003a420       ??1ImFontAtlas@@QEAA@XZ    000000014003b420 f   toasty.obj
 0001:0003a4b0       ?AddFont@ImFontAtlas@@QEAAPEAUImFont@@PEBUImFontConfig@@@Z 000000014003b4b0 f   toasty.obj
 0001:0003a730       ?AddFontDefault@ImFontAtlas@@QEAAPEAUImFont@@PEBUImFontConfig@@@Z 000000014003b730 f   toasty.obj
 0001:0003a900       ?AddFontFromFileTTF@ImFontAtlas@@QEAAPEAUImFont@@PEBDMPEBUImFontConfig@@PEBG@Z 000000014003b900 f   toasty.obj
 0001:0003ab40       ?AddFontFromMemoryTTF@ImFontAtlas@@QEAAPEAUImFont@@PEAXHMPEBUImFontConfig@@PEBG@Z 000000014003bb40 f   toasty.obj
 0001:0003acd0       ?AddFontFromMemoryCompressedTTF@ImFontAtlas@@QEAAPEAUImFont@@PEBXHMPEBUImFontConfig@@PEBG@Z 000000014003bcd0 f   toasty.obj
 0001:0003ae20       ?AddFontFromMemoryCompressedBase85TTF@ImFontAtlas@@QEAAPEAUImFont@@PEBDMPEBUImFontConfig@@PEBG@Z 000000014003be20 f   toasty.obj
 0001:0003aed0       ?ClearInputData@ImFontAtlas@@QEAAXXZ 000000014003bed0 f   toasty.obj
 0001:0003b0c0       ?ClearTexData@ImFontAtlas@@QEAAXXZ 000000014003c0c0 f   toasty.obj
 0001:0003b160       ?ClearFonts@ImFontAtlas@@QEAAXXZ 000000014003c160 f   toasty.obj
 0001:0003b1d0       ?Clear@ImFontAtlas@@QEAAXXZ 000000014003c1d0 f   toasty.obj
 0001:0003b210       ?Build@ImFontAtlas@@QEAA_NXZ 000000014003c210 f   toasty.obj
 0001:0003b2a0       ?GetTexDataAsAlpha8@ImFontAtlas@@QEAAXPEAPEAEPEAH11@Z 000000014003c2a0 f   toasty.obj
 0001:0003b330       ?GetTexDataAsRGBA32@ImFontAtlas@@QEAAXPEAPEAEPEAH11@Z 000000014003c330 f   toasty.obj
 0001:0003b4a0       ?GetGlyphRangesDefault@ImFontAtlas@@QEAAPEBGXZ 000000014003c4a0 f   toasty.obj
 0001:0003b4d0       ?GetGlyphRangesKorean@ImFontAtlas@@QEAAPEBGXZ 000000014003c4d0 f   toasty.obj
 0001:0003b500       ?GetGlyphRangesJapanese@ImFontAtlas@@QEAAPEBGXZ 000000014003c500 f   toasty.obj
 0001:0003b580       ?GetGlyphRangesChineseFull@ImFontAtlas@@QEAAPEBGXZ 000000014003c580 f   toasty.obj
 0001:0003b5b0       ?GetGlyphRangesChineseSimplifiedCommon@ImFontAtlas@@QEAAPEBGXZ 000000014003c5b0 f   toasty.obj
 0001:0003b630       ?GetGlyphRangesCyrillic@ImFontAtlas@@QEAAPEBGXZ 000000014003c630 f   toasty.obj
 0001:0003b660       ?GetGlyphRangesThai@ImFontAtlas@@QEAAPEBGXZ 000000014003c660 f   toasty.obj
 0001:0003b690       ?GetGlyphRangesVietnamese@ImFontAtlas@@QEAAPEBGXZ 000000014003c690 f   toasty.obj
 0001:0003b6c0       ?AddCustomRectRegular@ImFontAtlas@@QEAAHHH@Z 000000014003c6c0 f   toasty.obj
 0001:0003b780       ?AddCustomRectFontGlyph@ImFontAtlas@@QEAAHPEAUImFont@@GHHMAEBUImVec2@@@Z 000000014003c780 f   toasty.obj
 0001:0003b890       ?CalcCustomRectUV@ImFontAtlas@@QEBAXPEBUImFontAtlasCustomRect@@PEAUImVec2@@1@Z 000000014003c890 f   toasty.obj
 0001:0003b9c0       ?GetMouseCursorTexData@ImFontAtlas@@QEAA_NHPEAUImVec2@@0QEAU2@1@Z 000000014003c9c0 f   toasty.obj
 0001:0003bc60       ??0ImFont@@QEAA@XZ         000000014003cc60 f   toasty.obj
 0001:0003bd80       ??1ImFont@@QEAA@XZ         000000014003cd80 f   toasty.obj
 0001:0003bdd0       ?FindGlyph@ImFont@@QEBAPEBUImFontGlyph@@G@Z 000000014003cdd0 f   toasty.obj
 0001:0003be50       ?FindGlyphNoFallback@ImFont@@QEBAPEBUImFontGlyph@@G@Z 000000014003ce50 f   toasty.obj
 0001:0003bec0       ?CalcTextSizeA@ImFont@@QEBA?AUImVec2@@MMMPEBD0PEAPEBD@Z 000000014003cec0 f   toasty.obj
 0001:0003c280       ?CalcWordWrapPositionA@ImFont@@QEBAPEBDMPEBD0M@Z 000000014003d280 f   toasty.obj
 0001:0003c580       ?RenderChar@ImFont@@QEBAXPEAUImDrawList@@MAEBUImVec2@@IG@Z 000000014003d580 f   toasty.obj
 0001:0003c7a0       ?RenderText@ImFont@@QEBAXPEAUImDrawList@@MAEBUImVec2@@IAEBUImVec4@@PEBD3M_N@Z 000000014003d7a0 f   toasty.obj
 0001:0003d510       ?BuildLookupTable@ImFont@@QEAAXXZ 000000014003e510 f   toasty.obj
 0001:0003daa0       ?ClearOutputData@ImFont@@QEAAXXZ 000000014003eaa0 f   toasty.obj
 0001:0003db50       ?GrowIndex@ImFont@@QEAAXH@Z 000000014003eb50 f   toasty.obj
 0001:0003dbf0       ?AddGlyph@ImFont@@QEAAXPEBUImFontConfig@@GMMMMMMMMM@Z 000000014003ebf0 f   toasty.obj
 0001:0003df30       ?AddRemapChar@ImFont@@QEAAXGG_N@Z 000000014003ef30 f   toasty.obj
 0001:0003e090       ?SetGlyphVisible@ImFont@@QEAAXG_N@Z 000000014003f090 f   toasty.obj
 0001:0003e110       ?IsGlyphRangeUnused@ImFont@@QEAA_NII@Z 000000014003f110 f   toasty.obj
 0001:0003e1b0       ?GetKeyIndex@ImGui@@YAHH@Z 000000014003f1b0 f   toasty.obj
 0001:0003e230       ?CalcListClipping@ImGui@@YAXHMPEAH0@Z 000000014003f230 f   toasty.obj
 0001:0003e4b0       ?ListBoxHeader@ImGui@@YA_NPEBDHH@Z 000000014003f4b0 f   toasty.obj
 0001:0003e560       ?DragScalar@ImGui@@YA_NPEBDHPEAXMPEBX20M@Z 000000014003f560 f   toasty.obj
 0001:0003e660       ?DragScalarN@ImGui@@YA_NPEBDHPEAXHMPEBX20M@Z 000000014003f660 f   toasty.obj
 0001:0003e780       ?SliderScalar@ImGui@@YA_NPEBDHPEAXPEBX20M@Z 000000014003f780 f   toasty.obj
 0001:0003e840       ?SliderScalarN@ImGui@@YA_NPEBDHPEAXHPEBX20M@Z 000000014003f840 f   toasty.obj
 0001:0003e910       ?ImHashData@@YAIPEBX_KI@Z  000000014003f910 f   toasty.obj
 0001:0003e9b0       ?ImHashStr@@YAIPEBD_KI@Z   000000014003f9b0 f   toasty.obj
 0001:0003eba0       ?ImAlphaBlendColors@@YAIII@Z 000000014003fba0 f   toasty.obj
 0001:0003ed40       ?ImStricmp@@YAHPEBD0@Z     000000014003fd40 f   toasty.obj
 0001:0003edc0       ?ImStrnicmp@@YAHPEBD0_K@Z  000000014003fdc0 f   toasty.obj
 0001:0003ee60       ?ImStrncpy@@YAXPEADPEBD_K@Z 000000014003fe60 f   toasty.obj
 0001:0003eec0       ?ImStrdup@@YAPEADPEBD@Z    000000014003fec0 f   toasty.obj
 0001:0003ef20       ?ImStrdupcpy@@YAPEADPEADPEA_KPEBD@Z 000000014003ff20 f   toasty.obj
 0001:0003efe0       ?ImStrchrRange@@YAPEBDPEBD0D@Z 000000014003ffe0 f   toasty.obj
 0001:0003f030       ?ImStrlenW@@YAHPEBG@Z      0000000140040030 f   toasty.obj
 0001:0003f080       ?ImStreolRange@@YAPEBDPEBD0@Z 0000000140040080 f   toasty.obj
 0001:0003f0f0       ?ImStrbolW@@YAPEBGPEBG0@Z  00000001400400f0 f   toasty.obj
 0001:0003f140       ?ImStristr@@YAPEBDPEBD000@Z 0000000140040140 f   toasty.obj
 0001:0003f280       ?ImStrTrimBlanks@@YAXPEAD@Z 0000000140040280 f   toasty.obj
 0001:0003f390       ?ImStrSkipBlank@@YAPEBDPEBD@Z 0000000140040390 f   toasty.obj
 0001:0003f460       ?ImFormatString@@YAHPEAD_KPEBDZZ 0000000140040460 f   toasty.obj
 0001:0003f4f0       ?ImFormatStringV@@YAHPEAD_KPEBD0@Z 00000001400404f0 f   toasty.obj
 0001:0003f570       ?ImParseFormatFindStart@@YAPEBDPEBD@Z 0000000140040570 f   toasty.obj
 0001:0003f600       ?ImParseFormatFindEnd@@YAPEBDPEBD@Z 0000000140040600 f   toasty.obj
 0001:0003f700       ?ImParseFormatTrimDecorations@@YAPEBDPEBDPEAD_K@Z 0000000140040700 f   toasty.obj
 0001:0003f7b0       ?ImParseFormatSanitizeForPrinting@@YAXPEBDPEAD_K@Z 00000001400407b0 f   toasty.obj
 0001:0003f880       ?ImParseFormatSanitizeForScanning@@YAPEBDPEBDPEAD_K@Z 0000000140040880 f   toasty.obj
 0001:0003f9e0       ?ImParseFormatPrecision@@YAHPEBDH@Z 00000001400409e0 f   toasty.obj
 0001:0003fb10       ?ImTextCharToUtf8@@YAPEBDQEADI@Z 0000000140040b10 f   toasty.obj
 0001:0003fb60       ?ImTextStrToUtf8@@YAHPEADHPEBG1@Z 0000000140040b60 f   toasty.obj
 0001:0003fc70       ?ImTextCharFromUtf8@@YAHPEAIPEBD1@Z 0000000140040c70 f   toasty.obj
 0001:00040110       ?ImTextStrFromUtf8@@YAHPEAGHPEBD1PEAPEBD@Z 0000000140041110 f   toasty.obj
 0001:00040200       ?ImTextCountCharsFromUtf8@@YAHPEBD0@Z 0000000140041200 f   toasty.obj
 0001:00040280       ?ImTextCountUtf8BytesFromChar@@YAHPEBD0@Z 0000000140041280 f   toasty.obj
 0001:000402c0       ?ImTextCountUtf8BytesFromStr@@YAHPEBG0@Z 00000001400412c0 f   toasty.obj
 0001:00040660       ?ImFileOpen@@YAPEAU_iobuf@@PEBD0@Z 0000000140041660 f   toasty.obj
 0001:000407a0       ?ImFileClose@@YA_NPEAU_iobuf@@@Z 00000001400417a0 f   toasty.obj
 0001:000407e0       ?ImFileGetSize@@YA_KPEAU_iobuf@@@Z 00000001400417e0 f   toasty.obj
 0001:00040880       ?ImFileRead@@YA_KPEAX_K1PEAU_iobuf@@@Z 0000000140041880 f   toasty.obj
 0001:000408c0       ?ImFileWrite@@YA_KPEBX_K1PEAU_iobuf@@@Z 00000001400418c0 f   toasty.obj
 0001:00040900       ?ImFileLoadToMemory@@YAPEAXPEBD0PEA_KH@Z 0000000140041900 f   toasty.obj
 0001:000414d0       ?ImBezierCubicCalc@@YA?AUImVec2@@AEBU1@000M@Z 00000001400424d0 f   toasty.obj
 0001:00041620       ?ImBezierCubicClosestPoint@@YA?AUImVec2@@AEBU1@0000H@Z 0000000140042620 f   toasty.obj
 0001:000417b0       ?ImBezierCubicClosestPointCasteljau@@YA?AUImVec2@@AEBU1@0000M@Z 00000001400427b0 f   toasty.obj
 0001:00041920       ?ImBezierQuadraticCalc@@YA?AUImVec2@@AEBU1@00M@Z 0000000140042920 f   toasty.obj
 0001:00041a20       ?ImLineClosestPoint@@YA?AUImVec2@@AEBU1@00@Z 0000000140042a20 f   toasty.obj
 0001:00041b40       ?ImTriangleContainsPoint@@YA_NAEBUImVec2@@000@Z 0000000140042b40 f   toasty.obj
 0001:00041d10       ?ImTriangleClosestPoint@@YA?AUImVec2@@AEBU1@000@Z 0000000140042d10 f   toasty.obj
 0001:00041e80       ?ImTriangleBarycentricCoords@@YAXAEBUImVec2@@000AEAM11@Z 0000000140042e80 f   toasty.obj
 0001:00041f80       ?ImGetDirQuadrantFromDelta@@YAHMM@Z 0000000140042f80 f   toasty.obj
 0001:00042010       ??0ImDrawListSharedData@@QEAA@XZ 0000000140043010 f   toasty.obj
 0001:00042160       ?SetCircleTessellationMaxError@ImDrawListSharedData@@QEAAXM@Z 0000000140043160 f   toasty.obj
 0001:000422f0       ?FlattenIntoSingleLayer@ImDrawDataBuilder@@QEAAXXZ 00000001400432f0 f   toasty.obj
 0001:00042450       ?Update@ImGuiMenuColumns@@QEAAXM_N@Z 0000000140043450 f   toasty.obj
 0001:000424e0       ?DeclColumns@ImGuiMenuColumns@@QEAAMMMMM@Z 00000001400434e0 f   toasty.obj
 0001:00042600       ?CalcNextTotalWidth@ImGuiMenuColumns@@QEAAX_N@Z 0000000140043600 f   toasty.obj
 0001:00042720       ?OnKeyPressed@ImGuiInputTextState@@QEAAXH@Z 0000000140043720 f   toasty.obj
 0001:000427b0       ?SetToCurrentState@ImGuiStackSizes@@QEAAXXZ 00000001400437b0 f   toasty.obj
 0001:000428a0       ?CompareWithCurrentState@ImGuiStackSizes@@QEAAXXZ 00000001400438a0 f   toasty.obj
 0001:00042b10       ??0ImGuiWindow@@QEAA@PEAUImGuiContext@@PEBD@Z 0000000140043b10 f   toasty.obj
 0001:00042fa0       ??1ImGuiWindow@@QEAA@XZ    0000000140043fa0 f   toasty.obj
 0001:00043070       ?GetID@ImGuiWindow@@QEAAIPEBD0@Z 0000000140044070 f   toasty.obj
 0001:00043120       ?GetID@ImGuiWindow@@QEAAIPEBX@Z 0000000140044120 f   toasty.obj
 0001:000431b0       ?GetID@ImGuiWindow@@QEAAIH@Z 00000001400441b0 f   toasty.obj
 0001:00043240       ?GetIDFromRectangle@ImGuiWindow@@QEAAIAEBUImRect@@@Z 0000000140044240 f   toasty.obj
 0001:000432b0       ??0ImGuiTabBar@@QEAA@XZ    00000001400442b0 f   toasty.obj
 0001:00043360       ?FindWindowByID@ImGui@@YAPEAUImGuiWindow@@I@Z 0000000140044360 f   toasty.obj
 0001:000433a0       ?FindWindowByName@ImGui@@YAPEAUImGuiWindow@@PEBD@Z 00000001400443a0 f   toasty.obj
 0001:000433d0       ?UpdateWindowParentAndRootLinks@ImGui@@YAXPEAUImGuiWindow@@H0@Z 00000001400443d0 f   toasty.obj
 0001:00043550       ?CalcWindowNextAutoFitSize@ImGui@@YA?AUImVec2@@PEAUImGuiWindow@@@Z 0000000140044550 f   toasty.obj
 0001:000435d0       ?IsWindowChildOf@ImGui@@YA_NPEAUImGuiWindow@@0_N@Z 00000001400445d0 f   toasty.obj
 0001:00043650       ?IsWindowWithinBeginStackOf@ImGui@@YA_NPEAUImGuiWindow@@0@Z 0000000140044650 f   toasty.obj
 0001:000436b0       ?IsWindowAbove@ImGui@@YA_NPEAUImGuiWindow@@0@Z 00000001400446b0 f   toasty.obj
 0001:00043790       ?IsWindowNavFocusable@ImGui@@YA_NPEAUImGuiWindow@@@Z 0000000140044790 f   toasty.obj
 0001:000437f0       ?SetWindowPos@ImGui@@YAXPEAUImGuiWindow@@AEBUImVec2@@H@Z 00000001400447f0 f   toasty.obj
 0001:00043970       ?SetWindowSize@ImGui@@YAXPEAUImGuiWindow@@AEBUImVec2@@H@Z 0000000140044970 f   toasty.obj
 0001:00043ad0       ?SetWindowCollapsed@ImGui@@YAXPEAUImGuiWindow@@_NH@Z 0000000140044ad0 f   toasty.obj
 0001:00043b60       ?SetWindowHitTestHole@ImGui@@YAXPEAUImGuiWindow@@AEBUImVec2@@1@Z 0000000140044b60 f   toasty.obj
 0001:00043c00       ?FocusWindow@ImGui@@YAXPEAUImGuiWindow@@@Z 0000000140044c00 f   toasty.obj
 0001:00043e20       ?FocusTopMostWindowUnderOne@ImGui@@YAXPEAUImGuiWindow@@0@Z 0000000140044e20 f   toasty.obj
 0001:00043f70       ?BringWindowToFocusFront@ImGui@@YAXPEAUImGuiWindow@@@Z 0000000140044f70 f   toasty.obj
 0001:00044150       ?BringWindowToDisplayFront@ImGui@@YAXPEAUImGuiWindow@@@Z 0000000140045150 f   toasty.obj
 0001:000442a0       ?BringWindowToDisplayBack@ImGui@@YAXPEAUImGuiWindow@@@Z 00000001400452a0 f   toasty.obj
 0001:000443b0       ?BringWindowToDisplayBehind@ImGui@@YAXPEAUImGuiWindow@@0@Z 00000001400453b0 f   toasty.obj
 0001:00044530       ?FindWindowDisplayIndex@ImGui@@YAHPEAUImGuiWindow@@@Z 0000000140045530 f   toasty.obj
 0001:00044580       ?FindBottomMostVisibleWindowWithinBeginStack@ImGui@@YAPEAUImGuiWindow@@PEAU2@@Z 0000000140045580 f   toasty.obj
 0001:00044660       ?SetCurrentFont@ImGui@@YAXPEAUImFont@@@Z 0000000140045660 f   toasty.obj
 0001:00044800       ?GetBackgroundDrawList@ImGui@@YAPEAUImDrawList@@PEAUImGuiViewport@@@Z 0000000140045800 f   toasty.obj
 0001:00044830       ?GetForegroundDrawList@ImGui@@YAPEAUImDrawList@@PEAUImGuiViewport@@@Z 0000000140045830 f   toasty.obj
 0001:00044860       ?Initialize@ImGui@@YAXXZ   0000000140045860 f   toasty.obj
 0001:000449d0       ?Shutdown@ImGui@@YAXXZ     00000001400459d0 f   toasty.obj
 0001:00044d00       ?UpdateInputEvents@ImGui@@YAX_N@Z 0000000140045d00 f   toasty.obj
 0001:00045490       ?UpdateHoveredWindowAndCaptureFlags@ImGui@@YAXXZ 0000000140046490 f   toasty.obj
 0001:000459b0       ?StartMouseMovingWindow@ImGui@@YAXPEAUImGuiWindow@@@Z 00000001400469b0 f   toasty.obj
 0001:00045aa0       ?UpdateMouseMovingWindowNewFrame@ImGui@@YAXXZ 0000000140046aa0 f   toasty.obj
 0001:00045c60       ?UpdateMouseMovingWindowEndFrame@ImGui@@YAXXZ 0000000140046c60 f   toasty.obj
 0001:00045f00       ?AddContextHook@ImGui@@YAIPEAUImGuiContext@@PEBUImGuiContextHook@@@Z 0000000140046f00 f   toasty.obj
 0001:00045fc0       ?RemoveContextHook@ImGui@@YAXPEAUImGuiContext@@I@Z 0000000140046fc0 f   toasty.obj
 0001:00046070       ?CallContextHooks@ImGui@@YAXPEAUImGuiContext@@W4ImGuiContextHookType@@@Z 0000000140047070 f   toasty.obj
 0001:00046120       ?SetWindowViewport@ImGui@@YAXPEAUImGuiWindow@@PEAUImGuiViewportP@@@Z 0000000140047120 f   toasty.obj
 0001:00046140       ?MarkIniSettingsDirty@ImGui@@YAXXZ 0000000140047140 f   toasty.obj
 0001:00046180       ?MarkIniSettingsDirty@ImGui@@YAXPEAUImGuiWindow@@@Z 0000000140047180 f   toasty.obj
 0001:000461e0       ?ClearIniSettings@ImGui@@YAXXZ 00000001400471e0 f   toasty.obj
 0001:000462a0       ?CreateNewWindowSettings@ImGui@@YAPEAUImGuiWindowSettings@@PEBD@Z 00000001400472a0 f   toasty.obj
 0001:000463e0       ?FindWindowSettings@ImGui@@YAPEAUImGuiWindowSettings@@I@Z 00000001400473e0 f   toasty.obj
 0001:00046460       ?FindOrCreateWindowSettings@ImGui@@YAPEAUImGuiWindowSettings@@PEBD@Z 0000000140047460 f   toasty.obj
 0001:000464b0       ?AddSettingsHandler@ImGui@@YAXPEBUImGuiSettingsHandler@@@Z 00000001400474b0 f   toasty.obj
 0001:00046520       ?RemoveSettingsHandler@ImGui@@YAXPEBD@Z 0000000140047520 f   toasty.obj
 0001:00046570       ?FindSettingsHandler@ImGui@@YAPEAUImGuiSettingsHandler@@PEBD@Z 0000000140047570 f   toasty.obj
 0001:00046610       ?SetNextWindowScroll@ImGui@@YAXAEBUImVec2@@@Z 0000000140047610 f   toasty.obj
 0001:00046660       ?SetScrollX@ImGui@@YAXPEAUImGuiWindow@@M@Z 0000000140047660 f   toasty.obj
 0001:000466a0       ?SetScrollY@ImGui@@YAXPEAUImGuiWindow@@M@Z 00000001400476a0 f   toasty.obj
 0001:000466f0       ?SetScrollFromPosX@ImGui@@YAXPEAUImGuiWindow@@MM@Z 00000001400476f0 f   toasty.obj
 0001:00046790       ?SetScrollFromPosY@ImGui@@YAXPEAUImGuiWindow@@MM@Z 0000000140047790 f   toasty.obj
 0001:00046870       ?ScrollToItem@ImGui@@YAXH@Z 0000000140047870 f   toasty.obj
 0001:000468d0       ?ScrollToRect@ImGui@@YAXPEAUImGuiWindow@@AEBUImRect@@H@Z 00000001400478d0 f   toasty.obj
 0001:00046910       ?ScrollToRectEx@ImGui@@YA?AUImVec2@@PEAUImGuiWindow@@AEBUImRect@@H@Z 0000000140047910 f   toasty.obj
 0001:00047090       ?SetActiveID@ImGui@@YAXIPEAUImGuiWindow@@@Z 0000000140048090 f   toasty.obj
 0001:00047240       ?SetFocusID@ImGui@@YAXIPEAUImGuiWindow@@@Z 0000000140048240 f   toasty.obj
 0001:00047390       ?ClearActiveID@ImGui@@YAXXZ 0000000140048390 f   toasty.obj
 0001:000473b0       ?GetHoveredID@ImGui@@YAIXZ 00000001400483b0 f   toasty.obj
 0001:00047400       ?SetHoveredID@ImGui@@YAXI@Z 0000000140048400 f   toasty.obj
 0001:00047480       ?KeepAliveID@ImGui@@YAXI@Z 0000000140048480 f   toasty.obj
 0001:000474e0       ?MarkItemEdited@ImGui@@YAXI@Z 00000001400484e0 f   toasty.obj
 0001:00047580       ?PushOverrideID@ImGui@@YAXI@Z 0000000140048580 f   toasty.obj
 0001:000475f0       ?GetIDWithSeed@ImGui@@YAIPEBD0I@Z 00000001400485f0 f   toasty.obj
 0001:00047690       ?ItemSize@ImGui@@YAXAEBUImVec2@@M@Z 0000000140048690 f   toasty.obj
 0001:00047930       ?ItemAdd@ImGui@@YA_NAEBUImRect@@IPEBU2@H@Z 0000000140048930 f   toasty.obj
 0001:00047b80       ?ItemHoverable@ImGui@@YA_NAEBUImRect@@I@Z 0000000140048b80 f   toasty.obj
 0001:00047de0       ?IsClippedEx@ImGui@@YA_NAEBUImRect@@I@Z 0000000140048de0 f   toasty.obj
 0001:00047e80       ?SetLastItemData@ImGui@@YAXIHHAEBUImRect@@@Z 0000000140048e80 f   toasty.obj
 0001:00047f00       ?CalcItemSize@ImGui@@YA?AUImVec2@@U2@MM@Z 0000000140048f00 f   toasty.obj
 0001:00048040       ?CalcWrapWidthForPos@ImGui@@YAMAEBUImVec2@@M@Z 0000000140049040 f   toasty.obj
 0001:00048110       ?PushMultiItemsWidths@ImGui@@YAXHM@Z 0000000140049110 f   toasty.obj
 0001:000482b0       ?IsItemToggledSelection@ImGui@@YA_NXZ 00000001400492b0 f   toasty.obj
 0001:000482f0       ?GetContentRegionMaxAbs@ImGui@@YA?AUImVec2@@XZ 00000001400492f0 f   toasty.obj
 0001:00048380       ?ShrinkWidths@ImGui@@YAXPEAUImGuiShrinkWidthItem@@HM@Z 0000000140049380 f   toasty.obj
 0001:000486b0       ?PushItemFlag@ImGui@@YAXH_N@Z 00000001400496b0 f   toasty.obj
 0001:00048770       ?PopItemFlag@ImGui@@YAXXZ  0000000140049770 f   toasty.obj
 0001:000487f0       ?LogBegin@ImGui@@YAXW4ImGuiLogType@@H@Z 00000001400497f0 f   toasty.obj
 0001:00048960       ?LogToBuffer@ImGui@@YAXH@Z 0000000140049960 f   toasty.obj
 0001:000489a0       ?LogRenderedText@ImGui@@YAXPEBUImVec2@@PEBD1@Z 00000001400499a0 f   toasty.obj
 0001:00048cc0       ?LogSetNextTextDecoration@ImGui@@YAXPEBD0@Z 0000000140049cc0 f   toasty.obj
 0001:00048d10       ?BeginChildEx@ImGui@@YA_NPEBDIAEBUImVec2@@_NH@Z 0000000140049d10 f   toasty.obj
 0001:00049010       ?OpenPopupEx@ImGui@@YAXIH@Z 000000014004a010 f   toasty.obj
 0001:00049200       ?ClosePopupToLevel@ImGui@@YAXH_N@Z 000000014004a200 f   toasty.obj
 0001:00049320       ?ClosePopupsOverWindow@ImGui@@YAXPEAUImGuiWindow@@_N@Z 000000014004a320 f   toasty.obj
 0001:000494b0       ?ClosePopupsExceptModals@ImGui@@YAXXZ 000000014004a4b0 f   toasty.obj
 0001:00049550       ?IsPopupOpen@ImGui@@YA_NIH@Z 000000014004a550 f   toasty.obj
 0001:000496d0       ?BeginPopupEx@ImGui@@YA_NIH@Z 000000014004a6d0 f   toasty.obj
 0001:000497c0       ?BeginTooltipEx@ImGui@@YAXHH@Z 000000014004a7c0 f   toasty.obj
 0001:000499b0       ?GetPopupAllowedExtentRect@ImGui@@YA?AUImRect@@PEAUImGuiWindow@@@Z 000000014004a9b0 f   toasty.obj
 0001:00049ab0       ?GetTopMostPopupModal@ImGui@@YAPEAUImGuiWindow@@XZ 000000014004aab0 f   toasty.obj
 0001:00049b30       ?GetTopMostAndVisiblePopupModal@ImGui@@YAPEAUImGuiWindow@@XZ 000000014004ab30 f   toasty.obj
 0001:00049bd0       ?FindBestWindowPosForPopup@ImGui@@YA?AUImVec2@@PEAUImGuiWindow@@@Z 000000014004abd0 f   toasty.obj
 0001:0004a090       ?FindBestWindowPosForPopupEx@ImGui@@YA?AUImVec2@@AEBU2@0PEAHAEBUImRect@@2W4ImGuiPopupPositionPolicy@@@Z 000000014004b090 f   toasty.obj
 0001:0004a7d0       ?BeginViewportSideBar@ImGui@@YA_NPEBDPEAUImGuiViewport@@HMH@Z 000000014004b7d0 f   toasty.obj
 0001:0004aa80       ?BeginMenuEx@ImGui@@YA_NPEBD0_N@Z 000000014004ba80 f   toasty.obj
 0001:0004b790       ?MenuItemEx@ImGui@@YA_NPEBD00_N1@Z 000000014004c790 f   toasty.obj
 0001:0004be00       ?BeginComboPopup@ImGui@@YA_NIAEBUImRect@@H@Z 000000014004ce00 f   toasty.obj
 0001:0004c190       ?BeginComboPreview@ImGui@@YA_NXZ 000000014004d190 f   toasty.obj
 0001:0004c370       ?EndComboPreview@ImGui@@YAXXZ 000000014004d370 f   toasty.obj
 0001:0004c520       ?NavInitWindow@ImGui@@YAXPEAUImGuiWindow@@_N@Z 000000014004d520 f   toasty.obj
 0001:0004c6b0       ?NavInitRequestApplyResult@ImGui@@YAXXZ 000000014004d6b0 f   toasty.obj
 0001:0004c730       ?NavMoveRequestButNoResultYet@ImGui@@YA_NXZ 000000014004d730 f   toasty.obj
 0001:0004c790       ?NavMoveRequestSubmit@ImGui@@YAXHHHH@Z 000000014004d790 f   toasty.obj
 0001:0004c8e0       ?NavMoveRequestForward@ImGui@@YAXHHHH@Z 000000014004d8e0 f   toasty.obj
 0001:0004c990       ?NavMoveRequestResolveWithLastItem@ImGui@@YAXPEAUImGuiNavItemData@@@Z 000000014004d990 f   toasty.obj
 0001:0004c9d0       ?NavMoveRequestCancel@ImGui@@YAXXZ 000000014004d9d0 f   toasty.obj
 0001:0004ca10       ?NavMoveRequestApplyResult@ImGui@@YAXXZ 000000014004da10 f   toasty.obj
 0001:0004ce70       ?NavMoveRequestTryWrapping@ImGui@@YAXPEAUImGuiWindow@@H@Z 000000014004de70 f   toasty.obj
 0001:0004cf10       ?GetNavInputName@ImGui@@YAPEBDH@Z 000000014004df10 f   toasty.obj
 0001:0004cf60       ?GetNavInputAmount@ImGui@@YAMHW4ImGuiNavReadMode@@@Z 000000014004df60 f   toasty.obj
 0001:0004d180       ?GetNavInputAmount2d@ImGui@@YA?AUImVec2@@HW4ImGuiNavReadMode@@MM@Z 000000014004e180 f   toasty.obj
 0001:0004d4e0       ?CalcTypematicRepeatAmount@ImGui@@YAHMMMM@Z 000000014004e4e0 f   toasty.obj
 0001:0004d600       ?ActivateItem@ImGui@@YAXI@Z 000000014004e600 f   toasty.obj
 0001:0004d640       ?SetNavID@ImGui@@YAXIW4ImGuiNavLayer@@IAEBUImRect@@@Z 000000014004e640 f   toasty.obj
 0001:0004d740       ?PushFocusScope@ImGui@@YAXI@Z 000000014004e740 f   toasty.obj
 0001:0004d7a0       ?PopFocusScope@ImGui@@YAXXZ 000000014004e7a0 f   toasty.obj
 0001:0004d830       ?GetKeyData@ImGui@@YAPEAUImGuiKeyData@@H@Z 000000014004e830 f   toasty.obj
 0001:0004d8f0       ?SetItemUsingMouseWheel@ImGui@@YAXXZ 000000014004e8f0 f   toasty.obj
 0001:0004d960       ?SetActiveIdUsingNavAndKeys@ImGui@@YAXXZ 000000014004e960 f   toasty.obj
 0001:0004d9e0       ?IsMouseDragPastThreshold@ImGui@@YA_NHM@Z 000000014004e9e0 f   toasty.obj
 0001:0004da90       ?GetMergedModFlags@ImGui@@YAHXZ 000000014004ea90 f   toasty.obj
 0001:0004db20       ?BeginDragDropTargetCustom@ImGui@@YA_NAEBUImRect@@I@Z 000000014004eb20 f   toasty.obj
 0001:0004dc80       ?ClearDragDrop@ImGui@@YAXXZ 000000014004ec80 f   toasty.obj
 0001:0004dd40       ?IsDragDropPayloadBeingAccepted@ImGui@@YA_NXZ 000000014004ed40 f   toasty.obj
 0001:0004dd90       ?SetWindowClipRectBeforeSetChannel@ImGui@@YAXPEAUImGuiWindow@@AEBUImRect@@@Z 000000014004ed90 f   toasty.obj
 0001:0004de40       ?BeginColumns@ImGui@@YAXPEBDHH@Z 000000014004ee40 f   toasty.obj
 0001:0004e4a0       ?EndColumns@ImGui@@YAXXZ   000000014004f4a0 f   toasty.obj
 0001:0004e9e0       ?PushColumnClipRect@ImGui@@YAXH@Z 000000014004f9e0 f   toasty.obj
 0001:0004ea60       ?PushColumnsBackground@ImGui@@YAXXZ 000000014004fa60 f   toasty.obj
 0001:0004eaf0       ?PopColumnsBackground@ImGui@@YAXXZ 000000014004faf0 f   toasty.obj
 0001:0004eb70       ?GetColumnsID@ImGui@@YAIPEBDH@Z 000000014004fb70 f   toasty.obj
 0001:0004ec00       ?FindOrCreateColumns@ImGui@@YAPEAUImGuiOldColumns@@PEAUImGuiWindow@@I@Z 000000014004fc00 f   toasty.obj
 0001:0004ed00       ?GetColumnOffsetFromNorm@ImGui@@YAMPEBUImGuiOldColumns@@M@Z 000000014004fd00 f   toasty.obj
 0001:0004ed40       ?GetColumnNormFromOffset@ImGui@@YAMPEBUImGuiOldColumns@@M@Z 000000014004fd40 f   toasty.obj
 0001:0004ed80       ?TableOpenContextMenu@ImGui@@YAXH@Z 000000014004fd80 f   toasty.obj
 0001:0004ee80       ?TableSetColumnWidth@ImGui@@YAXHM@Z 000000014004fe80 f   toasty.obj
 0001:0004f1f0       ?TableSetColumnSortDirection@ImGui@@YAXHH_N@Z 00000001400501f0 f   toasty.obj
 0001:0004f3f0       ?TableGetHoveredColumn@ImGui@@YAHXZ 00000001400503f0 f   toasty.obj
 0001:0004f440       ?TableGetHeaderRowHeight@ImGui@@YAMXZ 0000000140050440 f   toasty.obj
 0001:0004f520       ?TablePushBackgroundChannel@ImGui@@YAXXZ 0000000140050520 f   toasty.obj
 0001:0004f5d0       ?TablePopBackgroundChannel@ImGui@@YAXXZ 00000001400505d0 f   toasty.obj
 0001:0004f670       ?TableFindByID@ImGui@@YAPEAUImGuiTable@@I@Z 0000000140050670 f   toasty.obj
 0001:0004f6b0       ?BeginTableEx@ImGui@@YA_NPEBDIHHAEBUImVec2@@M@Z 00000001400506b0 f   toasty.obj
 0001:000509e0       ?TableBeginInitMemory@ImGui@@YAXPEAUImGuiTable@@H@Z 00000001400519e0 f   toasty.obj
 0001:00050b20       ?TableBeginApplyRequests@ImGui@@YAXPEAUImGuiTable@@@Z 0000000140051b20 f   toasty.obj
 0001:00050f20       ?TableSetupDrawChannels@ImGui@@YAXPEAUImGuiTable@@@Z 0000000140051f20 f   toasty.obj
 0001:00051280       ?TableUpdateLayout@ImGui@@YAXPEAUImGuiTable@@@Z 0000000140052280 f   toasty.obj
 0001:00052f30       ?TableUpdateBorders@ImGui@@YAXPEAUImGuiTable@@@Z 0000000140053f30 f   toasty.obj
 0001:00053340       ?TableUpdateColumnsWeightFromWidth@ImGui@@YAXPEAUImGuiTable@@@Z 0000000140054340 f   toasty.obj
 0001:00053550       ?TableDrawBorders@ImGui@@YAXPEAUImGuiTable@@@Z 0000000140054550 f   toasty.obj
 0001:00053df0       ?TableDrawContextMenu@ImGui@@YAXPEAUImGuiTable@@@Z 0000000140054df0 f   toasty.obj
 0001:000541a0       ?TableMergeDrawChannels@ImGui@@YAXPEAUImGuiTable@@@Z 00000001400551a0 f   toasty.obj
 0001:00054c10       ?TableSortSpecsSanitize@ImGui@@YAXPEAUImGuiTable@@@Z 0000000140055c10 f   toasty.obj
 0001:00055080       ?TableSortSpecsBuild@ImGui@@YAXPEAUImGuiTable@@@Z 0000000140056080 f   toasty.obj
 0001:000552c0       ?TableGetColumnNextSortDirection@ImGui@@YAHPEAUImGuiTableColumn@@@Z 00000001400562c0 f   toasty.obj
 0001:000553c0       ?TableFixColumnSortDirection@ImGui@@YAXPEAUImGuiTable@@PEAUImGuiTableColumn@@@Z 00000001400563c0 f   toasty.obj
 0001:00055460       ?TableGetColumnWidthAuto@ImGui@@YAMPEAUImGuiTable@@PEAUImGuiTableColumn@@@Z 0000000140056460 f   toasty.obj
 0001:00055560       ?TableBeginRow@ImGui@@YAXPEAUImGuiTable@@@Z 0000000140056560 f   toasty.obj
 0001:00055750       ?TableEndRow@ImGui@@YAXPEAUImGuiTable@@@Z 0000000140056750 f   toasty.obj
 0001:00056390       ?TableBeginCell@ImGui@@YAXPEAUImGuiTable@@H@Z 0000000140057390 f   toasty.obj
 0001:00056680       ?TableEndCell@ImGui@@YAXPEAUImGuiTable@@@Z 0000000140057680 f   toasty.obj
 0001:000567d0       ?TableGetCellBgRect@ImGui@@YA?AUImRect@@PEBUImGuiTable@@H@Z 00000001400577d0 f   toasty.obj
 0001:000568a0       ?TableGetColumnName@ImGui@@YAPEBDPEBUImGuiTable@@H@Z 00000001400578a0 f   toasty.obj
 0001:00056930       ?TableGetColumnResizeID@ImGui@@YAIPEBUImGuiTable@@HH@Z 0000000140057930 f   toasty.obj
 0001:000569b0       ?TableGetMaxColumnWidth@ImGui@@YAMPEBUImGuiTable@@H@Z 00000001400579b0 f   toasty.obj
 0001:00056ba0       ?TableSetColumnWidthAutoSingle@ImGui@@YAXPEAUImGuiTable@@H@Z 0000000140057ba0 f   toasty.obj
 0001:00056c00       ?TableSetColumnWidthAutoAll@ImGui@@YAXPEAUImGuiTable@@@Z 0000000140057c00 f   toasty.obj
 0001:00056c90       ?TableRemove@ImGui@@YAXPEAUImGuiTable@@@Z 0000000140057c90 f   toasty.obj
 0001:00056d10       ?TableGcCompactTransientBuffers@ImGui@@YAXPEAUImGuiTable@@@Z 0000000140057d10 f   toasty.obj
 0001:00056e30       ?TableGcCompactTransientBuffers@ImGui@@YAXPEAUImGuiTableTempData@@@Z 0000000140057e30 f   toasty.obj
 0001:00056e70       ?TableGcCompactSettings@ImGui@@YAXXZ 0000000140057e70 f   toasty.obj
 0001:00056fe0       ?TableLoadSettings@ImGui@@YAXPEAUImGuiTable@@@Z 0000000140057fe0 f   toasty.obj
 0001:00057390       ?TableSaveSettings@ImGui@@YAXPEAUImGuiTable@@@Z 0000000140058390 f   toasty.obj
 0001:00057740       ?TableResetSettings@ImGui@@YAXPEAUImGuiTable@@@Z 0000000140058740 f   toasty.obj
 0001:00057790       ?TableGetBoundSettings@ImGui@@YAPEAUImGuiTableSettings@@PEAUImGuiTable@@@Z 0000000140058790 f   toasty.obj
 0001:00057830       ?TableSettingsAddSettingsHandler@ImGui@@YAXXZ 0000000140058830 f   toasty.obj
 0001:000578b0       ?TableSettingsCreate@ImGui@@YAPEAUImGuiTableSettings@@IH@Z 00000001400588b0 f   toasty.obj
 0001:00057920       ?TableSettingsFindByID@ImGui@@YAPEAUImGuiTableSettings@@I@Z 0000000140058920 f   toasty.obj
 0001:000579a0       ?BeginTabBarEx@ImGui@@YA_NPEAUImGuiTabBar@@AEBUImRect@@H@Z 00000001400589a0 f   toasty.obj
 0001:00057dc0       ?TabBarFindTabByID@ImGui@@YAPEAUImGuiTabItem@@PEAUImGuiTabBar@@I@Z 0000000140058dc0 f   toasty.obj
 0001:00057e30       ?TabBarRemoveTab@ImGui@@YAXPEAUImGuiTabBar@@I@Z 0000000140058e30 f   toasty.obj
 0001:00057ed0       ?TabBarCloseTab@ImGui@@YAXPEAUImGuiTabBar@@PEAUImGuiTabItem@@@Z 0000000140058ed0 f   toasty.obj
 0001:00057f90       ?TabBarQueueReorder@ImGui@@YAXPEAUImGuiTabBar@@PEBUImGuiTabItem@@H@Z 0000000140058f90 f   toasty.obj
 0001:00058020       ?TabBarQueueReorderFromMousePos@ImGui@@YAXPEAUImGuiTabBar@@PEBUImGuiTabItem@@UImVec2@@@Z 0000000140059020 f   toasty.obj
 0001:00058270       ?TabBarProcessReorder@ImGui@@YA_NPEAUImGuiTabBar@@@Z 0000000140059270 f   toasty.obj
 0001:00058470       ?TabItemEx@ImGui@@YA_NPEAUImGuiTabBar@@PEBDPEA_NH@Z 0000000140059470 f   toasty.obj
 0001:000591e0       ?TabItemCalcSize@ImGui@@YA?AUImVec2@@PEBD_N@Z 000000014005a1e0 f   toasty.obj
 0001:00059310       ?TabItemBackground@ImGui@@YAXPEAUImDrawList@@AEBUImRect@@HI@Z 000000014005a310 f   toasty.obj
 0001:000596c0       ?TabItemLabelAndCloseButton@ImGui@@YAXPEAUImDrawList@@AEBUImRect@@HUImVec2@@PEBDII_NPEA_N5@Z 000000014005a6c0 f   toasty.obj
 0001:00059c90       ?RenderText@ImGui@@YAXUImVec2@@PEBD1_N@Z 000000014005ac90 f   toasty.obj
 0001:00059de0       ?RenderTextWrapped@ImGui@@YAXUImVec2@@PEBD1M@Z 000000014005ade0 f   toasty.obj
 0001:00059f00       ?RenderTextClipped@ImGui@@YAXAEBUImVec2@@0PEBD1PEBU2@0PEBUImRect@@@Z 000000014005af00 f   toasty.obj
 0001:0005a000       ?RenderTextClippedEx@ImGui@@YAXPEAUImDrawList@@AEBUImVec2@@1PEBD2PEBU3@1PEBUImRect@@@Z 000000014005b000 f   toasty.obj
 0001:0005a380       ?RenderTextEllipsis@ImGui@@YAXPEAUImDrawList@@AEBUImVec2@@1MMPEBD2PEBU3@@Z 000000014005b380 f   toasty.obj
 0001:0005a9a0       ?RenderFrame@ImGui@@YAXUImVec2@@0I_NM@Z 000000014005b9a0 f   toasty.obj
 0001:0005ab80       ?RenderFrameBorder@ImGui@@YAXUImVec2@@0M@Z 000000014005bb80 f   toasty.obj
 0001:0005ad00       ?RenderColorRectWithAlphaCheckerboard@ImGui@@YAXPEAUImDrawList@@UImVec2@@1IM1MH@Z 000000014005bd00 f   toasty.obj
 0001:0005b0d0       ?RenderNavHighlight@ImGui@@YAXAEBUImRect@@IH@Z 000000014005c0d0 f   toasty.obj
 0001:0005b3b0       ?FindRenderedTextEnd@ImGui@@YAPEBDPEBD0@Z 000000014005c3b0 f   toasty.obj
 0001:0005b440       ?RenderMouseCursor@ImGui@@YAXUImVec2@@MHIII@Z 000000014005c440 f   toasty.obj
 0001:0005b980       ?RenderArrow@ImGui@@YAXPEAUImDrawList@@UImVec2@@IHM@Z 000000014005c980 f   toasty.obj
 0001:0005bcd0       ?RenderBullet@ImGui@@YAXPEAUImDrawList@@UImVec2@@I@Z 000000014005ccd0 f   toasty.obj
 0001:0005bd30       ?RenderCheckMark@ImGui@@YAXPEAUImDrawList@@UImVec2@@IM@Z 000000014005cd30 f   toasty.obj
 0001:0005bee0       ?RenderArrowPointingAt@ImGui@@YAXPEAUImDrawList@@UImVec2@@1HI@Z 000000014005cee0 f   toasty.obj
 0001:0005c1b0       ?RenderRectFilledRangeH@ImGui@@YAXPEAUImDrawList@@AEBUImRect@@IMMM@Z 000000014005d1b0 f   toasty.obj
 0001:0005c920       ?RenderRectFilledWithHole@ImGui@@YAXPEAUImDrawList@@AEBUImRect@@1IM@Z 000000014005d920 f   toasty.obj
 0001:0005d030       ?TextEx@ImGui@@YAXPEBD0H@Z 000000014005e030 f   toasty.obj
 0001:0005d6e0       ?ButtonEx@ImGui@@YA_NPEBDAEBUImVec2@@H@Z 000000014005e6e0 f   toasty.obj
 0001:0005da60       ?CloseButton@ImGui@@YA_NIAEBUImVec2@@@Z 000000014005ea60 f   toasty.obj
 0001:0005dec0       ?CollapseButton@ImGui@@YA_NIAEBUImVec2@@@Z 000000014005eec0 f   toasty.obj
 0001:0005e150       ?ArrowButtonEx@ImGui@@YA_NPEBDHUImVec2@@H@Z 000000014005f150 f   toasty.obj
 0001:0005e420       ?Scrollbar@ImGui@@YAXW4ImGuiAxis@@@Z 000000014005f420 f   toasty.obj
 0001:0005e670       ?ScrollbarEx@ImGui@@YA_NAEBUImRect@@IW4ImGuiAxis@@PEA_J_J3H@Z 000000014005f670 f   toasty.obj
 0001:0005eeb0       ?ImageButtonEx@ImGui@@YA_NIPEAXAEBUImVec2@@111AEBUImVec4@@2@Z 000000014005feb0 f   toasty.obj
 0001:0005f1e0       ?GetWindowScrollbarRect@ImGui@@YA?AUImRect@@PEAUImGuiWindow@@W4ImGuiAxis@@@Z 00000001400601e0 f   toasty.obj
 0001:0005f350       ?GetWindowScrollbarID@ImGui@@YAIPEAUImGuiWindow@@W4ImGuiAxis@@@Z 0000000140060350 f   toasty.obj
 0001:0005f3a0       ?GetWindowResizeCornerID@ImGui@@YAIPEAUImGuiWindow@@H@Z 00000001400603a0 f   toasty.obj
 0001:0005f430       ?GetWindowResizeBorderID@ImGui@@YAIPEAUImGuiWindow@@H@Z 0000000140060430 f   toasty.obj
 0001:0005f4c0       ?SeparatorEx@ImGui@@YAXH@Z 00000001400604c0 f   toasty.obj
 0001:0005f990       ?CheckboxFlags@ImGui@@YA_NPEBDPEA_J_J@Z 0000000140060990 f   toasty.obj
 0001:0005f9d0       ?CheckboxFlags@ImGui@@YA_NPEBDPEA_K_K@Z 00000001400609d0 f   toasty.obj
 0001:0005fa10       ?ButtonBehavior@ImGui@@YA_NAEBUImRect@@IPEA_N1H@Z 0000000140060a10 f   toasty.obj
 0001:00060420       ?DragBehavior@ImGui@@YA_NIHPEAXMPEBX1PEBDH@Z 0000000140061420 f   toasty.obj
 0001:00060cb0       ?SliderBehavior@ImGui@@YA_NAEBUImRect@@IHPEAXPEBX2PEBDHPEAU2@@Z 0000000140061cb0 f   toasty.obj
 0001:00061430       ?SplitterBehavior@ImGui@@YA_NAEBUImRect@@IW4ImGuiAxis@@PEAM2MMMM@Z 0000000140062430 f   toasty.obj
 0001:00061940       ?TreeNodeBehavior@ImGui@@YA_NIHPEBD0@Z 0000000140062940 f   toasty.obj
 0001:00062840       ?TreeNodeBehaviorIsOpen@ImGui@@YA_NIH@Z 0000000140063840 f   toasty.obj
 0001:000629f0       ?TreePushOverrideID@ImGui@@YAXI@Z 00000001400639f0 f   toasty.obj
 0001:00062a50       ?DataTypeGetInfo@ImGui@@YAPEBUImGuiDataTypeInfo@@H@Z 0000000140063a50 f   toasty.obj
 0001:00062ab0       ?DataTypeFormatString@ImGui@@YAHPEADHHPEBXPEBD@Z 0000000140063ab0 f   toasty.obj
 0001:00062c70       ?DataTypeApplyOp@ImGui@@YAXHHPEAXPEBX1@Z 0000000140063c70 f   toasty.obj
 0001:000630c0       ?DataTypeApplyFromText@ImGui@@YA_NPEBDHPEAX0@Z 00000001400640c0 f   toasty.obj
 0001:00063320       ?DataTypeCompare@ImGui@@YAHHPEBX0@Z 0000000140064320 f   toasty.obj
 0001:00063470       ?DataTypeClamp@ImGui@@YA_NHPEAXPEBX1@Z 0000000140064470 f   toasty.obj
 0001:00063600       ?InputTextEx@ImGui@@YA_NPEBD0PEADHAEBUImVec2@@HP6AHPEAUImGuiInputTextCallbackData@@@ZPEAX@Z 0000000140064600 f   toasty.obj
 0001:00067e30       ?TempInputText@ImGui@@YA_NAEBUImRect@@IPEBDPEADHH@Z 0000000140068e30 f   toasty.obj
 0001:00067f60       ?TempInputScalar@ImGui@@YA_NAEBUImRect@@IPEBDHPEAX1PEBX3@Z 0000000140068f60 f   toasty.obj
 0001:00068190       ?ColorTooltip@ImGui@@YAXPEBDPEBMH@Z 0000000140069190 f   toasty.obj
 0001:00068740       ?ColorEditOptionsPopup@ImGui@@YAXPEBMH@Z 0000000140069740 f   toasty.obj
 0001:00068d50       ?ColorPickerOptionsPopup@ImGui@@YAXPEBMH@Z 0000000140069d50 f   toasty.obj
 0001:00069000       ?PlotEx@ImGui@@YAHW4ImGuiPlotType@@PEBDP6AMPEAXH@Z2HH1MMUImVec2@@@Z 000000014006a000 f   toasty.obj
 0001:00069c40       ?ShadeVertsLinearColorGradientKeepAlpha@ImGui@@YAXPEAUImDrawList@@HHUImVec2@@1II@Z 000000014006ac40 f   toasty.obj
 0001:00069e60       ?ShadeVertsLinearUV@ImGui@@YAXPEAUImDrawList@@HHAEBUImVec2@@111_N@Z 000000014006ae60 f   toasty.obj
 0001:0006a110       ?GcCompactTransientMiscBuffers@ImGui@@YAXXZ 000000014006b110 f   toasty.obj
 0001:0006a160       ?GcCompactTransientWindowBuffers@ImGui@@YAXPEAUImGuiWindow@@@Z 000000014006b160 f   toasty.obj
 0001:0006a220       ?GcAwakeTransientWindowBuffers@ImGui@@YAXPEAUImGuiWindow@@@Z 000000014006b220 f   toasty.obj
 0001:0006a2b0       ?ErrorCheckEndFrameRecover@ImGui@@YAXP6AXPEAXPEBDZZ0@Z 000000014006b2b0 f   toasty.obj
 0001:0006a3b0       ?ErrorCheckEndWindowRecover@ImGui@@YAXP6AXPEAXPEBDZZ0@Z 000000014006b3b0 f   toasty.obj
 0001:0006a6f0       ?ShowFontAtlas@ImGui@@YAXPEAUImFontAtlas@@@Z 000000014006b6f0 f   toasty.obj
 0001:0006a8a0       ?DebugHookIdInfo@ImGui@@YAXIHPEBX0@Z 000000014006b8a0 f   toasty.obj
 0001:0006ac10       ?DebugNodeColumns@ImGui@@YAXPEAUImGuiOldColumns@@@Z 000000014006bc10 f   toasty.obj
 0001:0006ad60       ?DebugNodeDrawList@ImGui@@YAXPEAUImGuiWindow@@PEBUImDrawList@@PEBD@Z 000000014006bd60 f   toasty.obj
 0001:0006b6d0       ?DebugNodeDrawCmdShowMeshAndBoundingBox@ImGui@@YAXPEAUImDrawList@@PEBU2@PEBUImDrawCmd@@_N3@Z 000000014006c6d0 f   toasty.obj
 0001:0006ba30       ?DebugNodeFont@ImGui@@YAXPEAUImFont@@@Z 000000014006ca30 f   toasty.obj
 0001:0006c2c0       ?DebugNodeStorage@ImGui@@YAXPEAUImGuiStorage@@PEBD@Z 000000014006d2c0 f   toasty.obj
 0001:0006c370       ?DebugNodeTabBar@ImGui@@YAXPEAUImGuiTabBar@@PEBD@Z 000000014006d370 f   toasty.obj
 0001:0006c980       ?DebugNodeTable@ImGui@@YAXPEAUImGuiTable@@@Z 000000014006d980 f   toasty.obj
 0001:0006d690       ?DebugNodeTableSettings@ImGui@@YAXPEAUImGuiTableSettings@@@Z 000000014006e690 f   toasty.obj
 0001:0006d890       ?DebugNodeWindow@ImGui@@YAXPEAUImGuiWindow@@PEBD@Z 000000014006e890 f   toasty.obj
 0001:0006e300       ?DebugNodeWindowSettings@ImGui@@YAXPEAUImGuiWindowSettings@@@Z 000000014006f300 f   toasty.obj
 0001:0006e3a0       ?DebugNodeWindowsList@ImGui@@YAXPEAU?$ImVector@PEAUImGuiWindow@@@@PEBD@Z 000000014006f3a0 f   toasty.obj
 0001:0006e440       ?DebugNodeWindowsListByBeginStackParent@ImGui@@YAXPEAPEAUImGuiWindow@@HPEAU2@@Z 000000014006f440 f   toasty.obj
 0001:0006e540       ?DebugNodeViewport@ImGui@@YAXPEAUImGuiViewportP@@@Z 000000014006f540 f   toasty.obj
 0001:0006e790       ?DebugRenderViewportThumbnail@ImGui@@YAXPEAUImDrawList@@PEAUImGuiViewportP@@AEBUImRect@@@Z 000000014006f790 f   toasty.obj
 0001:0006ed80       ?ImFontAtlasGetBuilderForStbTruetype@@YAPEBUImFontBuilderIO@@XZ 000000014006fd80 f   toasty.obj
 0001:0006eda0       ?ImFontAtlasBuildInit@@YAXPEAUImFontAtlas@@@Z 000000014006fda0 f   toasty.obj
 0001:0006ee50       ?ImFontAtlasBuildSetupFont@@YAXPEAUImFontAtlas@@PEAUImFont@@PEAUImFontConfig@@MM@Z 000000014006fe50 f   toasty.obj
 0001:0006ef00       ?ImFontAtlasBuildPackCustomRects@@YAXPEAUImFontAtlas@@PEAX@Z 000000014006ff00 f   toasty.obj
 0001:0006f1c0       ?ImFontAtlasBuildFinish@@YAXPEAUImFontAtlas@@@Z 00000001400701c0 f   toasty.obj
 0001:0006f430       ?ImFontAtlasBuildRender8bppRectFromString@@YAXPEAUImFontAtlas@@HHHHPEBDDE@Z 0000000140070430 f   toasty.obj
 0001:0006f5b0       ?ImFontAtlasBuildRender32bppRectFromString@@YAXPEAUImFontAtlas@@HHHHPEBDDI@Z 00000001400705b0 f   toasty.obj
 0001:0006f720       ?ImFontAtlasBuildMultiplyCalcLookupTable@@YAXQEAEM@Z 0000000140070720 f   toasty.obj
 0001:0006f7a0       ?ImFontAtlasBuildMultiplyRectAlpha8@@YAXQEBEPEAEHHHHH@Z 00000001400707a0 f   toasty.obj
 0001:000af890       ?ImGui_ImplOpenGL3_Init@@YA_NPEBD@Z 00000001400b0890 f   toasty.obj
 0001:000afb50       ?ImGui_ImplOpenGL3_Shutdown@@YAXXZ 00000001400b0b50 f   toasty.obj
 0001:000afbe0       ?ImGui_ImplOpenGL3_NewFrame@@YAXXZ 00000001400b0be0 f   toasty.obj
 0001:000afc40       ?ImGui_ImplOpenGL3_RenderDrawData@@YAXPEAUImDrawData@@@Z 00000001400b0c40 f   toasty.obj
 0001:000b0480       ?ImGui_ImplOpenGL3_CreateFontsTexture@@YA_NXZ 00000001400b1480 f   toasty.obj
 0001:000b05b0       ?ImGui_ImplOpenGL3_DestroyFontsTexture@@YAXXZ 00000001400b15b0 f   toasty.obj
 0001:000b0620       ?ImGui_ImplOpenGL3_CreateDeviceObjects@@YA_NXZ 00000001400b1620 f   toasty.obj
 0001:000b09d0       ?ImGui_ImplOpenGL3_DestroyDeviceObjects@@YAXXZ 00000001400b19d0 f   toasty.obj
 0001:000b10e0       ?ImGui_ImplSDL2_InitForOpenGL@@YA_NPEAUSDL_Window@@PEAX@Z 00000001400b20e0 f   toasty.obj
 0001:000b1110       ?ImGui_ImplSDL2_InitForVulkan@@YA_NPEAUSDL_Window@@@Z 00000001400b2110 f   toasty.obj
 0001:000b1130       ?ImGui_ImplSDL2_InitForD3D@@YA_NPEAUSDL_Window@@@Z 00000001400b2130 f   toasty.obj
 0001:000b1150       ?ImGui_ImplSDL2_InitForMetal@@YA_NPEAUSDL_Window@@@Z 00000001400b2150 f   toasty.obj
 0001:000b1170       ?ImGui_ImplSDL2_InitForSDLRenderer@@YA_NPEAUSDL_Window@@PEAUSDL_Renderer@@@Z 00000001400b2170 f   toasty.obj
 0001:000b11a0       ?ImGui_ImplSDL2_Shutdown@@YAXXZ 00000001400b21a0 f   toasty.obj
 0001:000b1270       ?ImGui_ImplSDL2_NewFrame@@YAXXZ 00000001400b2270 f   toasty.obj
 0001:000b1510       ?ImGui_ImplSDL2_ProcessEvent@@YA_NPEBTSDL_Event@@@Z 00000001400b2510 f   toasty.obj
 0001:000b32c0       stbi_load_from_memory      00000001400b42c0 f   toasty.obj
 0001:000b3360       stbi_load_from_callbacks   00000001400b4360 f   toasty.obj
 0001:000b3400       stbi_load                  00000001400b4400 f   toasty.obj
 0001:000b34b0       stbi_load_from_file        00000001400b44b0 f   toasty.obj
 0001:000b3580       stbi_load_gif_from_memory  00000001400b4580 f   toasty.obj
 0001:000b36d0       stbi_load_16_from_memory   00000001400b46d0 f   toasty.obj
 0001:000b3770       stbi_load_16_from_callbacks 00000001400b4770 f   toasty.obj
 0001:000b3810       stbi_load_16               00000001400b4810 f   toasty.obj
 0001:000b38c0       stbi_load_from_file_16     00000001400b48c0 f   toasty.obj
 0001:000b3990       stbi_loadf_from_memory     00000001400b4990 f   toasty.obj
 0001:000b3a30       stbi_loadf_from_callbacks  00000001400b4a30 f   toasty.obj
 0001:000b3ad0       stbi_loadf                 00000001400b4ad0 f   toasty.obj
 0001:000b3b80       stbi_loadf_from_file       00000001400b4b80 f   toasty.obj
 0001:000b3c10       stbi_hdr_to_ldr_gamma      00000001400b4c10 f   toasty.obj
 0001:000b3c40       stbi_hdr_to_ldr_scale      00000001400b4c40 f   toasty.obj
 0001:000b3c70       stbi_ldr_to_hdr_gamma      00000001400b4c70 f   toasty.obj
 0001:000b3c90       stbi_ldr_to_hdr_scale      00000001400b4c90 f   toasty.obj
 0001:000b3cb0       stbi_is_hdr_from_callbacks 00000001400b4cb0 f   toasty.obj
 0001:000b3d20       stbi_is_hdr_from_memory    00000001400b4d20 f   toasty.obj
 0001:000b3d90       stbi_is_hdr                00000001400b4d90 f   toasty.obj
 0001:000b3df0       stbi_is_hdr_from_file      00000001400b4df0 f   toasty.obj
 0001:000b3e80       stbi_failure_reason        00000001400b4e80 f   toasty.obj
 0001:000b3eb0       stbi_image_free            00000001400b4eb0 f   toasty.obj
 0001:000b3ed0       stbi_info_from_memory      00000001400b4ed0 f   toasty.obj
 0001:000b3f60       stbi_info_from_callbacks   00000001400b4f60 f   toasty.obj
 0001:000b3ff0       stbi_is_16_bit_from_memory 00000001400b4ff0 f   toasty.obj
 0001:000b4060       stbi_is_16_bit_from_callbacks 00000001400b5060 f   toasty.obj
 0001:000b40d0       stbi_info                  00000001400b50d0 f   toasty.obj
 0001:000b4150       stbi_info_from_file        00000001400b5150 f   toasty.obj
 0001:000b4200       stbi_is_16_bit             00000001400b5200 f   toasty.obj
 0001:000b4260       stbi_is_16_bit_from_file   00000001400b5260 f   toasty.obj
 0001:000b42f0       stbi_set_unpremultiply_on_load 00000001400b52f0 f   toasty.obj
 0001:000b4310       stbi_convert_iphone_png_to_rgb 00000001400b5310 f   toasty.obj
 0001:000b4330       stbi_set_flip_vertically_on_load 00000001400b5330 f   toasty.obj
 0001:000b4350       stbi_convert_iphone_png_to_rgb_thread 00000001400b5350 f   toasty.obj
 0001:000b43a0       stbi_set_flip_vertically_on_load_thread 00000001400b53a0 f   toasty.obj
 0001:000b43f0       stbi_zlib_decode_malloc_guesssize 00000001400b53f0 f   toasty.obj
 0001:000b44f0       stbi_zlib_decode_malloc_guesssize_headerflag 00000001400b54f0 f   toasty.obj
 0001:000b4600       stbi_zlib_decode_malloc    00000001400b5600 f   toasty.obj
 0001:000b4640       stbi_zlib_decode_buffer    00000001400b5640 f   toasty.obj
 0001:000b4700       stbi_zlib_decode_noheader_malloc 00000001400b5700 f   toasty.obj
 0001:000b4800       stbi_zlib_decode_noheader_buffer 00000001400b5800 f   toasty.obj
 0001:000c9e90       ?stbi__unpremultiply_on_load_thread@@YAXH@Z 00000001400cae90 f   toasty.obj
 0001:000ce420       ?ReadTextFile@@YAPEADPEAD@Z 00000001400cf420 f   toasty.obj
 0001:000ce570       ?CreateClock@@YA?AUclock@@XZ 00000001400cf570 f   toasty.obj
 0001:000ce600       ?UpdateClock@@YAXPEAUclock@@@Z 00000001400cf600 f   toasty.obj
 0001:000ce700       ?CreateKeyboard@@YA?AUkeyboard@@XZ 00000001400cf700 f   toasty.obj
 0001:000ce7f0       ?UpdateKeyboard@@YAXPEAUkeyboard@@@Z 00000001400cf7f0 f   toasty.obj
 0001:000ce870       ?KeyIsPressed@@YAHPEAUkeyboard@@W4SDL_Scancode@@@Z 00000001400cf870 f   toasty.obj
 0001:000ce8a0       ?KeyIsNotPressed@@YAHPEAUkeyboard@@W4SDL_Scancode@@@Z 00000001400cf8a0 f   toasty.obj
 0001:000ce8e0       ?KeyWasNotPressed@@YAHPEAUkeyboard@@W4SDL_Scancode@@@Z 00000001400cf8e0 f   toasty.obj
 0001:000ce930       ?KeyIsReleased@@YAHPEAUkeyboard@@W4SDL_Scancode@@@Z 00000001400cf930 f   toasty.obj
 0001:000ce990       ?CreateMouse@@YA?AUmouse@@M@Z 00000001400cf990 f   toasty.obj
 0001:000cea00       ?UpdateMouse@@YAXPEAUmouse@@@Z 00000001400cfa00 f   toasty.obj
 0001:000cea70       ?ButtonIsPressed@@YAHPEAUmouse@@H@Z 00000001400cfa70 f   toasty.obj
 0001:000ceab0       ?ButtonWasNotPressed@@YAHPEAUmouse@@H@Z 00000001400cfab0 f   toasty.obj
 0001:000ceb10       ?UploadCameraMatrices@@YAXIPEAU?$mat@$03$03M$0A@@glm@@00@Z 00000001400cfb10 f   toasty.obj
 0001:000cec10       ?UpdateCameraViewMatrix@@YAXIPEAU?$mat@$03$03M$0A@@glm@@@Z 00000001400cfc10 f   toasty.obj
 0001:000cecb0       ?CreateRenderer@@YA?AUrenderer@@Uwindow@@@Z 00000001400cfcb0 f   toasty.obj
 0001:000cedd0       ?RendererDearImGui_BeginFrame@@YAXXZ 00000001400cfdd0 f   toasty.obj
 0001:000cede0       ?RendererDearImGui_EndFrame@@YAXXZ 00000001400cfde0 f   toasty.obj
 0001:000cedf0       ?RenderNewFrame@@YAXPEAUrenderer@@PEAUcamera@@@Z 00000001400cfdf0 f   toasty.obj
 0001:000cee80       ?RenderEndFrame@@YAXPEAUrenderer@@@Z 00000001400cfe80 f   toasty.obj
 0001:000ceeb0       ?EnableWireframeMode@@YAXXZ 00000001400cfeb0 f   toasty.obj
 0001:000ceed0       ?DisableWireframeMode@@YAXXZ 00000001400cfed0 f   toasty.obj
 0001:000ceef0       ?SetUniform@@YAXIPEBDU?$mat@$03$03M$0A@@glm@@@Z 00000001400cfef0 f   toasty.obj
 0001:000cef70       ?CreateCamera@@YA?AUcamera@@HHU?$vec@$02M$0A@@glm@@00@Z 00000001400cff70 f   toasty.obj
 0001:000cf210       ?UpdateCamera@@YAXPEAUcamera@@PEAUkeyboard@@PEAUmouse@@N@Z 00000001400d0210 f   toasty.obj
 0001:000cf700       ?CreateTexture@@YA?AUtexture@@V?$basic_string@DU?$char_traits@D@std@@V?$allocator@D@2@@std@@W4texture_type@@@Z 00000001400d0700 f   toasty.obj
 0001:000cfa20       ?ExtractTexture@@YAXPEBUaiMaterial@@V?$basic_string@DU?$char_traits@D@std@@V?$allocator@D@2@@std@@W4texture_type@@AEAV?$vector@Utexture@@V?$allocator@Utexture@@@std@@@3@@Z 00000001400d0a20 f   toasty.obj
 0001:000cfc10       ?ProcessMesh@@YAXPEBUaiScene@@PEBUmodel@@PEBUaiMesh@@AEAV?$vector@Umesh@@V?$allocator@Umesh@@@std@@@std@@@Z 00000001400d0c10 f   toasty.obj
 0001:000d02d0       ?ProcessNode@@YAXPEBUaiScene@@PEAUmodel@@PEBUaiNode@@@Z 00000001400d12d0 f   toasty.obj
 0001:000d0440       ?UploadModel@@YAXPEAUmodel@@@Z 00000001400d1440 f   toasty.obj
 0001:000d0660       ?CreateModel@@YA?AUmodel@@V?$basic_string@DU?$char_traits@D@std@@V?$allocator@D@2@@std@@@Z 00000001400d1660 f   toasty.obj
 0001:000d0820       ?CreateOpenGLWindow@@YA?AUwindow@@PEADHH@Z 00000001400d1820 f   toasty.obj
 0001:000d0a40       ?SetupDearImGui@@YAXPEAUwindow@@@Z 00000001400d1a40 f   toasty.obj
 0001:000d0ae0       ?ProcessEventQueue@@YAXPEAH@Z 00000001400d1ae0 f   toasty.obj
 0001:000d0b70       ?CreateShader@@YAIPEAD@Z   00000001400d1b70 f   toasty.obj
 0001:000d0e40       ?ActivateShader@@YAXI@Z    00000001400d1e40 f   toasty.obj
 0001:000d0e60       ?BindTexture2D@@YAXII@Z    00000001400d1e60 f   toasty.obj
 0001:000d0ea0       ?DrawGUI@@YAXAEAUrenderer@@AEAUcamera@@AEAUmodel@@@Z 00000001400d1ea0 f   toasty.obj
 0001:00104350       ??$?0$$V@?$_Compressed_pair@V?$allocator@D@std@@V?$_String_val@U?$_Simple_types@D@std@@@2@$00@std@@QEAA@U_Zero_then_variadic_args_t@1@@Z 0000000140105350 f i toasty.obj
 0001:00104390       ??$?0$$V@?$_Compressed_pair@V?$allocator@I@std@@V?$_Vector_val@U?$_Simple_types@I@std@@@2@$00@std@@QEAA@U_Zero_then_variadic_args_t@1@@Z 0000000140105390 f i toasty.obj
 0001:001043d0       ??$?0$$V@?$_Compressed_pair@V?$allocator@Umesh@@@std@@V?$_Vector_val@U?$_Simple_types@Umesh@@@std@@@2@$00@std@@QEAA@U_Zero_then_variadic_args_t@1@@Z 00000001401053d0 f i toasty.obj
 0001:00104410       ??$?0$$V@?$_Compressed_pair@V?$allocator@Utexture@@@std@@V?$_Vector_val@U?$_Simple_types@Utexture@@@std@@@2@$00@std@@QEAA@U_Zero_then_variadic_args_t@1@@Z 0000000140105410 f i toasty.obj
 0001:00104450       ??$?0$$V@?$_Compressed_pair@V?$allocator@Uvertex@@@std@@V?$_Vector_val@U?$_Simple_types@Uvertex@@@std@@@2@$00@std@@QEAA@U_Zero_then_variadic_args_t@1@@Z 0000000140105450 f i toasty.obj
 0001:00104490       ??$?0AEBV?$allocator@D@std@@$$V@?$_Compressed_pair@V?$allocator@D@std@@V?$_String_val@U?$_Simple_types@D@std@@@2@$00@std@@QEAA@U_One_then_variadic_args_t@1@AEBV?$allocator@D@1@@Z 0000000140105490 f i toasty.obj
 0001:001044d0       ??$?0HHHM@?$vec@$03M$0A@@glm@@QEAA@HHHM@Z 00000001401054d0 f i toasty.obj
 0001:00104540       ??$?0HHMH@?$vec@$03M$0A@@glm@@QEAA@HHMH@Z 0000000140105540 f i toasty.obj
 0001:001045b0       ??$?0HMHH@?$vec@$03M$0A@@glm@@QEAA@HMHH@Z 00000001401055b0 f i toasty.obj
 0001:00104620       ??$?0MHHH@?$vec@$03M$0A@@glm@@QEAA@MHHH@Z 0000000140105620 f i toasty.obj
 0001:00104690       ??$?0V?$allocator@D@std@@$$V@?$_Compressed_pair@V?$allocator@D@std@@V?$_String_val@U?$_Simple_types@D@std@@@2@$00@std@@QEAA@U_One_then_variadic_args_t@1@$$QEAV?$allocator@D@1@@Z 0000000140105690 f i toasty.obj
 0001:001046d0       ??$?0V?$allocator@I@std@@$$V@?$_Compressed_pair@V?$allocator@I@std@@V?$_Vector_val@U?$_Simple_types@I@std@@@2@$00@std@@QEAA@U_One_then_variadic_args_t@1@$$QEAV?$allocator@I@1@@Z 00000001401056d0 f i toasty.obj
 0001:00104710       ??$?0V?$allocator@I@std@@PEAIPEAIPEAI@?$_Compressed_pair@V?$allocator@I@std@@V?$_Vector_val@U?$_Simple_types@I@std@@@2@$00@std@@QEAA@U_One_then_variadic_args_t@1@$$QEAV?$allocator@I@1@$$QEAPEAI22@Z 0000000140105710 f i toasty.obj
 0001:001047a0       ??$?0V?$allocator@Umesh@@@std@@PEAUmesh@@PEAU2@PEAU2@@?$_Compressed_pair@V?$allocator@Umesh@@@std@@V?$_Vector_val@U?$_Simple_types@Umesh@@@std@@@2@$00@std@@QEAA@U_One_then_variadic_args_t@1@$$QEAV?$allocator@Umesh@@@1@$$QEAPEAUmesh@@22@Z 00000001401057a0 f i toasty.obj
 0001:00104830       ??$?0V?$allocator@Utexture@@@std@@$$V@?$_Compressed_pair@V?$allocator@Utexture@@@std@@V?$_Vector_val@U?$_Simple_types@Utexture@@@std@@@2@$00@std@@QEAA@U_One_then_variadic_args_t@1@$$QEAV?$allocator@Utexture@@@1@@Z 0000000140105830 f i toasty.obj
 0001:00104870       ??$?0V?$allocator@Utexture@@@std@@PEAUtexture@@PEAU2@PEAU2@@?$_Compressed_pair@V?$allocator@Utexture@@@std@@V?$_Vector_val@U?$_Simple_types@Utexture@@@std@@@2@$00@std@@QEAA@U_One_then_variadic_args_t@1@$$QEAV?$allocator@Utexture@@@1@$$QEAPEAUtexture@@22@Z 0000000140105870 f i toasty.obj
 0001:00104900       ??$?0V?$allocator@Uvertex@@@std@@$$V@?$_Compressed_pair@V?$allocator@Uvertex@@@std@@V?$_Vector_val@U?$_Simple_types@Uvertex@@@std@@@2@$00@std@@QEAA@U_One_then_variadic_args_t@1@$$QEAV?$allocator@Uvertex@@@1@@Z 0000000140105900 f i toasty.obj
 0001:00104940       ??$?0V?$allocator@Uvertex@@@std@@PEAUvertex@@PEAU2@PEAU2@@?$_Compressed_pair@V?$allocator@Uvertex@@@std@@V?$_Vector_val@U?$_Simple_types@Uvertex@@@std@@@2@$00@std@@QEAA@U_One_then_variadic_args_t@1@$$QEAV?$allocator@Uvertex@@@1@$$QEAPEAUvertex@@22@Z 0000000140105940 f i toasty.obj
 0001:001049d0       ??$?DM$0A@@glm@@YA?AU?$vec@$02M$0A@@0@AEBU10@0@Z 00000001401059d0 f i toasty.obj
 0001:00104a70       ??$?DM$0A@@glm@@YA?AU?$vec@$02M$0A@@0@AEBU10@M@Z 0000000140105a70 f i toasty.obj
 0001:00104b00       ??$?DM$0A@@glm@@YA?AU?$vec@$03M$0A@@0@AEBU10@AEBM@Z 0000000140105b00 f i toasty.obj
 0001:00104b70       ??$?GM$0A@@glm@@YA?AU?$vec@$02M$0A@@0@AEBU10@0@Z 0000000140105b70 f i toasty.obj
 0001:00104c10       ??$?HDU?$char_traits@D@std@@V?$allocator@D@1@@std@@YA?AV?$basic_string@DU?$char_traits@D@std@@V?$allocator@D@2@@0@$$QEAV10@QEBD@Z 0000000140105c10 f i toasty.obj
 0001:00104c80       ??$?HDU?$char_traits@D@std@@V?$allocator@D@1@@std@@YA?AV?$basic_string@DU?$char_traits@D@std@@V?$allocator@D@2@@0@AEBV10@D@Z 0000000140105c80 f i toasty.obj
 0001:00104d70       ??$?HM$0A@@glm@@YA?AU?$vec@$02M$0A@@0@AEBU10@0@Z 0000000140105d70 f i toasty.obj
 0001:00104e10       ??$?XM@?$vec@$03M$0A@@glm@@QEAAAEAU01@M@Z 0000000140105e10 f i toasty.obj
 0001:00104e80       ??$CheckboxFlagsT@H@ImGui@@YA_NPEBDPEAHH@Z 0000000140105e80 f i toasty.obj
 0001:00105010       ??$CheckboxFlagsT@I@ImGui@@YA_NPEBDPEAII@Z 0000000140106010 f i toasty.obj
 0001:001051a0       ??$CheckboxFlagsT@_J@ImGui@@YA_NPEBDPEA_J_J@Z 00000001401061a0 f i toasty.obj
 0001:00105340       ??$CheckboxFlagsT@_K@ImGui@@YA_NPEBDPEA_K_K@Z 0000000140106340 f i toasty.obj
 0001:001054e0       ??$DragBehaviorT@HHM@ImGui@@YA_NHPEAHMHHPEBDH@Z 00000001401064e0 f i toasty.obj
 0001:00105e30       ??$DragBehaviorT@IHM@ImGui@@YA_NHPEAIMIIPEBDH@Z 0000000140106e30 f i toasty.obj
 0001:00106790       ??$DragBehaviorT@MMM@ImGui@@YA_NHPEAMMMMPEBDH@Z 0000000140107790 f i toasty.obj
 0001:00107120       ??$DragBehaviorT@NNN@ImGui@@YA_NHPEANMNNPEBDH@Z 0000000140108120 f i toasty.obj
 0001:00107b00       ??$DragBehaviorT@_J_JN@ImGui@@YA_NHPEA_JM_J1PEBDH@Z 0000000140108b00 f i toasty.obj
 0001:001084c0       ??$DragBehaviorT@_K_JN@ImGui@@YA_NHPEA_KM_K1PEBDH@Z 00000001401094c0 f i toasty.obj
 0001:00108f60       ??$GetSpan@C@?$ImSpanAllocator@$02@@QEAAXHPEAU?$ImSpan@C@@@Z 0000000140109f60 f i toasty.obj
 0001:00108fc0       ??$GetSpan@UImGuiTableCellData@@@?$ImSpanAllocator@$02@@QEAAXHPEAU?$ImSpan@UImGuiTableCellData@@@@@Z 0000000140109fc0 f i toasty.obj
 0001:00109020       ??$GetSpan@UImGuiTableColumn@@@?$ImSpanAllocator@$02@@QEAAXHPEAU?$ImSpan@UImGuiTableColumn@@@@@Z 000000014010a020 f i toasty.obj
 0001:00109080       ??$IM_DELETE@D@@YAXPEAD@Z  000000014010a080 f i toasty.obj
 0001:001090b0       ??$IM_DELETE@UImDrawList@@@@YAXPEAUImDrawList@@@Z 000000014010a0b0 f i toasty.obj
 0001:001090f0       ??$IM_DELETE@UImFont@@@@YAXPEAUImFont@@@Z 000000014010a0f0 f i toasty.obj
 0001:00109130       ??$IM_DELETE@UImFontAtlas@@@@YAXPEAUImFontAtlas@@@Z 000000014010a130 f i toasty.obj
 0001:00109170       ??$IM_DELETE@UImGuiContext@@@@YAXPEAUImGuiContext@@@Z 000000014010a170 f i toasty.obj
 0001:001091b0       ??$IM_DELETE@UImGuiViewportP@@@@YAXPEAUImGuiViewportP@@@Z 000000014010a1b0 f i toasty.obj
 0001:001091f0       ??$IM_DELETE@UImGuiWindow@@@@YAXPEAUImGuiWindow@@@Z 000000014010a1f0 f i toasty.obj
 0001:00109230       ??$IM_DELETE@UImGui_ImplOpenGL3_Data@@@@YAXPEAUImGui_ImplOpenGL3_Data@@@Z 000000014010a230 f i toasty.obj
 0001:00109260       ??$IM_DELETE@UImGui_ImplSDL2_Data@@@@YAXPEAUImGui_ImplSDL2_Data@@@Z 000000014010a260 f i toasty.obj
 0001:00109290       ??$RoundScalarWithFormatT@H@ImGui@@YAHPEBDHH@Z 000000014010a290 f i toasty.obj
 0001:00109420       ??$RoundScalarWithFormatT@I@ImGui@@YAIPEBDHI@Z 000000014010a420 f i toasty.obj
 0001:001095b0       ??$RoundScalarWithFormatT@M@ImGui@@YAMPEBDHM@Z 000000014010a5b0 f i toasty.obj
 0001:00109750       ??$RoundScalarWithFormatT@N@ImGui@@YANPEBDHN@Z 000000014010a750 f i toasty.obj
 0001:001098f0       ??$RoundScalarWithFormatT@_J@ImGui@@YA_JPEBDH_J@Z 000000014010a8f0 f i toasty.obj
 0001:00109a80       ??$RoundScalarWithFormatT@_K@ImGui@@YA_KPEBDH_K@Z 000000014010aa80 f i toasty.obj
 0001:00109c50       ??$ScaleRatioFromValueT@HHM@ImGui@@YAMHHHH_NMM@Z 000000014010ac50 f i toasty.obj
 0001:0010a2f0       ??$ScaleRatioFromValueT@IHM@ImGui@@YAMHIII_NMM@Z 000000014010b2f0 f i toasty.obj
 0001:0010a9f0       ??$ScaleRatioFromValueT@MMM@ImGui@@YAMHMMM_NMM@Z 000000014010b9f0 f i toasty.obj
 0001:0010b080       ??$ScaleRatioFromValueT@NNN@ImGui@@YAMHNNN_NMM@Z 000000014010c080 f i toasty.obj
 0001:0010b790       ??$ScaleRatioFromValueT@_J_JN@ImGui@@YAMH_J00_NMM@Z 000000014010c790 f i toasty.obj
 0001:0010bed0       ??$ScaleRatioFromValueT@_K_JN@ImGui@@YAMH_K00_NMM@Z 000000014010ced0 f i toasty.obj
 0001:0010ca30       ??$ScaleValueFromRatioT@HHM@ImGui@@YAHHMHH_NMM@Z 000000014010da30 f i toasty.obj
 0001:0010d120       ??$ScaleValueFromRatioT@IHM@ImGui@@YAIHMII_NMM@Z 000000014010e120 f i toasty.obj
 0001:0010d850       ??$ScaleValueFromRatioT@MMM@ImGui@@YAMHMMM_NMM@Z 000000014010e850 f i toasty.obj
 0001:0010df40       ??$ScaleValueFromRatioT@NNN@ImGui@@YANHMNN_NMM@Z 000000014010ef40 f i toasty.obj
 0001:0010e6b0       ??$ScaleValueFromRatioT@_J_JN@ImGui@@YA_JHM_J0_NMM@Z 000000014010f6b0 f i toasty.obj
 0001:0010ee40       ??$ScaleValueFromRatioT@_K_JN@ImGui@@YA_KHM_K0_NMM@Z 000000014010fe40 f i toasty.obj
 0001:0010f930       ??$SliderBehaviorT@HHM@ImGui@@YA_NAEBUImRect@@IHPEAHHHPEBDHPEAU1@@Z 0000000140110930 f i toasty.obj
 0001:001107e0       ??$SliderBehaviorT@IHM@ImGui@@YA_NAEBUImRect@@IHPEAIIIPEBDHPEAU1@@Z 00000001401117e0 f i toasty.obj
 0001:00111690       ??$SliderBehaviorT@MMM@ImGui@@YA_NAEBUImRect@@IHPEAMMMPEBDHPEAU1@@Z 0000000140112690 f i toasty.obj
 0001:00112570       ??$SliderBehaviorT@NNN@ImGui@@YA_NAEBUImRect@@IHPEANNNPEBDHPEAU1@@Z 0000000140113570 f i toasty.obj
 0001:00113470       ??$SliderBehaviorT@_J_JN@ImGui@@YA_NAEBUImRect@@IHPEA_J_J2PEBDHPEAU1@@Z 0000000140114470 f i toasty.obj
 0001:00114350       ??$SliderBehaviorT@_K_JN@ImGui@@YA_NAEBUImRect@@IHPEA_K_K2PEBDHPEAU1@@Z 0000000140115350 f i toasty.obj
 0001:00115230       ??$_Allocate@$0BA@U_Default_allocate_traits@std@@$0A@@std@@YAPEAX_K@Z 0000000140116230 f i toasty.obj
 0001:00115280       ??$_Allocate_manually_vector_aligned@U_Default_allocate_traits@std@@@std@@YAPEAX_K@Z 0000000140116280 f i toasty.obj
 0001:00115330       ??$_Construct_in_place@PEADAEAPEAD@std@@YAXAEAPEAD0@Z 0000000140116330 f i toasty.obj
 0001:00115390       ??$_Construct_in_place@PEADAEBQEAD@std@@YAXAEAPEADAEBQEAD@Z 0000000140116390 f i toasty.obj
 0001:001153f0       ??$_Construct_n@AEBQEAIAEBQEAI@?$vector@IV?$allocator@I@std@@@std@@AEAAX_KAEBQEAI1@Z 00000001401163f0 f i toasty.obj
 0001:00115500       ??$_Construct_n@AEBQEAUtexture@@AEBQEAU1@@?$vector@Utexture@@V?$allocator@Utexture@@@std@@@std@@AEAAX_KAEBQEAUtexture@@1@Z 0000000140116500 f i toasty.obj
 0001:00115610       ??$_Construct_n@AEBQEAUvertex@@AEBQEAU1@@?$vector@Uvertex@@V?$allocator@Uvertex@@@std@@@std@@AEAAX_KAEBQEAUvertex@@1@Z 0000000140116610 f i toasty.obj
 0001:00115720       ??$_Convert_size@_K@std@@YA_K_K@Z 0000000140116720 f i toasty.obj
 0001:00115730       ??$_Copy_memmove@PEAIPEAI@std@@YAPEAIPEAI00@Z 0000000140116730 f i toasty.obj
 0001:00115800       ??$_Copy_memmove@PEAUvertex@@PEAU1@@std@@YAPEAUvertex@@PEAU1@00@Z 0000000140116800 f i toasty.obj
 0001:001158d0       ??$_Deallocate@$0BA@$0A@@std@@YAXPEAX_K@Z 00000001401168d0 f i toasty.obj
 0001:00115920       ??$_Destroy_in_place@PEAD@std@@YAXAEAPEAD@Z 0000000140116920 f i toasty.obj
 0001:00115930       ??$_Destroy_range@V?$allocator@I@std@@@std@@YAXPEAIQEAIAEAV?$allocator@I@0@@Z 0000000140116930 f i toasty.obj
 0001:00115950       ??$_Destroy_range@V?$allocator@Umesh@@@std@@@std@@YAXPEAUmesh@@QEAU1@AEAV?$allocator@Umesh@@@0@@Z 0000000140116950 f i toasty.obj
 0001:001159c0       ??$_Destroy_range@V?$allocator@Utexture@@@std@@@std@@YAXPEAUtexture@@QEAU1@AEAV?$allocator@Utexture@@@0@@Z 00000001401169c0 f i toasty.obj
 0001:00115a20       ??$_Destroy_range@V?$allocator@Uvertex@@@std@@@std@@YAXPEAUvertex@@QEAU1@AEAV?$allocator@Uvertex@@@0@@Z 0000000140116a20 f i toasty.obj
 0001:00115a40       ??$_Emplace_back@AEAI@?$_Uninitialized_backout_al@V?$allocator@I@std@@@std@@QEAAXAEAI@Z 0000000140116a40 f i toasty.obj
 0001:00115ac0       ??$_Emplace_back@AEAUtexture@@@?$_Uninitialized_backout_al@V?$allocator@Utexture@@@std@@@std@@QEAAXAEAUtexture@@@Z 0000000140116ac0 f i toasty.obj
 0001:00115b40       ??$_Emplace_back@AEAUvertex@@@?$_Uninitialized_backout_al@V?$allocator@Uvertex@@@std@@@std@@QEAAXAEAUvertex@@@Z 0000000140116b40 f i toasty.obj
 0001:00115bc0       ??$_Emplace_back@I@?$_Uninitialized_backout_al@V?$allocator@I@std@@@std@@QEAAX$$QEAI@Z 0000000140116bc0 f i toasty.obj
 0001:00115c40       ??$_Emplace_back@Umesh@@@?$_Uninitialized_backout_al@V?$allocator@Umesh@@@std@@@std@@QEAAX$$QEAUmesh@@@Z 0000000140116c40 f i toasty.obj
 0001:00115cc0       ??$_Emplace_back@Utexture@@@?$_Uninitialized_backout_al@V?$allocator@Utexture@@@std@@@std@@QEAAX$$QEAUtexture@@@Z 0000000140116cc0 f i toasty.obj
 0001:00115d40       ??$_Emplace_back@Uvertex@@@?$_Uninitialized_backout_al@V?$allocator@Uvertex@@@std@@@std@@QEAAX$$QEAUvertex@@@Z 0000000140116d40 f i toasty.obj
 0001:00115dc0       ??$_Emplace_back_with_unused_capacity@AEBI@?$vector@IV?$allocator@I@std@@@std@@AEAA?A_TAEBI@Z 0000000140116dc0 f i toasty.obj
 0001:00115ea0       ??$_Emplace_back_with_unused_capacity@AEBUmesh@@@?$vector@Umesh@@V?$allocator@Umesh@@@std@@@std@@AEAA?A_TAEBUmesh@@@Z 0000000140116ea0 f i toasty.obj
 0001:00115f80       ??$_Emplace_back_with_unused_capacity@AEBUtexture@@@?$vector@Utexture@@V?$allocator@Utexture@@@std@@@std@@AEAA?A_TAEBUtexture@@@Z 0000000140116f80 f i toasty.obj
 0001:00116060       ??$_Emplace_back_with_unused_capacity@AEBUvertex@@@?$vector@Uvertex@@V?$allocator@Uvertex@@@std@@@std@@AEAA?A_TAEBUvertex@@@Z 0000000140117060 f i toasty.obj
 0001:00116140       ??$_Emplace_reallocate@AEBI@?$vector@IV?$allocator@I@std@@@std@@QEAAPEAIQEAIAEBI@Z 0000000140117140 f i toasty.obj
 0001:001163d0       ??$_Emplace_reallocate@AEBUmesh@@@?$vector@Umesh@@V?$allocator@Umesh@@@std@@@std@@QEAAPEAUmesh@@QEAU2@AEBU2@@Z 00000001401173d0 f i toasty.obj
 0001:00116690       ??$_Emplace_reallocate@AEBUtexture@@@?$vector@Utexture@@V?$allocator@Utexture@@@std@@@std@@QEAAPEAUtexture@@QEAU2@AEBU2@@Z 0000000140117690 f i toasty.obj
 0001:00116920       ??$_Emplace_reallocate@AEBUvertex@@@?$vector@Uvertex@@V?$allocator@Uvertex@@@std@@@std@@QEAAPEAUvertex@@QEAU2@AEBU2@@Z 0000000140117920 f i toasty.obj
 0001:00116bb0       ??$_Get_size_of_n@$00@std@@YA_K_K@Z 0000000140117bb0 f i toasty.obj
 0001:00116bd0       ??$_Get_size_of_n@$03@std@@YA_K_K@Z 0000000140117bd0 f i toasty.obj
 0001:00116c30       ??$_Get_size_of_n@$0CA@@std@@YA_K_K@Z 0000000140117c30 f i toasty.obj
 0001:00116c80       ??$_Get_size_of_n@$0EA@@std@@YA_K_K@Z 0000000140117c80 f i toasty.obj
 0001:00116cd0       ??$_Get_size_of_n@$0MI@@std@@YA_K_K@Z 0000000140117cd0 f i toasty.obj
 0001:00116d30       ??$_Get_unwrapped@AEBQEAI@std@@YA?A_TAEBQEAI@Z 0000000140117d30 f i toasty.obj
 0001:00116d50       ??$_Get_unwrapped@AEBQEAUmesh@@@std@@YA?A_TAEBQEAUmesh@@@Z 0000000140117d50 f i toasty.obj
 0001:00116d70       ??$_Get_unwrapped@AEBQEAUtexture@@@std@@YA?A_TAEBQEAUtexture@@@Z 0000000140117d70 f i toasty.obj
 0001:00116d90       ??$_Get_unwrapped@AEBQEAUvertex@@@std@@YA?A_TAEBQEAUvertex@@@Z 0000000140117d90 f i toasty.obj
 0001:00116db0       ??$_Pocca@V?$allocator@D@std@@@std@@YAXAEAV?$allocator@D@0@AEBV10@@Z 0000000140117db0 f i toasty.obj
 0001:00116dc0       ??$_Pocma@V?$allocator@D@std@@@std@@YAXAEAV?$allocator@D@0@0@Z 0000000140117dc0 f i toasty.obj
 0001:00116df0       ??$_Reallocate_for@V<lambda_66f57f934f28d61049862f64df852ff0>@@PEBD@?$basic_string@DU?$char_traits@D@std@@V?$allocator@D@2@@std@@AEAAAEAV01@_KV<lambda_66f57f934f28d61049862f64df852ff0>@@PEBD@Z 0000000140117df0 f i toasty.obj
 0001:00116f50       ??$_Reallocate_grow_by@V<lambda_65e615be2a453ca0576c979606f46740>@@PEBD_K@?$basic_string@DU?$char_traits@D@std@@V?$allocator@D@2@@std@@AEAAAEAV01@_KV<lambda_65e615be2a453ca0576c979606f46740>@@PEBD_K@Z 0000000140117f50 f i toasty.obj
 0001:00117190       ??$_To_address@PEAI@std@@YA?A_PAEBQEAI@Z 0000000140118190 f i toasty.obj
 0001:001171b0       ??$_To_address@PEAUvertex@@@std@@YA?A_PAEBQEAUvertex@@@Z 00000001401181b0 f i toasty.obj
 0001:001171d0       ??$_Traits_rfind_ch@U?$char_traits@D@std@@@std@@YA_KQEBD_K1D@Z 00000001401181d0 f i toasty.obj
 0001:001172a0       ??$_Unfancy@D@std@@YAPEADPEAD@Z 00000001401182a0 f i toasty.obj
 0001:001172b0       ??$_Unfancy@I@std@@YAPEAIPEAI@Z 00000001401182b0 f i toasty.obj
 0001:001172c0       ??$_Unfancy@Umesh@@@std@@YAPEAUmesh@@PEAU1@@Z 00000001401182c0 f i toasty.obj
 0001:001172d0       ??$_Unfancy@Utexture@@@std@@YAPEAUtexture@@PEAU1@@Z 00000001401182d0 f i toasty.obj
 0001:001172e0       ??$_Unfancy@Uvertex@@@std@@YAPEAUvertex@@PEAU1@@Z 00000001401182e0 f i toasty.obj
 0001:001172f0       ??$_Uninitialized_copy@PEAIV?$allocator@I@std@@@std@@YAPEAIQEAI0PEAIAEAV?$allocator@I@0@@Z 00000001401182f0 f i toasty.obj
 0001:00117410       ??$_Uninitialized_copy@PEAUtexture@@V?$allocator@Utexture@@@std@@@std@@YAPEAUtexture@@QEAU1@0PEAU1@AEAV?$allocator@Utexture@@@0@@Z 0000000140118410 f i toasty.obj
 0001:001174e0       ??$_Uninitialized_copy@PEAUvertex@@V?$allocator@Uvertex@@@std@@@std@@YAPEAUvertex@@QEAU1@0PEAU1@AEAV?$allocator@Uvertex@@@0@@Z 00000001401184e0 f i toasty.obj
 0001:00117600       ??$_Uninitialized_move@PEAIV?$allocator@I@std@@@std@@YAPEAIQEAI0PEAIAEAV?$allocator@I@0@@Z 0000000140118600 f i toasty.obj
 0001:00117720       ??$_Uninitialized_move@PEAUmesh@@V?$allocator@Umesh@@@std@@@std@@YAPEAUmesh@@QEAU1@0PEAU1@AEAV?$allocator@Umesh@@@0@@Z 0000000140118720 f i toasty.obj
 0001:001177f0       ??$_Uninitialized_move@PEAUtexture@@V?$allocator@Utexture@@@std@@@std@@YAPEAUtexture@@QEAU1@0PEAU1@AEAV?$allocator@Utexture@@@0@@Z 00000001401187f0 f i toasty.obj
 0001:001178c0       ??$_Uninitialized_move@PEAUvertex@@V?$allocator@Uvertex@@@std@@@std@@YAPEAUvertex@@QEAU1@0PEAU1@AEAV?$allocator@Uvertex@@@0@@Z 00000001401188c0 f i toasty.obj
 0001:001179e0       ??$_Voidify_iter@PEAI@std@@YAPEAXPEAI@Z 00000001401189e0 f i toasty.obj
 0001:001179f0       ??$_Voidify_iter@PEAPEAD@std@@YAPEAXPEAPEAD@Z 00000001401189f0 f i toasty.obj
 0001:00117a00       ??$_Voidify_iter@PEAUmesh@@@std@@YAPEAXPEAUmesh@@@Z 0000000140118a00 f i toasty.obj
 0001:00117a10       ??$_Voidify_iter@PEAUtexture@@@std@@YAPEAXPEAUtexture@@@Z 0000000140118a10 f i toasty.obj
 0001:00117a20       ??$_Voidify_iter@PEAUvertex@@@std@@YAPEAXPEAUvertex@@@Z 0000000140118a20 f i toasty.obj
 0001:00117a30       ??$abs@M@glm@@YAMM@Z       0000000140118a30 f i toasty.obj
 0001:00117a50       ??$addressof@$$CBD@std@@YAPEBDAEBD@Z 0000000140118a50 f i toasty.obj
 0001:00117a60       ??$addressof@$$CBV?$_String_val@U?$_Simple_types@D@std@@@std@@@std@@YAPEBV?$_String_val@U?$_Simple_types@D@std@@@0@AEBV10@@Z 0000000140118a60 f i toasty.obj
 0001:00117a70       ??$addressof@$$CBV?$basic_string@DU?$char_traits@D@std@@V?$allocator@D@2@@std@@@std@@YAPEBV?$basic_string@DU?$char_traits@D@std@@V?$allocator@D@2@@0@AEBV10@@Z 0000000140118a70 f i toasty.obj
 0001:00117a80       ??$addressof@PEAD@std@@YAPEAPEADAEAPEAD@Z 0000000140118a80 f i toasty.obj
 0001:00117a90       ??$addressof@V?$_String_val@U?$_Simple_types@D@std@@@std@@@std@@YAPEAV?$_String_val@U?$_Simple_types@D@std@@@0@AEAV10@@Z 0000000140118a90 f i toasty.obj
 0001:00117aa0       ??$addressof@V?$basic_string@DU?$char_traits@D@std@@V?$allocator@D@2@@std@@@std@@YAPEAV?$basic_string@DU?$char_traits@D@std@@V?$allocator@D@2@@0@AEAV10@@Z 0000000140118aa0 f i toasty.obj
 0001:00117ab0       ??$construct@IAEAI@?$_Default_allocator_traits@V?$allocator@I@std@@@std@@SAXAEAV?$allocator@I@1@QEAIAEAI@Z 0000000140118ab0 f i toasty.obj
 0001:00117b10       ??$construct@IAEBI@?$_Default_allocator_traits@V?$allocator@I@std@@@std@@SAXAEAV?$allocator@I@1@QEAIAEBI@Z 0000000140118b10 f i toasty.obj
 0001:00117b70       ??$construct@II@?$_Default_allocator_traits@V?$allocator@I@std@@@std@@SAXAEAV?$allocator@I@1@QEAI$$QEAI@Z 0000000140118b70 f i toasty.obj
 0001:00117bd0       ??$construct@Umesh@@AEBU1@@?$_Default_allocator_traits@V?$allocator@Umesh@@@std@@@std@@SAXAEAV?$allocator@Umesh@@@1@QEAUmesh@@AEBU3@@Z 0000000140118bd0 f i toasty.obj
 0001:00117c30       ??$construct@Umesh@@U1@@?$_Default_allocator_traits@V?$allocator@Umesh@@@std@@@std@@SAXAEAV?$allocator@Umesh@@@1@QEAUmesh@@$$QEAU3@@Z 0000000140118c30 f i toasty.obj
 0001:00117c90       ??$construct@Utexture@@AEAU1@@?$_Default_allocator_traits@V?$allocator@Utexture@@@std@@@std@@SAXAEAV?$allocator@Utexture@@@1@QEAUtexture@@AEAU3@@Z 0000000140118c90 f i toasty.obj
 0001:00117cf0       ??$construct@Utexture@@AEBU1@@?$_Default_allocator_traits@V?$allocator@Utexture@@@std@@@std@@SAXAEAV?$allocator@Utexture@@@1@QEAUtexture@@AEBU3@@Z 0000000140118cf0 f i toasty.obj
 0001:00117d50       ??$construct@Utexture@@U1@@?$_Default_allocator_traits@V?$allocator@Utexture@@@std@@@std@@SAXAEAV?$allocator@Utexture@@@1@QEAUtexture@@$$QEAU3@@Z 0000000140118d50 f i toasty.obj
 0001:00117db0       ??$construct@Uvertex@@AEAU1@@?$_Default_allocator_traits@V?$allocator@Uvertex@@@std@@@std@@SAXAEAV?$allocator@Uvertex@@@1@QEAUvertex@@AEAU3@@Z 0000000140118db0 f i toasty.obj
 0001:00117e20       ??$construct@Uvertex@@AEBU1@@?$_Default_allocator_traits@V?$allocator@Uvertex@@@std@@@std@@SAXAEAV?$allocator@Uvertex@@@1@QEAUvertex@@AEBU3@@Z 0000000140118e20 f i toasty.obj
 0001:00117e90       ??$construct@Uvertex@@U1@@?$_Default_allocator_traits@V?$allocator@Uvertex@@@std@@@std@@SAXAEAV?$allocator@Uvertex@@@1@QEAUvertex@@$$QEAU3@@Z 0000000140118e90 f i toasty.obj
 0001:00117f00       ??$cross@M$0A@@glm@@YA?AU?$vec@$02M$0A@@0@AEBU10@0@Z 0000000140118f00 f i toasty.obj
 0001:00117f40       ??$destroy@Umesh@@@?$_Default_allocator_traits@V?$allocator@Umesh@@@std@@@std@@SAXAEAV?$allocator@Umesh@@@1@QEAUmesh@@@Z 0000000140118f40 f i toasty.obj
 0001:00117f70       ??$destroy@Utexture@@@?$_Default_allocator_traits@V?$allocator@Utexture@@@std@@@std@@SAXAEAV?$allocator@Utexture@@@1@QEAUtexture@@@Z 0000000140118f70 f i toasty.obj
 0001:00117fa0       ??$dot@$02M$0A@@glm@@YAMAEBU?$vec@$02M$0A@@0@0@Z 0000000140118fa0 f i toasty.obj
 0001:00117fd0       ??$emplace_back@AEBI@?$vector@IV?$allocator@I@std@@@std@@QEAA?A_TAEBI@Z 0000000140118fd0 f i toasty.obj
 0001:00118070       ??$emplace_back@AEBUmesh@@@?$vector@Umesh@@V?$allocator@Umesh@@@std@@@std@@QEAA?A_TAEBUmesh@@@Z 0000000140119070 f i toasty.obj
 0001:00118110       ??$emplace_back@AEBUtexture@@@?$vector@Utexture@@V?$allocator@Utexture@@@std@@@std@@QEAA?A_TAEBUtexture@@@Z 0000000140119110 f i toasty.obj
 0001:001181b0       ??$emplace_back@AEBUvertex@@@?$vector@Uvertex@@V?$allocator@Uvertex@@@std@@@std@@QEAA?A_TAEBUvertex@@@Z 00000001401191b0 f i toasty.obj
 0001:00118250       ??$exchange@PEAI$$T@std@@YAPEAIAEAPEAI$$QEA$$T@Z 0000000140119250 f i toasty.obj
 0001:00118290       ??$exchange@PEAUmesh@@$$T@std@@YAPEAUmesh@@AEAPEAU1@$$QEA$$T@Z 0000000140119290 f i toasty.obj
 0001:001182d0       ??$exchange@PEAUtexture@@$$T@std@@YAPEAUtexture@@AEAPEAU1@$$QEA$$T@Z 00000001401192d0 f i toasty.obj
 0001:00118310       ??$exchange@PEAUvertex@@$$T@std@@YAPEAUvertex@@AEAPEAU1@$$QEA$$T@Z 0000000140119310 f i toasty.obj
 0001:00118350       ??$forward@AEAI@std@@YAAEAIAEAI@Z 0000000140119350 f i toasty.obj
 0001:00118360       ??$forward@AEAPEAD@std@@YAAEAPEADAEAPEAD@Z 0000000140119360 f i toasty.obj
 0001:00118370       ??$forward@AEAUtexture@@@std@@YAAEAUtexture@@AEAU1@@Z 0000000140119370 f i toasty.obj
 0001:00118380       ??$forward@AEAUvertex@@@std@@YAAEAUvertex@@AEAU1@@Z 0000000140119380 f i toasty.obj
 0001:00118390       ??$forward@AEBI@std@@YAAEBIAEBI@Z 0000000140119390 f i toasty.obj
 0001:001183a0       ??$forward@AEBQEAD@std@@YAAEBQEADAEBQEAD@Z 00000001401193a0 f i toasty.obj
 0001:001183b0       ??$forward@AEBQEAI@std@@YAAEBQEAIAEBQEAI@Z 00000001401193b0 f i toasty.obj
 0001:001183c0       ??$forward@AEBQEAUtexture@@@std@@YAAEBQEAUtexture@@AEBQEAU1@@Z 00000001401193c0 f i toasty.obj
 0001:001183d0       ??$forward@AEBQEAUvertex@@@std@@YAAEBQEAUvertex@@AEBQEAU1@@Z 00000001401193d0 f i toasty.obj
 0001:001183e0       ??$forward@AEBUmesh@@@std@@YAAEBUmesh@@AEBU1@@Z 00000001401193e0 f i toasty.obj
 0001:001183f0       ??$forward@AEBUtexture@@@std@@YAAEBUtexture@@AEBU1@@Z 00000001401193f0 f i toasty.obj
 0001:00118400       ??$forward@AEBUvertex@@@std@@YAAEBUvertex@@AEBU1@@Z 0000000140119400 f i toasty.obj
 0001:00118410       ??$forward@AEBV?$allocator@D@std@@@std@@YAAEBV?$allocator@D@0@AEBV10@@Z 0000000140119410 f i toasty.obj
 0001:00118420       ??$forward@I@std@@YA$$QEAIAEAI@Z 0000000140119420 f i toasty.obj
 0001:00118430       ??$forward@PEAI@std@@YA$$QEAPEAIAEAPEAI@Z 0000000140119430 f i toasty.obj
 0001:00118440       ??$forward@PEAUmesh@@@std@@YA$$QEAPEAUmesh@@AEAPEAU1@@Z 0000000140119440 f i toasty.obj
 0001:00118450       ??$forward@PEAUtexture@@@std@@YA$$QEAPEAUtexture@@AEAPEAU1@@Z 0000000140119450 f i toasty.obj
 0001:00118460       ??$forward@PEAUvertex@@@std@@YA$$QEAPEAUvertex@@AEAPEAU1@@Z 0000000140119460 f i toasty.obj
 0001:00118470       ??$forward@Umesh@@@std@@YA$$QEAUmesh@@AEAU1@@Z 0000000140119470 f i toasty.obj
 0001:00118480       ??$forward@Utexture@@@std@@YA$$QEAUtexture@@AEAU1@@Z 0000000140119480 f i toasty.obj
 0001:00118490       ??$forward@Uvertex@@@std@@YA$$QEAUvertex@@AEAU1@@Z 0000000140119490 f i toasty.obj
 0001:001184a0       ??$forward@V?$allocator@D@std@@@std@@YA$$QEAV?$allocator@D@0@AEAV10@@Z 00000001401194a0 f i toasty.obj
 0001:001184b0       ??$forward@V?$allocator@I@std@@@std@@YA$$QEAV?$allocator@I@0@AEAV10@@Z 00000001401194b0 f i toasty.obj
 0001:001184c0       ??$forward@V?$allocator@Umesh@@@std@@@std@@YA$$QEAV?$allocator@Umesh@@@0@AEAV10@@Z 00000001401194c0 f i toasty.obj
 0001:001184d0       ??$forward@V?$allocator@Utexture@@@std@@@std@@YA$$QEAV?$allocator@Utexture@@@0@AEAV10@@Z 00000001401194d0 f i toasty.obj
 0001:001184e0       ??$forward@V?$allocator@Uvertex@@@std@@@std@@YA$$QEAV?$allocator@Uvertex@@@0@AEAV10@@Z 00000001401194e0 f i toasty.obj
 0001:001184f0       ??$inversesqrt@M@glm@@YAMM@Z 00000001401194f0 f i toasty.obj
 0001:00118530       ??$lookAt@M$0A@@glm@@YA?AU?$mat@$03$03M$0A@@0@AEBU?$vec@$02M$0A@@0@00@Z 0000000140119530 f i toasty.obj
 0001:001185b0       ??$lookAtLH@M$0A@@glm@@YA?AU?$mat@$03$03M$0A@@0@AEBU?$vec@$02M$0A@@0@00@Z 00000001401195b0 f i toasty.obj
 0001:001189a0       ??$lookAtRH@M$0A@@glm@@YA?AU?$mat@$03$03M$0A@@0@AEBU?$vec@$02M$0A@@0@00@Z 00000001401199a0 f i toasty.obj
 0001:00118dd0       ??$max@_K@std@@YAAEB_KAEB_K0@Z 0000000140119dd0 f i toasty.obj
 0001:00118e30       ??$min@_K@std@@YAAEB_KAEB_K0@Z 0000000140119e30 f i toasty.obj
 0001:00118e90       ??$move@AEAI@std@@YA$$QEAIAEAI@Z 0000000140119e90 f i toasty.obj
 0001:00118ea0       ??$move@AEAUmesh@@@std@@YA$$QEAUmesh@@AEAU1@@Z 0000000140119ea0 f i toasty.obj
 0001:00118eb0       ??$move@AEAUtexture@@@std@@YA$$QEAUtexture@@AEAU1@@Z 0000000140119eb0 f i toasty.obj
 0001:00118ec0       ??$move@AEAUvertex@@@std@@YA$$QEAUvertex@@AEAU1@@Z 0000000140119ec0 f i toasty.obj
 0001:00118ed0       ??$move@AEAV?$allocator@D@std@@@std@@YA$$QEAV?$allocator@D@0@AEAV10@@Z 0000000140119ed0 f i toasty.obj
 0001:00118ee0       ??$move@AEAV?$allocator@I@std@@@std@@YA$$QEAV?$allocator@I@0@AEAV10@@Z 0000000140119ee0 f i toasty.obj
 0001:00118ef0       ??$move@AEAV?$allocator@Umesh@@@std@@@std@@YA$$QEAV?$allocator@Umesh@@@0@AEAV10@@Z 0000000140119ef0 f i toasty.obj
 0001:00118f00       ??$move@AEAV?$allocator@Utexture@@@std@@@std@@YA$$QEAV?$allocator@Utexture@@@0@AEAV10@@Z 0000000140119f00 f i toasty.obj
 0001:00118f10       ??$move@AEAV?$allocator@Uvertex@@@std@@@std@@YA$$QEAV?$allocator@Uvertex@@@0@AEAV10@@Z 0000000140119f10 f i toasty.obj
 0001:00118f20       ??$move@AEAV?$basic_string@DU?$char_traits@D@std@@V?$allocator@D@2@@std@@@std@@YA$$QEAV?$basic_string@DU?$char_traits@D@std@@V?$allocator@D@2@@0@AEAV10@@Z 0000000140119f20 f i toasty.obj
 0001:00118f30       ??$normalize@$02M$0A@@glm@@YA?AU?$vec@$02M$0A@@0@AEBU10@@Z 0000000140119f30 f i toasty.obj
 0001:00118f60       ??$ortho@M@glm@@YA?AU?$mat@$03$03M$0A@@0@MMMMMM@Z 0000000140119f60 f i toasty.obj
 0001:00118ff0       ??$orthoRH_NO@M@glm@@YA?AU?$mat@$03$03M$0A@@0@MMMMMM@Z 0000000140119ff0 f i toasty.obj
 0001:00119310       ??$perspective@M@glm@@YA?AU?$mat@$03$03M$0A@@0@MMMM@Z 000000014011a310 f i toasty.obj
 0001:00119370       ??$perspectiveRH_NO@M@glm@@YA?AU?$mat@$03$03M$0A@@0@MMMM@Z 000000014011a370 f i toasty.obj
 0001:00119650       ??$radians@M@glm@@YAMM@Z   000000014011a650 f i toasty.obj
 0001:00119670       ??$scale@M$0A@@glm@@YA?AU?$mat@$03$03M$0A@@0@AEBU10@AEBU?$vec@$02M$0A@@0@@Z 000000014011a670 f i toasty.obj
 0001:001198b0       ??$value_ptr@M$0A@@glm@@YAPEAMAEAU?$mat@$03$03M$0A@@0@@Z 000000014011a8b0 f i toasty.obj
 0001:001198d0       ??$value_ptr@M$0A@@glm@@YAPEAMAEAU?$vec@$02M$0A@@0@@Z 000000014011a8d0 f i toasty.obj
 0001:001198e0       ??$value_ptr@M$0A@@glm@@YAPEAMAEAU?$vec@$03M$0A@@0@@Z 000000014011a8e0 f i toasty.obj
 0001:001198f0       ??0?$ImBitArray@$0CIF@$0A@@@QEAA@XZ 000000014011a8f0 f i toasty.obj
 0001:00119920       ??0?$ImBitArray@$0IE@$0A@@@QEAA@XZ 000000014011a920 f i toasty.obj
 0001:00119950       ??0?$ImBitArray@$0IF@$0?CAA@@@QEAA@XZ 000000014011a950 f i toasty.obj
 0001:00119980       ??0?$ImChunkStream@UImGuiTableSettings@@@@QEAA@XZ 000000014011a980 f i toasty.obj
 0001:001199b0       ??0?$ImChunkStream@UImGuiWindowSettings@@@@QEAA@XZ 000000014011a9b0 f i toasty.obj
 0001:001199e0       ??0?$ImPool@UImGuiTabBar@@@@QEAA@XZ 000000014011a9e0 f i toasty.obj
 0001:00119a40       ??0?$ImPool@UImGuiTable@@@@QEAA@XZ 000000014011aa40 f i toasty.obj
 0001:00119aa0       ??0?$ImSpan@C@@QEAA@XZ     000000014011aaa0 f i toasty.obj
 0001:00119ad0       ??0?$ImSpan@UImGuiTableCellData@@@@QEAA@XZ 000000014011aad0 f i toasty.obj
 0001:00119b00       ??0?$ImSpan@UImGuiTableColumn@@@@QEAA@XZ 000000014011ab00 f i toasty.obj
 0001:00119b30       ??0?$ImSpanAllocator@$02@@QEAA@XZ 000000014011ab30 f i toasty.obj
 0001:00119b60       ??0?$ImVector@D@@QEAA@XZ   000000014011ab60 f i toasty.obj
 0001:00119ba0       ??0?$ImVector@E@@QEAA@XZ   000000014011aba0 f i toasty.obj
 0001:00119be0       ??0?$ImVector@G@@QEAA@XZ   000000014011abe0 f i toasty.obj
 0001:00119c20       ??0?$ImVector@H@@QEAA@XZ   000000014011ac20 f i toasty.obj
 0001:00119c60       ??0?$ImVector@I@@QEAA@XZ   000000014011ac60 f i toasty.obj
 0001:00119ca0       ??0?$ImVector@M@@QEAA@XZ   000000014011aca0 f i toasty.obj
 0001:00119ce0       ??0?$ImVector@PEAD@@QEAA@XZ 000000014011ace0 f i toasty.obj
 0001:00119d20       ??0?$ImVector@PEAUImDrawList@@@@QEAA@XZ 000000014011ad20 f i toasty.obj
 0001:00119d60       ??0?$ImVector@PEAUImFont@@@@QEAA@XZ 000000014011ad60 f i toasty.obj
 0001:00119da0       ??0?$ImVector@PEAUImGuiViewportP@@@@QEAA@XZ 000000014011ada0 f i toasty.obj
 0001:00119de0       ??0?$ImVector@PEAUImGuiWindow@@@@QEAA@XZ 000000014011ade0 f i toasty.obj
 0001:00119e20       ??0?$ImVector@PEAUMyDocument@@@@QEAA@XZ 000000014011ae20 f i toasty.obj
 0001:00119e60       ??0?$ImVector@PEAX@@QEAA@XZ 000000014011ae60 f i toasty.obj
 0001:00119ea0       ??0?$ImVector@PEBD@@QEAA@XZ 000000014011aea0 f i toasty.obj
 0001:00119ee0       ??0?$ImVector@UImDrawChannel@@@@QEAA@XZ 000000014011aee0 f i toasty.obj
 0001:00119f20       ??0?$ImVector@UImDrawCmd@@@@QEAA@XZ 000000014011af20 f i toasty.obj
 0001:00119f60       ??0?$ImVector@UImDrawVert@@@@QEAA@XZ 000000014011af60 f i toasty.obj
 0001:00119fa0       ??0?$ImVector@UImFontAtlasCustomRect@@@@QEAA@XZ 000000014011afa0 f i toasty.obj
 0001:00119fe0       ??0?$ImVector@UImFontBuildDstData@@@@QEAA@XZ 000000014011afe0 f i toasty.obj
 0001:0011a020       ??0?$ImVector@UImFontBuildSrcData@@@@QEAA@XZ 000000014011b020 f i toasty.obj
 0001:0011a060       ??0?$ImVector@UImFontConfig@@@@QEAA@XZ 000000014011b060 f i toasty.obj
 0001:0011a0a0       ??0?$ImVector@UImFontGlyph@@@@QEAA@XZ 000000014011b0a0 f i toasty.obj
 0001:0011a0e0       ??0?$ImVector@UImGuiColorMod@@@@QEAA@XZ 000000014011b0e0 f i toasty.obj
 0001:0011a120       ??0?$ImVector@UImGuiContextHook@@@@QEAA@XZ 000000014011b120 f i toasty.obj
 0001:0011a160       ??0?$ImVector@UImGuiGroupData@@@@QEAA@XZ 000000014011b160 f i toasty.obj
 0001:0011a1a0       ??0?$ImVector@UImGuiInputEvent@@@@QEAA@XZ 000000014011b1a0 f i toasty.obj
 0001:0011a1e0       ??0?$ImVector@UImGuiListClipperData@@@@QEAA@XZ 000000014011b1e0 f i toasty.obj
 0001:0011a220       ??0?$ImVector@UImGuiListClipperRange@@@@QEAA@XZ 000000014011b220 f i toasty.obj
 0001:0011a260       ??0?$ImVector@UImGuiOldColumnData@@@@QEAA@XZ 000000014011b260 f i toasty.obj
 0001:0011a2a0       ??0?$ImVector@UImGuiOldColumns@@@@QEAA@XZ 000000014011b2a0 f i toasty.obj
 0001:0011a2e0       ??0?$ImVector@UImGuiPopupData@@@@QEAA@XZ 000000014011b2e0 f i toasty.obj
 0001:0011a320       ??0?$ImVector@UImGuiPtrOrIndex@@@@QEAA@XZ 000000014011b320 f i toasty.obj
 0001:0011a360       ??0?$ImVector@UImGuiSettingsHandler@@@@QEAA@XZ 000000014011b360 f i toasty.obj
 0001:0011a3a0       ??0?$ImVector@UImGuiShrinkWidthItem@@@@QEAA@XZ 000000014011b3a0 f i toasty.obj
 0001:0011a3e0       ??0?$ImVector@UImGuiStackLevelInfo@@@@QEAA@XZ 000000014011b3e0 f i toasty.obj
 0001:0011a420       ??0?$ImVector@UImGuiStoragePair@ImGuiStorage@@@@QEAA@XZ 000000014011b420 f i toasty.obj
 0001:0011a460       ??0?$ImVector@UImGuiStyleMod@@@@QEAA@XZ 000000014011b460 f i toasty.obj
 0001:0011a4a0       ??0?$ImVector@UImGuiTabBar@@@@QEAA@XZ 000000014011b4a0 f i toasty.obj
 0001:0011a4e0       ??0?$ImVector@UImGuiTabItem@@@@QEAA@XZ 000000014011b4e0 f i toasty.obj
 0001:0011a520       ??0?$ImVector@UImGuiTable@@@@QEAA@XZ 000000014011b520 f i toasty.obj
 0001:0011a560       ??0?$ImVector@UImGuiTableColumnSortSpecs@@@@QEAA@XZ 000000014011b560 f i toasty.obj
 0001:0011a5a0       ??0?$ImVector@UImGuiTableInstanceData@@@@QEAA@XZ 000000014011b5a0 f i toasty.obj
 0001:0011a5e0       ??0?$ImVector@UImGuiTableTempData@@@@QEAA@XZ 000000014011b5e0 f i toasty.obj
 0001:0011a620       ??0?$ImVector@UImGuiTextRange@ImGuiTextFilter@@@@QEAA@XZ 000000014011b620 f i toasty.obj
 0001:0011a660       ??0?$ImVector@UImGuiWindowStackData@@@@QEAA@XZ 000000014011b660 f i toasty.obj
 0001:0011a6a0       ??0?$ImVector@UImVec2@@@@QEAA@XZ 000000014011b6a0 f i toasty.obj
 0001:0011a6e0       ??0?$ImVector@UImVec4@@@@QEAA@XZ 000000014011b6e0 f i toasty.obj
 0001:0011a720       ??0?$ImVector@UMyDocument@@@@QEAA@XZ 000000014011b720 f i toasty.obj
 0001:0011a760       ??0?$ImVector@Ustbrp_rect@@@@QEAA@XZ 000000014011b760 f i toasty.obj
 0001:0011a7a0       ??0?$ImVector@Ustbtt_packedchar@@@@QEAA@XZ 000000014011b7a0 f i toasty.obj
 0001:0011a7e0       ??0?$_String_val@U?$_Simple_types@D@std@@@std@@QEAA@XZ 000000014011b7e0 f i toasty.obj
 0001:0011a830       ??0?$_Uninitialized_backout_al@V?$allocator@I@std@@@std@@QEAA@PEAIAEAV?$allocator@I@1@@Z 000000014011b830 f i toasty.obj
 0001:0011a880       ??0?$_Uninitialized_backout_al@V?$allocator@Umesh@@@std@@@std@@QEAA@PEAUmesh@@AEAV?$allocator@Umesh@@@1@@Z 000000014011b880 f i toasty.obj
 0001:0011a8d0       ??0?$_Uninitialized_backout_al@V?$allocator@Utexture@@@std@@@std@@QEAA@PEAUtexture@@AEAV?$allocator@Utexture@@@1@@Z 000000014011b8d0 f i toasty.obj
 0001:0011a920       ??0?$_Uninitialized_backout_al@V?$allocator@Uvertex@@@std@@@std@@QEAA@PEAUvertex@@AEAV?$allocator@Uvertex@@@1@@Z 000000014011b920 f i toasty.obj
 0001:0011a970       ??0?$_Vector_val@U?$_Simple_types@I@std@@@std@@QEAA@PEAI00@Z 000000014011b970 f i toasty.obj
 0001:0011a9d0       ??0?$_Vector_val@U?$_Simple_types@I@std@@@std@@QEAA@XZ 000000014011b9d0 f i toasty.obj
 0001:0011aa10       ??0?$_Vector_val@U?$_Simple_types@Umesh@@@std@@@std@@QEAA@PEAUmesh@@00@Z 000000014011ba10 f i toasty.obj
 0001:0011aa70       ??0?$_Vector_val@U?$_Simple_types@Umesh@@@std@@@std@@QEAA@XZ 000000014011ba70 f i toasty.obj
 0001:0011aab0       ??0?$_Vector_val@U?$_Simple_types@Utexture@@@std@@@std@@QEAA@PEAUtexture@@00@Z 000000014011bab0 f i toasty.obj
 0001:0011ab10       ??0?$_Vector_val@U?$_Simple_types@Utexture@@@std@@@std@@QEAA@XZ 000000014011bb10 f i toasty.obj
 0001:0011ab50       ??0?$_Vector_val@U?$_Simple_types@Uvertex@@@std@@@std@@QEAA@PEAUvertex@@00@Z 000000014011bb50 f i toasty.obj
 0001:0011abb0       ??0?$_Vector_val@U?$_Simple_types@Uvertex@@@std@@@std@@QEAA@XZ 000000014011bbb0 f i toasty.obj
 0001:0011abf0       ??0?$aiColor4t@M@@QEAA@XZ  000000014011bbf0 f i toasty.obj
 0001:0011ac40       ??0?$allocator@D@std@@QEAA@XZ 000000014011bc40 f i toasty.obj
 0001:0011ac50       ??0?$allocator@I@std@@QEAA@XZ 000000014011bc50 f i toasty.obj
 0001:0011ac60       ??0?$allocator@Umesh@@@std@@QEAA@XZ 000000014011bc60 f i toasty.obj
 0001:0011ac70       ??0?$allocator@Utexture@@@std@@QEAA@XZ 000000014011bc70 f i toasty.obj
 0001:0011ac80       ??0?$allocator@Uvertex@@@std@@QEAA@XZ 000000014011bc80 f i toasty.obj
 0001:0011ac90       ??0?$basic_string@DU?$char_traits@D@std@@V?$allocator@D@2@@std@@QEAA@$$QEAV01@@Z 000000014011bc90 f i toasty.obj
 0001:0011ad10       ??0?$basic_string@DU?$char_traits@D@std@@V?$allocator@D@2@@std@@QEAA@AEBV01@@Z 000000014011bd10 f i toasty.obj
 0001:0011adb0       ??0?$basic_string@DU?$char_traits@D@std@@V?$allocator@D@2@@std@@QEAA@AEBV01@_K1AEBV?$allocator@D@1@@Z 000000014011bdb0 f i toasty.obj
 0001:0011ae60       ??0?$basic_string@DU?$char_traits@D@std@@V?$allocator@D@2@@std@@QEAA@QEBD@Z 000000014011be60 f i toasty.obj
 0001:0011aef0       ??0?$basic_string@DU?$char_traits@D@std@@V?$allocator@D@2@@std@@QEAA@U_String_constructor_concat_tag@1@AEBV01@QEBD_K23@Z 000000014011bef0 f i toasty.obj
 0001:0011b170       ??0?$basic_string@DU?$char_traits@D@std@@V?$allocator@D@2@@std@@QEAA@XZ 000000014011c170 f i toasty.obj
 0001:0011b1d0       ??0?$mat@$03$03M$0A@@glm@@QEAA@AEBM@Z 000000014011c1d0 f i toasty.obj
 0001:0011b2b0       ??0?$vec@$01M$0A@@glm@@QEAA@MM@Z 000000014011c2b0 f i toasty.obj
 0001:0011b300       ??0?$vec@$02M$0A@@glm@@QEAA@MMM@Z 000000014011c300 f i toasty.obj
 0001:0011b360       ??0?$vec@$03M$0A@@glm@@QEAA@M@Z 000000014011c360 f i toasty.obj
 0001:0011b3d0       ??0?$vec@$03M$0A@@glm@@QEAA@MMMM@Z 000000014011c3d0 f i toasty.obj
 0001:0011b450       ??0?$vector@IV?$allocator@I@std@@@std@@QEAA@$$QEAV01@@Z 000000014011c450 f i toasty.obj
 0001:0011b590       ??0?$vector@IV?$allocator@I@std@@@std@@QEAA@AEBV01@@Z 000000014011c590 f i toasty.obj
 0001:0011b640       ??0?$vector@IV?$allocator@I@std@@@std@@QEAA@XZ 000000014011c640 f i toasty.obj
 0001:0011b690       ??0?$vector@Umesh@@V?$allocator@Umesh@@@std@@@std@@QEAA@$$QEAV01@@Z 000000014011c690 f i toasty.obj
 0001:0011b7d0       ??0?$vector@Umesh@@V?$allocator@Umesh@@@std@@@std@@QEAA@XZ 000000014011c7d0 f i toasty.obj
 0001:0011b820       ??0?$vector@Utexture@@V?$allocator@Utexture@@@std@@@std@@QEAA@$$QEAV01@@Z 000000014011c820 f i toasty.obj
 0001:0011b960       ??0?$vector@Utexture@@V?$allocator@Utexture@@@std@@@std@@QEAA@AEBV01@@Z 000000014011c960 f i toasty.obj
 0001:0011ba10       ??0?$vector@Utexture@@V?$allocator@Utexture@@@std@@@std@@QEAA@XZ 000000014011ca10 f i toasty.obj
 0001:0011ba60       ??0?$vector@Uvertex@@V?$allocator@Uvertex@@@std@@@std@@QEAA@$$QEAV01@@Z 000000014011ca60 f i toasty.obj
 0001:0011bba0       ??0?$vector@Uvertex@@V?$allocator@Uvertex@@@std@@@std@@QEAA@AEBV01@@Z 000000014011cba0 f i toasty.obj
 0001:0011bc50       ??0?$vector@Uvertex@@V?$allocator@Uvertex@@@std@@@std@@QEAA@XZ 000000014011cc50 f i toasty.obj
 0001:0011bca0       ??0ExampleAppConsole@@QEAA@XZ 000000014011cca0 f i toasty.obj
 0001:0011be90       ??0ExampleAppDocuments@@QEAA@XZ 000000014011ce90 f i toasty.obj
 0001:0011c170       ??0ExampleAppLog@@QEAA@XZ  000000014011d170 f i toasty.obj
 0001:0011c1f0       ??0ImColor@@QEAA@AEBUImVec4@@@Z 000000014011d1f0 f i toasty.obj
 0001:0011c220       ??0ImColor@@QEAA@MMMM@Z    000000014011d220 f i toasty.obj
 0001:0011c290       ??0ImDrawChannel@@QEAA@XZ  000000014011d290 f i toasty.obj
 0001:0011c2d0       ??0ImDrawCmd@@QEAA@XZ      000000014011d2d0 f i toasty.obj
 0001:0011c310       ??0ImDrawCmdHeader@@QEAA@XZ 000000014011d310 f i toasty.obj
 0001:0011c340       ??0ImDrawData@@QEAA@XZ     000000014011d340 f i toasty.obj
 0001:0011c3b0       ??0ImDrawDataBuilder@@QEAA@XZ 000000014011d3b0 f i toasty.obj
 0001:0011c400       ??0ImDrawList@@QEAA@PEBUImDrawListSharedData@@@Z 000000014011d400 f i toasty.obj
 0001:0011c500       ??0ImDrawListSplitter@@QEAA@XZ 000000014011d500 f i toasty.obj
 0001:0011c550       ??0ImFontAtlasCustomRect@@QEAA@XZ 000000014011d550 f i toasty.obj
 0001:0011c610       ??0ImGuiColorMod@@QEAA@XZ  000000014011d610 f i toasty.obj
 0001:0011c640       ??0ImGuiComboPreviewData@@QEAA@XZ 000000014011d640 f i toasty.obj
 0001:0011c6c0       ??0ImGuiContext@@QEAA@PEAUImFontAtlas@@@Z 000000014011d6c0 f i toasty.obj
 0001:0011dc90       ??0ImGuiInputEvent@@QEAA@XZ 000000014011ec90 f i toasty.obj
 0001:0011dcc0       ??0ImGuiInputTextState@@QEAA@XZ 000000014011ecc0 f i toasty.obj
 0001:0011dd40       ??0ImGuiLastItemData@@QEAA@XZ 000000014011ed40 f i toasty.obj
 0001:0011ddb0       ??0ImGuiListClipperData@@QEAA@XZ 000000014011edb0 f i toasty.obj
 0001:0011de00       ??0ImGuiMenuColumns@@QEAA@XZ 000000014011ee00 f i toasty.obj
 0001:0011de30       ??0ImGuiMetricsConfig@@QEAA@XZ 000000014011ee30 f i toasty.obj
 0001:0011dea0       ??0ImGuiNavItemData@@QEAA@XZ 000000014011eea0 f i toasty.obj
 0001:0011dee0       ??0ImGuiNextItemData@@QEAA@XZ 000000014011eee0 f i toasty.obj
 0001:0011df10       ??0ImGuiNextWindowData@@QEAA@XZ 000000014011ef10 f i toasty.obj
 0001:0011dfe0       ??0ImGuiOldColumnData@@QEAA@XZ 000000014011efe0 f i toasty.obj
 0001:0011e030       ??0ImGuiOldColumns@@QEAA@XZ 000000014011f030 f i toasty.obj
 0001:0011e0d0       ??0ImGuiPayload@@QEAA@XZ   000000014011f0d0 f i toasty.obj
 0001:0011e100       ??0ImGuiPlatformImeData@@QEAA@XZ 000000014011f100 f i toasty.obj
 0001:0011e150       ??0ImGuiPlotArrayGetterData@@QEAA@PEBMH@Z 000000014011f150 f i toasty.obj
 0001:0011e190       ??0ImGuiPopupData@@QEAA@XZ 000000014011f190 f i toasty.obj
 0001:0011e200       ??0ImGuiPtrOrIndex@@QEAA@H@Z 000000014011f200 f i toasty.obj
 0001:0011e230       ??0ImGuiPtrOrIndex@@QEAA@PEAX@Z 000000014011f230 f i toasty.obj
 0001:0011e270       ??0ImGuiSettingsHandler@@QEAA@XZ 000000014011f270 f i toasty.obj
 0001:0011e2a0       ??0ImGuiSizeCallbackData@@QEAA@XZ 000000014011f2a0 f i toasty.obj
 0001:0011e300       ??0ImGuiStackLevelInfo@@QEAA@XZ 000000014011f300 f i toasty.obj
 0001:0011e330       ??0ImGuiStackSizes@@QEAA@XZ 000000014011f330 f i toasty.obj
 0001:0011e360       ??0ImGuiStackTool@@QEAA@XZ 000000014011f360 f i toasty.obj
 0001:0011e3c0       ??0ImGuiStorage@@QEAA@XZ   000000014011f3c0 f i toasty.obj
 0001:0011e3f0       ??0ImGuiStoragePair@ImGuiStorage@@QEAA@IH@Z 000000014011f3f0 f i toasty.obj
 0001:0011e430       ??0ImGuiStoragePair@ImGuiStorage@@QEAA@IM@Z 000000014011f430 f i toasty.obj
 0001:0011e470       ??0ImGuiStoragePair@ImGuiStorage@@QEAA@IPEAX@Z 000000014011f470 f i toasty.obj
 0001:0011e4b0       ??0ImGuiStyleMod@@QEAA@HM@Z 000000014011f4b0 f i toasty.obj
 0001:0011e500       ??0ImGuiStyleMod@@QEAA@HUImVec2@@@Z 000000014011f500 f i toasty.obj
 0001:0011e570       ??0ImGuiTabBarSection@@QEAA@XZ 000000014011f570 f i toasty.obj
 0001:0011e5a0       ??0ImGuiTabItem@@QEAA@XZ   000000014011f5a0 f i toasty.obj
 0001:0011e620       ??0ImGuiTable@@QEAA@XZ     000000014011f620 f i toasty.obj
 0001:0011e810       ??0ImGuiTableColumn@@QEAA@XZ 000000014011f810 f i toasty.obj
 0001:0011e910       ??0ImGuiTableColumnSettings@@QEAA@XZ 000000014011f910 f i toasty.obj
 0001:0011e9b0       ??0ImGuiTableColumnSortSpecs@@QEAA@XZ 000000014011f9b0 f i toasty.obj
 0001:0011e9e0       ??0ImGuiTableInstanceData@@QEAA@XZ 000000014011f9e0 f i toasty.obj
 0001:0011ea10       ??0ImGuiTableSettings@@QEAA@XZ 000000014011fa10 f i toasty.obj
 0001:0011ea40       ??0ImGuiTableSortSpecs@@QEAA@XZ 000000014011fa40 f i toasty.obj
 0001:0011ea70       ??0ImGuiTableTempData@@QEAA@XZ 000000014011fa70 f i toasty.obj
 0001:0011eb60       ??0ImGuiTextBuffer@@QEAA@XZ 000000014011fb60 f i toasty.obj
 0001:0011eb90       ??0ImGuiTextRange@ImGuiTextFilter@@QEAA@PEBD0@Z 000000014011fb90 f i toasty.obj
 0001:0011ebd0       ??0ImGuiViewport@@QEAA@XZ  000000014011fbd0 f i toasty.obj
 0001:0011ec60       ??0ImGuiViewportP@@QEAA@XZ 000000014011fc60 f i toasty.obj
 0001:0011ed80       ??0ImGuiWindowSettings@@QEAA@XZ 000000014011fd80 f i toasty.obj
 0001:0011ede0       ??0ImGuiWindowStackData@@QEAA@XZ 000000014011fde0 f i toasty.obj
 0001:0011ee30       ??0ImGuiWindowTempData@@QEAA@XZ 000000014011fe30 f i toasty.obj
 0001:0011efb0       ??0ImGui_ImplOpenGL3_Data@@QEAA@XZ 000000014011ffb0 f i toasty.obj
 0001:0011efe0       ??0ImGui_ImplSDL2_Data@@QEAA@XZ 000000014011ffe0 f i toasty.obj
 0001:0011f010       ??0ImRect@@QEAA@AEBUImVec2@@0@Z 0000000140120010 f i toasty.obj
 0001:0011f060       ??0ImRect@@QEAA@AEBUImVec4@@@Z 0000000140120060 f i toasty.obj
 0001:0011f0e0       ??0ImRect@@QEAA@MMMM@Z     00000001401200e0 f i toasty.obj
 0001:0011f160       ??0ImRect@@QEAA@XZ         0000000140120160 f i toasty.obj
 0001:0011f1b0       ??0ImVec1@@QEAA@XZ         00000001401201b0 f i toasty.obj
 0001:0011f1d0       ??0ImVec2@@QEAA@MM@Z       00000001401201d0 f i toasty.obj
 0001:0011f220       ??0ImVec2@@QEAA@XZ         0000000140120220 f i toasty.obj
 0001:0011f250       ??0ImVec2ih@@QEAA@AEBUImVec2@@@Z 0000000140120250 f i toasty.obj
 0001:0011f2a0       ??0ImVec2ih@@QEAA@FF@Z     00000001401202a0 f i toasty.obj
 0001:0011f2e0       ??0ImVec2ih@@QEAA@XZ       00000001401202e0 f i toasty.obj
 0001:0011f310       ??0ImVec4@@QEAA@MMMM@Z     0000000140120310 f i toasty.obj
 0001:0011f390       ??0ImVec4@@QEAA@XZ         0000000140120390 f i toasty.obj
 0001:0011f3e0       ??0MyDocument@@QEAA@PEBD_NAEBUImVec4@@@Z 00000001401203e0 f i toasty.obj
 0001:0011f490       ??0_Bxty@?$_String_val@U?$_Simple_types@D@std@@@std@@QEAA@XZ 0000000140120490 f i toasty.obj
 0001:0011f4b0       ??0_Fake_proxy_ptr_impl@std@@QEAA@AEBU_Fake_allocator@1@AEBU_Container_base0@1@@Z 00000001401204b0 f i toasty.obj
 0001:0011f4d0       ??0aiColor3D@@QEAA@MMM@Z   00000001401204d0 f i toasty.obj
 0001:0011f530       ??0aiColor3D@@QEAA@XZ      0000000140120530 f i toasty.obj
 0001:0011f570       ??0aiFace@@QEAA@AEBU0@@Z   0000000140120570 f i toasty.obj
 0001:0011f5c0       ??0aiString@@QEAA@AEBU0@@Z 00000001401205c0 f i toasty.obj
 0001:0011f680       ??0aiString@@QEAA@XZ       0000000140120680 f i toasty.obj
 0001:0011f6e0       ??0bad_alloc@std@@AEAA@QEBD@Z 00000001401206e0 f i toasty.obj
 0001:0011f730       ??0bad_alloc@std@@QEAA@AEBV01@@Z 0000000140120730 f i toasty.obj
 0001:0011f780       ??0bad_array_new_length@std@@QEAA@AEBV01@@Z 0000000140120780 f i toasty.obj
 0001:0011f7d0       ??0bad_array_new_length@std@@QEAA@XZ 00000001401207d0 f i toasty.obj
 0001:0011f810       ??0exception@std@@QEAA@AEBV01@@Z 0000000140120810 f i toasty.obj
 0001:0011f880       ??0exception@std@@QEAA@QEBDH@Z 0000000140120880 f i toasty.obj
 0001:0011f8e0       ??0material@@QEAA@$$QEAU0@@Z 00000001401208e0 f i toasty.obj
 0001:0011f9c0       ??0material@@QEAA@AEBU0@@Z 00000001401209c0 f i toasty.obj
 0001:0011faa0       ??0mesh@@QEAA@$$QEAU0@@Z   0000000140120aa0 f i toasty.obj
 0001:0011fba0       ??0mesh@@QEAA@AEBU0@@Z     0000000140120ba0 f i toasty.obj
 0001:0011fcb0       ??0model@@QEAA@$$QEAU0@@Z  0000000140120cb0 f i toasty.obj
 0001:0011fd30       ??0texture@@QEAA@$$QEAU0@@Z 0000000140120d30 f i toasty.obj
 0001:0011fe00       ??0texture@@QEAA@AEBU0@@Z  0000000140120e00 f i toasty.obj
 0001:0011fed0       ??1?$ImChunkStream@UImGuiTableSettings@@@@QEAA@XZ 0000000140120ed0 f i toasty.obj
 0001:0011ff00       ??1?$ImChunkStream@UImGuiWindowSettings@@@@QEAA@XZ 0000000140120f00 f i toasty.obj
 0001:0011ff30       ??1?$ImPool@UImGuiTabBar@@@@QEAA@XZ 0000000140120f30 f i toasty.obj
 0001:0011ff80       ??1?$ImPool@UImGuiTable@@@@QEAA@XZ 0000000140120f80 f i toasty.obj
 0001:0011ffd0       ??1?$ImVector@D@@QEAA@XZ   0000000140120fd0 f i toasty.obj
 0001:00120010       ??1?$ImVector@E@@QEAA@XZ   0000000140121010 f i toasty.obj
 0001:00120050       ??1?$ImVector@G@@QEAA@XZ   0000000140121050 f i toasty.obj
 0001:00120090       ??1?$ImVector@H@@QEAA@XZ   0000000140121090 f i toasty.obj
 0001:001200d0       ??1?$ImVector@I@@QEAA@XZ   00000001401210d0 f i toasty.obj
 0001:00120110       ??1?$ImVector@M@@QEAA@XZ   0000000140121110 f i toasty.obj
 0001:00120150       ??1?$ImVector@PEAD@@QEAA@XZ 0000000140121150 f i toasty.obj
 0001:00120190       ??1?$ImVector@PEAUImDrawList@@@@QEAA@XZ 0000000140121190 f i toasty.obj
 0001:001201d0       ??1?$ImVector@PEAUImFont@@@@QEAA@XZ 00000001401211d0 f i toasty.obj
 0001:00120210       ??1?$ImVector@PEAUImGuiViewportP@@@@QEAA@XZ 0000000140121210 f i toasty.obj
 0001:00120250       ??1?$ImVector@PEAUImGuiWindow@@@@QEAA@XZ 0000000140121250 f i toasty.obj
 0001:00120290       ??1?$ImVector@PEAUMyDocument@@@@QEAA@XZ 0000000140121290 f i toasty.obj
 0001:001202d0       ??1?$ImVector@PEAX@@QEAA@XZ 00000001401212d0 f i toasty.obj
 0001:00120310       ??1?$ImVector@PEBD@@QEAA@XZ 0000000140121310 f i toasty.obj
 0001:00120350       ??1?$ImVector@UImDrawChannel@@@@QEAA@XZ 0000000140121350 f i toasty.obj
 0001:00120390       ??1?$ImVector@UImDrawCmd@@@@QEAA@XZ 0000000140121390 f i toasty.obj
 0001:001203d0       ??1?$ImVector@UImDrawVert@@@@QEAA@XZ 00000001401213d0 f i toasty.obj
 0001:00120410       ??1?$ImVector@UImFontAtlasCustomRect@@@@QEAA@XZ 0000000140121410 f i toasty.obj
 0001:00120450       ??1?$ImVector@UImFontBuildDstData@@@@QEAA@XZ 0000000140121450 f i toasty.obj
 0001:00120490       ??1?$ImVector@UImFontBuildSrcData@@@@QEAA@XZ 0000000140121490 f i toasty.obj
 0001:001204d0       ??1?$ImVector@UImFontConfig@@@@QEAA@XZ 00000001401214d0 f i toasty.obj
 0001:00120510       ??1?$ImVector@UImFontGlyph@@@@QEAA@XZ 0000000140121510 f i toasty.obj
 0001:00120550       ??1?$ImVector@UImGuiColorMod@@@@QEAA@XZ 0000000140121550 f i toasty.obj
 0001:00120590       ??1?$ImVector@UImGuiContextHook@@@@QEAA@XZ 0000000140121590 f i toasty.obj
 0001:001205d0       ??1?$ImVector@UImGuiGroupData@@@@QEAA@XZ 00000001401215d0 f i toasty.obj
 0001:00120610       ??1?$ImVector@UImGuiInputEvent@@@@QEAA@XZ 0000000140121610 f i toasty.obj
 0001:00120650       ??1?$ImVector@UImGuiListClipperData@@@@QEAA@XZ 0000000140121650 f i toasty.obj
 0001:00120690       ??1?$ImVector@UImGuiListClipperRange@@@@QEAA@XZ 0000000140121690 f i toasty.obj
 0001:001206d0       ??1?$ImVector@UImGuiOldColumnData@@@@QEAA@XZ 00000001401216d0 f i toasty.obj
 0001:00120710       ??1?$ImVector@UImGuiOldColumns@@@@QEAA@XZ 0000000140121710 f i toasty.obj
 0001:00120750       ??1?$ImVector@UImGuiPopupData@@@@QEAA@XZ 0000000140121750 f i toasty.obj
 0001:00120790       ??1?$ImVector@UImGuiPtrOrIndex@@@@QEAA@XZ 0000000140121790 f i toasty.obj
 0001:001207d0       ??1?$ImVector@UImGuiSettingsHandler@@@@QEAA@XZ 00000001401217d0 f i toasty.obj
 0001:00120810       ??1?$ImVector@UImGuiShrinkWidthItem@@@@QEAA@XZ 0000000140121810 f i toasty.obj
 0001:00120850       ??1?$ImVector@UImGuiStackLevelInfo@@@@QEAA@XZ 0000000140121850 f i toasty.obj
 0001:00120890       ??1?$ImVector@UImGuiStoragePair@ImGuiStorage@@@@QEAA@XZ 0000000140121890 f i toasty.obj
 0001:001208d0       ??1?$ImVector@UImGuiStyleMod@@@@QEAA@XZ 00000001401218d0 f i toasty.obj
 0001:00120910       ??1?$ImVector@UImGuiTabBar@@@@QEAA@XZ 0000000140121910 f i toasty.obj
 0001:00120950       ??1?$ImVector@UImGuiTabItem@@@@QEAA@XZ 0000000140121950 f i toasty.obj
 0001:00120990       ??1?$ImVector@UImGuiTable@@@@QEAA@XZ 0000000140121990 f i toasty.obj
 0001:001209d0       ??1?$ImVector@UImGuiTableColumnSortSpecs@@@@QEAA@XZ 00000001401219d0 f i toasty.obj
 0001:00120a10       ??1?$ImVector@UImGuiTableInstanceData@@@@QEAA@XZ 0000000140121a10 f i toasty.obj
 0001:00120a50       ??1?$ImVector@UImGuiTableTempData@@@@QEAA@XZ 0000000140121a50 f i toasty.obj
 0001:00120a90       ??1?$ImVector@UImGuiTextRange@ImGuiTextFilter@@@@QEAA@XZ 0000000140121a90 f i toasty.obj
 0001:00120ad0       ??1?$ImVector@UImGuiWindowStackData@@@@QEAA@XZ 0000000140121ad0 f i toasty.obj
 0001:00120b10       ??1?$ImVector@UImVec2@@@@QEAA@XZ 0000000140121b10 f i toasty.obj
 0001:00120b50       ??1?$ImVector@UImVec4@@@@QEAA@XZ 0000000140121b50 f i toasty.obj
 0001:00120b90       ??1?$ImVector@UMyDocument@@@@QEAA@XZ 0000000140121b90 f i toasty.obj
 0001:00120bd0       ??1?$ImVector@Ustbrp_rect@@@@QEAA@XZ 0000000140121bd0 f i toasty.obj
 0001:00120c10       ??1?$ImVector@Ustbtt_packedchar@@@@QEAA@XZ 0000000140121c10 f i toasty.obj
 0001:00120c50       ??1?$_Compressed_pair@V?$allocator@D@std@@V?$_String_val@U?$_Simple_types@D@std@@@2@$00@std@@QEAA@XZ 0000000140121c50 f i toasty.obj
 0001:00120c80       ??1?$_String_val@U?$_Simple_types@D@std@@@std@@QEAA@XZ 0000000140121c80 f i toasty.obj
 0001:00120cb0       ??1?$_Tidy_guard@V?$vector@IV?$allocator@I@std@@@std@@@std@@QEAA@XZ 0000000140121cb0 f i toasty.obj
 0001:00120ce0       ??1?$_Tidy_guard@V?$vector@Utexture@@V?$allocator@Utexture@@@std@@@std@@@std@@QEAA@XZ 0000000140121ce0 f i toasty.obj
 0001:00120d10       ??1?$_Tidy_guard@V?$vector@Uvertex@@V?$allocator@Uvertex@@@std@@@std@@@std@@QEAA@XZ 0000000140121d10 f i toasty.obj
 0001:00120d40       ??1?$_Uninitialized_backout_al@V?$allocator@I@std@@@std@@QEAA@XZ 0000000140121d40 f i toasty.obj
 0001:00120d80       ??1?$_Uninitialized_backout_al@V?$allocator@Umesh@@@std@@@std@@QEAA@XZ 0000000140121d80 f i toasty.obj
 0001:00120dc0       ??1?$_Uninitialized_backout_al@V?$allocator@Utexture@@@std@@@std@@QEAA@XZ 0000000140121dc0 f i toasty.obj
 0001:00120e00       ??1?$_Uninitialized_backout_al@V?$allocator@Uvertex@@@std@@@std@@QEAA@XZ 0000000140121e00 f i toasty.obj
 0001:00120e40       ??1?$basic_string@DU?$char_traits@D@std@@V?$allocator@D@2@@std@@QEAA@XZ 0000000140121e40 f i toasty.obj
 0001:00120e70       ??1?$vector@IV?$allocator@I@std@@@std@@QEAA@XZ 0000000140121e70 f i toasty.obj
 0001:00120e90       ??1?$vector@Umesh@@V?$allocator@Umesh@@@std@@@std@@QEAA@XZ 0000000140121e90 f i toasty.obj
 0001:00120eb0       ??1?$vector@Utexture@@V?$allocator@Utexture@@@std@@@std@@QEAA@XZ 0000000140121eb0 f i toasty.obj
 0001:00120ed0       ??1?$vector@Uvertex@@V?$allocator@Uvertex@@@std@@@std@@QEAA@XZ 0000000140121ed0 f i toasty.obj
 0001:00120ef0       ??1ExampleAppConsole@@QEAA@XZ 0000000140121ef0 f i toasty.obj
 0001:00120fd0       ??1ExampleAppDocuments@@QEAA@XZ 0000000140121fd0 f i toasty.obj
 0001:00121000       ??1ExampleAppLog@@QEAA@XZ  0000000140122000 f i toasty.obj
 0001:00121050       ??1ImBitVector@@QEAA@XZ    0000000140122050 f i toasty.obj
 0001:00121080       ??1ImDrawDataBuilder@@QEAA@XZ 0000000140122080 f i toasty.obj
 0001:001210c0       ??1ImDrawList@@QEAA@XZ     00000001401220c0 f i toasty.obj
 0001:00121180       ??1ImDrawListSplitter@@QEAA@XZ 0000000140122180 f i toasty.obj
 0001:001211c0       ??1ImFontBuildSrcData@@QEAA@XZ 00000001401221c0 f i toasty.obj
 0001:00121210       ??1ImGuiContext@@QEAA@XZ   0000000140122210 f i toasty.obj
 0001:00121590       ??1ImGuiIO@@QEAA@XZ        0000000140122590 f i toasty.obj
 0001:001215c0       ??1ImGuiInputTextState@@QEAA@XZ 00000001401225c0 f i toasty.obj
 0001:00121620       ??1ImGuiListClipperData@@QEAA@XZ 0000000140122620 f i toasty.obj
 0001:00121650       ??1ImGuiOldColumns@@QEAA@XZ 0000000140122650 f i toasty.obj
 0001:00121690       ??1ImGuiStackTool@@QEAA@XZ 0000000140122690 f i toasty.obj
 0001:001216c0       ??1ImGuiStorage@@QEAA@XZ   00000001401226c0 f i toasty.obj
 0001:001216f0       ??1ImGuiTabBar@@QEAA@XZ    00000001401226f0 f i toasty.obj
 0001:00121730       ??1ImGuiTable@@QEAA@XZ     0000000140122730 f i toasty.obj
 0001:001217a0       ??1ImGuiTableTempData@@QEAA@XZ 00000001401227a0 f i toasty.obj
 0001:001217d0       ??1ImGuiTextBuffer@@QEAA@XZ 00000001401227d0 f i toasty.obj
 0001:00121800       ??1ImGuiTextFilter@@QEAA@XZ 0000000140122800 f i toasty.obj
 0001:00121830       ??1ImGuiViewportP@@QEAA@XZ 0000000140122830 f i toasty.obj
 0001:001218d0       ??1ImGuiWindowTempData@@QEAA@XZ 00000001401228d0 f i toasty.obj
 0001:00121930       ??1_Bxty@?$_String_val@U?$_Simple_types@D@std@@@std@@QEAA@XZ 0000000140122930 f i toasty.obj
 0001:00121940       ??1aiFace@@QEAA@XZ         0000000140122940 f i toasty.obj
 0001:00121970       ??1bad_alloc@std@@UEAA@XZ  0000000140122970 f i toasty.obj
 0001:00121990       ??1bad_array_new_length@std@@UEAA@XZ 0000000140122990 f i toasty.obj
 0001:001219b0       ??1exception@std@@UEAA@XZ  00000001401229b0 f i toasty.obj
 0001:001219f0       ??1material@@QEAA@XZ       00000001401229f0 f i toasty.obj
 0001:00121a20       ??1mesh@@QEAA@XZ           0000000140122a20 f i toasty.obj
 0001:00121aa0       ??1model@@QEAA@XZ          0000000140122aa0 f i toasty.obj
 0001:00121af0       ??1texture@@QEAA@XZ        0000000140122af0 f i toasty.obj
 0001:00121b20       ??2@YAPEAX_KPEAX@Z         0000000140122b20 f i toasty.obj
 0001:00121b40       ??2@YAPEAX_KUImNewWrapper@@PEAX@Z 0000000140122b40 f i toasty.obj
 0001:00121b60       ??3@YAXPEAXUImNewWrapper@@0@Z 0000000140122b60 f i toasty.obj
 0001:00121b80       ??4?$ImVector@G@@QEAAAEAU0@AEBU0@@Z 0000000140122b80 f i toasty.obj
 0001:00121bf0       ??4?$ImVector@UImDrawCmd@@@@QEAAAEAU0@AEBU0@@Z 0000000140122bf0 f i toasty.obj
 0001:00121c60       ??4?$ImVector@UImDrawVert@@@@QEAAAEAU0@AEBU0@@Z 0000000140122c60 f i toasty.obj
 0001:00121cd0       ??4?$basic_string@DU?$char_traits@D@std@@V?$allocator@D@2@@std@@QEAAAEAV01@$$QEAV01@@Z 0000000140122cd0 f i toasty.obj
 0001:00121d70       ??4?$basic_string@DU?$char_traits@D@std@@V?$allocator@D@2@@std@@QEAAAEAV01@AEBV01@@Z 0000000140122d70 f i toasty.obj
 0001:00121e10       ??4?$basic_string@DU?$char_traits@D@std@@V?$allocator@D@2@@std@@QEAAAEAV01@QEBD@Z 0000000140122e10 f i toasty.obj
 0001:00121e40       ??4aiColor3D@@QEAAAEAU0@AEBU0@@Z 0000000140122e40 f i toasty.obj
 0001:00121ea0       ??4aiFace@@QEAAAEAU0@AEBU0@@Z 0000000140122ea0 f i toasty.obj
 0001:00121fb0       ??A?$ImBitArray@$0IF@$0?CAA@@@QEBA_NH@Z 0000000140122fb0 f i toasty.obj
 0001:00122030       ??A?$ImSpan@C@@QEAAAEACH@Z 0000000140123030 f i toasty.obj
 0001:001220b0       ??A?$ImSpan@UImGuiTableCellData@@@@QEAAAEAUImGuiTableCellData@@H@Z 00000001401230b0 f i toasty.obj
 0001:00122140       ??A?$ImSpan@UImGuiTableColumn@@@@QEAAAEAUImGuiTableColumn@@H@Z 0000000140123140 f i toasty.obj
 0001:001221d0       ??A?$ImSpan@UImGuiTableColumn@@@@QEBAAEBUImGuiTableColumn@@H@Z 00000001401231d0 f i toasty.obj
 0001:00122260       ??A?$ImVector@D@@QEAAAEADH@Z 0000000140123260 f i toasty.obj
 0001:001222d0       ??A?$ImVector@D@@QEBAAEBDH@Z 00000001401232d0 f i toasty.obj
 0001:00122340       ??A?$ImVector@G@@QEAAAEAGH@Z 0000000140123340 f i toasty.obj
 0001:001223b0       ??A?$ImVector@G@@QEBAAEBGH@Z 00000001401233b0 f i toasty.obj
 0001:00122420       ??A?$ImVector@H@@QEAAAEAHH@Z 0000000140123420 f i toasty.obj
 0001:00122490       ??A?$ImVector@I@@QEAAAEAIH@Z 0000000140123490 f i toasty.obj
 0001:00122500       ??A?$ImVector@I@@QEBAAEBIH@Z 0000000140123500 f i toasty.obj
 0001:00122570       ??A?$ImVector@M@@QEAAAEAMH@Z 0000000140123570 f i toasty.obj
 0001:001225e0       ??A?$ImVector@M@@QEBAAEBMH@Z 00000001401235e0 f i toasty.obj
 0001:00122650       ??A?$ImVector@PEAD@@QEAAAEAPEADH@Z 0000000140123650 f i toasty.obj
 0001:001226c0       ??A?$ImVector@PEAUImDrawList@@@@QEAAAEAPEAUImDrawList@@H@Z 00000001401236c0 f i toasty.obj
 0001:00122730       ??A?$ImVector@PEAUImFont@@@@QEAAAEAPEAUImFont@@H@Z 0000000140123730 f i toasty.obj
 0001:001227a0       ??A?$ImVector@PEAUImGuiViewportP@@@@QEAAAEAPEAUImGuiViewportP@@H@Z 00000001401237a0 f i toasty.obj
 0001:00122810       ??A?$ImVector@PEAUImGuiWindow@@@@QEAAAEAPEAUImGuiWindow@@H@Z 0000000140123810 f i toasty.obj
 0001:00122880       ??A?$ImVector@PEAUMyDocument@@@@QEAAAEAPEAUMyDocument@@H@Z 0000000140123880 f i toasty.obj
 0001:001228f0       ??A?$ImVector@PEBD@@QEAAAEAPEBDH@Z 00000001401238f0 f i toasty.obj
 0001:00122960       ??A?$ImVector@UImDrawChannel@@@@QEAAAEAUImDrawChannel@@H@Z 0000000140123960 f i toasty.obj
 0001:001229d0       ??A?$ImVector@UImDrawCmd@@@@QEAAAEAUImDrawCmd@@H@Z 00000001401239d0 f i toasty.obj
 0001:00122a40       ??A?$ImVector@UImDrawCmd@@@@QEBAAEBUImDrawCmd@@H@Z 0000000140123a40 f i toasty.obj
 0001:00122ab0       ??A?$ImVector@UImDrawVert@@@@QEAAAEAUImDrawVert@@H@Z 0000000140123ab0 f i toasty.obj
 0001:00122b20       ??A?$ImVector@UImFontAtlasCustomRect@@@@QEAAAEAUImFontAtlasCustomRect@@H@Z 0000000140123b20 f i toasty.obj
 0001:00122b90       ??A?$ImVector@UImFontBuildDstData@@@@QEAAAEAUImFontBuildDstData@@H@Z 0000000140123b90 f i toasty.obj
 0001:00122c00       ??A?$ImVector@UImFontBuildSrcData@@@@QEAAAEAUImFontBuildSrcData@@H@Z 0000000140123c00 f i toasty.obj
 0001:00122c70       ??A?$ImVector@UImFontConfig@@@@QEAAAEAUImFontConfig@@H@Z 0000000140123c70 f i toasty.obj
 0001:00122ce0       ??A?$ImVector@UImFontGlyph@@@@QEAAAEAUImFontGlyph@@H@Z 0000000140123ce0 f i toasty.obj
 0001:00122d50       ??A?$ImVector@UImGuiContextHook@@@@QEAAAEAUImGuiContextHook@@H@Z 0000000140123d50 f i toasty.obj
 0001:00122dc0       ??A?$ImVector@UImGuiInputEvent@@@@QEAAAEAUImGuiInputEvent@@H@Z 0000000140123dc0 f i toasty.obj
 0001:00122e30       ??A?$ImVector@UImGuiListClipperData@@@@QEAAAEAUImGuiListClipperData@@H@Z 0000000140123e30 f i toasty.obj
 0001:00122ea0       ??A?$ImVector@UImGuiListClipperRange@@@@QEAAAEAUImGuiListClipperRange@@H@Z 0000000140123ea0 f i toasty.obj
 0001:00122f10       ??A?$ImVector@UImGuiOldColumnData@@@@QEAAAEAUImGuiOldColumnData@@H@Z 0000000140123f10 f i toasty.obj
 0001:00122f80       ??A?$ImVector@UImGuiOldColumns@@@@QEAAAEAUImGuiOldColumns@@H@Z 0000000140123f80 f i toasty.obj
 0001:00122ff0       ??A?$ImVector@UImGuiPopupData@@@@QEAAAEAUImGuiPopupData@@H@Z 0000000140123ff0 f i toasty.obj
 0001:00123060       ??A?$ImVector@UImGuiSettingsHandler@@@@QEAAAEAUImGuiSettingsHandler@@H@Z 0000000140124060 f i toasty.obj
 0001:001230d0       ??A?$ImVector@UImGuiShrinkWidthItem@@@@QEAAAEAUImGuiShrinkWidthItem@@H@Z 00000001401240d0 f i toasty.obj
 0001:00123140       ??A?$ImVector@UImGuiStackLevelInfo@@@@QEAAAEAUImGuiStackLevelInfo@@H@Z 0000000140124140 f i toasty.obj
 0001:001231b0       ??A?$ImVector@UImGuiStoragePair@ImGuiStorage@@@@QEAAAEAUImGuiStoragePair@ImGuiStorage@@H@Z 00000001401241b0 f i toasty.obj
 0001:00123220       ??A?$ImVector@UImGuiTabBar@@@@QEAAAEAUImGuiTabBar@@H@Z 0000000140124220 f i toasty.obj
 0001:00123290       ??A?$ImVector@UImGuiTabItem@@@@QEAAAEAUImGuiTabItem@@H@Z 0000000140124290 f i toasty.obj
 0001:00123300       ??A?$ImVector@UImGuiTable@@@@QEAAAEAUImGuiTable@@H@Z 0000000140124300 f i toasty.obj
 0001:00123370       ??A?$ImVector@UImGuiTableInstanceData@@@@QEAAAEAUImGuiTableInstanceData@@H@Z 0000000140124370 f i toasty.obj
 0001:001233e0       ??A?$ImVector@UImGuiTableTempData@@@@QEAAAEAUImGuiTableTempData@@H@Z 00000001401243e0 f i toasty.obj
 0001:00123450       ??A?$ImVector@UImGuiTextRange@ImGuiTextFilter@@@@QEAAAEAUImGuiTextRange@ImGuiTextFilter@@H@Z 0000000140124450 f i toasty.obj
 0001:001234c0       ??A?$ImVector@UImGuiTextRange@ImGuiTextFilter@@@@QEBAAEBUImGuiTextRange@ImGuiTextFilter@@H@Z 00000001401244c0 f i toasty.obj
 0001:00123530       ??A?$ImVector@UImGuiWindowStackData@@@@QEAAAEAUImGuiWindowStackData@@H@Z 0000000140124530 f i toasty.obj
 0001:001235a0       ??A?$ImVector@UImVec2@@@@QEAAAEAUImVec2@@H@Z 00000001401245a0 f i toasty.obj
 0001:00123610       ??A?$ImVector@UMyDocument@@@@QEAAAEAUMyDocument@@H@Z 0000000140124610 f i toasty.obj
 0001:00123680       ??A?$ImVector@Ustbrp_rect@@@@QEAAAEAUstbrp_rect@@H@Z 0000000140124680 f i toasty.obj
 0001:001236f0       ??A?$ImVector@Ustbtt_packedchar@@@@QEAAAEAUstbtt_packedchar@@H@Z 00000001401246f0 f i toasty.obj
 0001:00123760       ??A?$mat@$03$03M$0A@@glm@@QEAAAEAU?$vec@$03M$0A@@1@H@Z 0000000140124760 f i toasty.obj
 0001:001237c0       ??A?$mat@$03$03M$0A@@glm@@QEBAAEBU?$vec@$03M$0A@@1@H@Z 00000001401247c0 f i toasty.obj
 0001:00123820       ??A?$vec@$02M$0A@@glm@@QEBAAEBMH@Z 0000000140124820 f i toasty.obj
 0001:001238c0       ??A?$vec@$03M$0A@@glm@@QEAAAEAMH@Z 00000001401248c0 f i toasty.obj
 0001:00123970       ??A?$vector@IV?$allocator@I@std@@@std@@QEAAAEAI_K@Z 0000000140124970 f i toasty.obj
 0001:001239b0       ??A?$vector@Uvertex@@V?$allocator@Uvertex@@@std@@@std@@QEAAAEAUvertex@@_K@Z 00000001401249b0 f i toasty.obj
 0001:001239f0       ??AImGuiTextBuffer@@QEBADH@Z 00000001401249f0 f i toasty.obj
 0001:00123a50       ??AImVec2@@QEAAAEAM_K@Z    0000000140124a50 f i toasty.obj
 0001:00123ab0       ??AImVec2@@QEBAM_K@Z       0000000140124ab0 f i toasty.obj
 0001:00123b10       ??BImColor@@QEBA?AUImVec4@@XZ 0000000140124b10 f i toasty.obj
 0001:00123b40       ??BImColor@@QEBAIXZ        0000000140124b40 f i toasty.obj
 0001:00123b70       ??R<lambda_65e615be2a453ca0576c979606f46740>@@QEBA@QEADQEBD_K12@Z 0000000140124b70 f i toasty.obj
 0001:00123c10       ??R<lambda_66f57f934f28d61049862f64df852ff0>@@QEBA@QEAD_KQEBD@Z 0000000140124c10 f i toasty.obj
 0001:00123c80       ??_GImDrawList@@QEAAPEAXI@Z 0000000140124c80 f i toasty.obj
 0001:00123cd0       ??_GImFont@@QEAAPEAXI@Z    0000000140124cd0 f i toasty.obj
 0001:00123d20       ??_GImFontAtlas@@QEAAPEAXI@Z 0000000140124d20 f i toasty.obj
 0001:00123d70       ??_GImFontBuildSrcData@@QEAAPEAXI@Z 0000000140124d70 f i toasty.obj
 0001:00123dc0       ??_GImGuiContext@@QEAAPEAXI@Z 0000000140124dc0 f i toasty.obj
 0001:00123e10       ??_GImGuiListClipperData@@QEAAPEAXI@Z 0000000140124e10 f i toasty.obj
 0001:00123e60       ??_GImGuiOldColumns@@QEAAPEAXI@Z 0000000140124e60 f i toasty.obj
 0001:00123eb0       ??_GImGuiTabBar@@QEAAPEAXI@Z 0000000140124eb0 f i toasty.obj
 0001:00123f00       ??_GImGuiTable@@QEAAPEAXI@Z 0000000140124f00 f i toasty.obj
 0001:00123f50       ??_GImGuiTableTempData@@QEAAPEAXI@Z 0000000140124f50 f i toasty.obj
 0001:00123fa0       ??_GImGuiViewportP@@QEAAPEAXI@Z 0000000140124fa0 f i toasty.obj
 0001:00123ff0       ??_GImGuiWindow@@QEAAPEAXI@Z 0000000140124ff0 f i toasty.obj
 0001:00124040       ??_Gbad_alloc@std@@UEAAPEAXI@Z 0000000140125040 f i toasty.obj
 0001:00124040       ??_Ebad_alloc@std@@UEAAPEAXI@Z 0000000140125040 f i toasty.obj
 0001:00124090       ??_Ebad_array_new_length@std@@UEAAPEAXI@Z 0000000140125090 f i toasty.obj
 0001:00124090       ??_Gbad_array_new_length@std@@UEAAPEAXI@Z 0000000140125090 f i toasty.obj
 0001:001240e0       ??_Eexception@std@@UEAAPEAXI@Z 00000001401250e0 f i toasty.obj
 0001:001240e0       ??_Gexception@std@@UEAAPEAXI@Z 00000001401250e0 f i toasty.obj
 0001:00124130       ??_Gmesh@@QEAAPEAXI@Z      0000000140125130 f i toasty.obj
 0001:00124180       ??_Gtexture@@QEAAPEAXI@Z   0000000140125180 f i toasty.obj
 0001:001241d0       ??_H@YAXPEAX_K1P6APEAX0@Z@Z 00000001401251d0 f i toasty.obj
 0001:00124250       ?Add@?$ImPool@UImGuiTabBar@@@@QEAAPEAUImGuiTabBar@@XZ 0000000140125250 f i toasty.obj
 0001:00124390       ?Add@?$ImPool@UImGuiTable@@@@QEAAPEAUImGuiTable@@XZ 0000000140125390 f i toasty.obj
 0001:001244d0       ?Add@ImRect@@QEAAXAEBU1@@Z 00000001401254d0 f i toasty.obj
 0001:001245b0       ?Add@ImRect@@QEAAXAEBUImVec2@@@Z 00000001401255b0 f i toasty.obj
 0001:00124690       ?AddChar@ImFontGlyphRangesBuilder@@QEAAXG@Z 0000000140125690 f i toasty.obj
 0001:001246c0       ?AddLog@ExampleAppConsole@@QEAAXPEBDZZ 00000001401256c0 f i toasty.obj
 0001:001247d0       ?AddLog@ExampleAppLog@@QEAAXPEBDZZ 00000001401257d0 f i toasty.obj
 0001:001248c0       ?C_Str@aiString@@QEBAPEBDXZ 00000001401258c0 f i toasty.obj
 0001:001248e0       ?CalcFontSize@ImGuiWindow@@QEBAMXZ 00000001401258e0 f i toasty.obj
 0001:00124970       ?CalcWorkRectPos@ImGuiViewportP@@QEBA?AUImVec2@@AEBU2@@Z 0000000140125970 f i toasty.obj
 0001:001249e0       ?CalcWorkRectSize@ImGuiViewportP@@QEBA?AUImVec2@@AEBU2@0@Z 00000001401259e0 f i toasty.obj
 0001:00124a90       ?Clear@?$ImPool@UImGuiTabBar@@@@QEAAXXZ 0000000140125a90 f i toasty.obj
 0001:00124b60       ?Clear@?$ImPool@UImGuiTable@@@@QEAAXXZ 0000000140125b60 f i toasty.obj
 0001:00124c30       ?Clear@ExampleAppLog@@QEAAXXZ 0000000140125c30 f i toasty.obj
 0001:00124ca0       ?Clear@ImBitVector@@QEAAXXZ 0000000140125ca0 f i toasty.obj
 0001:00124cd0       ?Clear@ImDrawData@@QEAAXXZ 0000000140125cd0 f i toasty.obj
 0001:00124d00       ?Clear@ImDrawDataBuilder@@QEAAXXZ 0000000140125d00 f i toasty.obj
 0001:00124d60       ?Clear@ImDrawListSplitter@@QEAAXXZ 0000000140125d60 f i toasty.obj
 0001:00124d90       ?Clear@ImGuiNavItemData@@QEAAXXZ 0000000140125d90 f i toasty.obj
 0001:00124e20       ?Clear@ImGuiPayload@@QEAAXXZ 0000000140125e20 f i toasty.obj
 0001:00124ec0       ?Clear@ImGuiStorage@@QEAAXXZ 0000000140125ec0 f i toasty.obj
 0001:00124ef0       ?ClearAllBits@?$ImBitArray@$0CIF@$0A@@@QEAAXXZ 0000000140125ef0 f i toasty.obj
 0001:00124f20       ?ClearAllBits@?$ImBitArray@$0IE@$0A@@@QEAAXXZ 0000000140125f20 f i toasty.obj
 0001:00124f50       ?ClearAllBits@?$ImBitArray@$0IF@$0?CAA@@@QEAAXXZ 0000000140125f50 f i toasty.obj
 0001:00124f80       ?ClearBit@?$ImBitArray@$0IE@$0A@@@QEAAXH@Z 0000000140125f80 f i toasty.obj
 0001:00124ff0       ?ClearFlags@ImGuiNextItemData@@QEAAXXZ 0000000140125ff0 f i toasty.obj
 0001:00125010       ?ClearFlags@ImGuiNextWindowData@@QEAAXXZ 0000000140126010 f i toasty.obj
 0001:00125030       ?ClearFreeMemory@ImGuiInputTextState@@QEAAXXZ 0000000140126030 f i toasty.obj
 0001:00125090       ?ClearLog@ExampleAppConsole@@QEAAXXZ 0000000140126090 f i toasty.obj
 0001:00125120       ?ClearSelection@ImGuiInputTextState@@QEAAXXZ 0000000140126120 f i toasty.obj
 0001:00125150       ?ClipWith@ImRect@@QEAAXAEBU1@@Z 0000000140126150 f i toasty.obj
 0001:001251d0       ?ClipWithFull@ImRect@@QEAAXAEBU1@@Z 00000001401261d0 f i toasty.obj
 0001:00125270       ?Contains@?$ImPool@UImGuiTabBar@@@@QEBA_NPEBUImGuiTabBar@@@Z 0000000140126270 f i toasty.obj
 0001:001252e0       ?Contains@ImRect@@QEBA_NAEBU1@@Z 00000001401262e0 f i toasty.obj
 0001:00125380       ?Contains@ImRect@@QEBA_NAEBUImVec2@@@Z 0000000140126380 f i toasty.obj
 0001:00125420       ?Create@ImBitVector@@QEAAXH@Z 0000000140126420 f i toasty.obj
 0001:00125480       ?CursorAnimReset@ImGuiInputTextState@@QEAAXXZ 0000000140126480 f i toasty.obj
 0001:001254b0       ?CursorClamp@ImGuiInputTextState@@QEAAXXZ 00000001401264b0 f i toasty.obj
 0001:00125530       ?DebugStartItemPicker@ImGui@@YAXXZ 0000000140126530 f i toasty.obj
 0001:00125560       ?DisplayContents@MyDocument@@SAXPEAU1@@Z 0000000140126560 f i toasty.obj
 0001:00125690       ?DisplayContextMenu@MyDocument@@SAXPEAU1@@Z 0000000140126690 f i toasty.obj
 0001:001257b0       ?DoForceClose@MyDocument@@QEAAXXZ 00000001401267b0 f i toasty.obj
 0001:001257d0       ?DoOpen@MyDocument@@QEAAXXZ 00000001401267d0 f i toasty.obj
 0001:001257f0       ?DoQueueClose@MyDocument@@QEAAXXZ 00000001401267f0 f i toasty.obj
 0001:00125810       ?DoSave@MyDocument@@QEAAXXZ 0000000140126810 f i toasty.obj
 0001:00125830       ?Draw@ExampleAppConsole@@QEAAXPEBDPEA_N@Z 0000000140126830 f i toasty.obj
 0001:00125fc0       ?Draw@ExampleAppLog@@QEAAXPEBDPEA_N@Z 0000000140126fc0 f i toasty.obj
 0001:00126550       ?ExecCommand@ExampleAppConsole@@QEAAXPEBD@Z 0000000140127550 f i toasty.obj
 0001:00126850       ?Expand@ImRect@@QEAAXAEBUImVec2@@@Z 0000000140127850 f i toasty.obj
 0001:001268f0       ?Expand@ImRect@@QEAAXM@Z   00000001401278f0 f i toasty.obj
 0001:00126980       ?FromIndices@ImGuiListClipperRange@@SA?AU1@HH@Z 0000000140127980 f i toasty.obj
 0001:00126a10       ?FromPositions@ImGuiListClipperRange@@SA?AU1@MMHH@Z 0000000140127a10 f i toasty.obj
 0001:00126ac0       ?Get@aiMaterial@@QEBA?AW4aiReturn@@PEBDIIAEAH@Z 0000000140127ac0 f i toasty.obj
 0001:00126b10       ?Get@aiMaterial@@QEBA?AW4aiReturn@@PEBDIIAEAM@Z 0000000140127b10 f i toasty.obj
 0001:00126b60       ?Get@aiMaterial@@QEBA?AW4aiReturn@@PEBDIIAEAUaiColor3D@@@Z 0000000140127b60 f i toasty.obj
 0001:00126c00       ?Get@aiMaterial@@QEBA?AW4aiReturn@@PEBDIIAEAUaiString@@@Z 0000000140127c00 f i toasty.obj
 0001:00126c50       ?GetAliveCount@?$ImPool@UImGuiTabBar@@@@QEBAHXZ 0000000140127c50 f i toasty.obj
 0001:00126c70       ?GetAliveCount@?$ImPool@UImGuiTable@@@@QEBAHXZ 0000000140127c70 f i toasty.obj
 0001:00126c90       ?GetArea@ImRect@@QEBAMXZ   0000000140127c90 f i toasty.obj
 0001:00126cd0       ?GetArenaSizeInBytes@?$ImSpanAllocator@$02@@QEAAHXZ 0000000140127cd0 f i toasty.obj
 0001:00126cf0       ?GetBL@ImRect@@QEBA?AUImVec2@@XZ 0000000140127cf0 f i toasty.obj
 0001:00126d40       ?GetBR@ImRect@@QEBA?AUImVec2@@XZ 0000000140127d40 f i toasty.obj
 0001:00126d70       ?GetBit@ImFontGlyphRangesBuilder@@QEBA_N_K@Z 0000000140127d70 f i toasty.obj
 0001:00126e00       ?GetBuildWorkRect@ImGuiViewportP@@QEBA?AUImRect@@XZ 0000000140127e00 f i toasty.obj
 0001:00126ec0       ?GetByIndex@?$ImPool@UImGuiTabBar@@@@QEAAPEAUImGuiTabBar@@H@Z 0000000140127ec0 f i toasty.obj
 0001:00126ef0       ?GetByIndex@?$ImPool@UImGuiTable@@@@QEAAPEAUImGuiTable@@H@Z 0000000140127ef0 f i toasty.obj
 0001:00126f20       ?GetByKey@?$ImPool@UImGuiTable@@@@QEAAPEAUImGuiTable@@I@Z 0000000140127f20 f i toasty.obj
 0001:00126fa0       ?GetCenter@ImGuiViewport@@QEBA?AUImVec2@@XZ 0000000140127fa0 f i toasty.obj
 0001:00127030       ?GetCenter@ImRect@@QEBA?AUImVec2@@XZ 0000000140128030 f i toasty.obj
 0001:001270b0       ?GetCharAdvance@ImFont@@QEBAMG@Z 00000001401280b0 f i toasty.obj
 0001:00127120       ?GetColumnSettings@ImGuiTableSettings@@QEAAPEAUImGuiTableColumnSettings@@XZ 0000000140128120 f i toasty.obj
 0001:00127140       ?GetCurrentWindow@ImGui@@YAPEAUImGuiWindow@@XZ 0000000140128140 f i toasty.obj
 0001:00127180       ?GetCurrentWindowRead@ImGui@@YAPEAUImGuiWindow@@XZ 0000000140128180 f i toasty.obj
 0001:001271b0       ?GetCustomRectByIndex@ImFontAtlas@@QEAAPEAUImFontAtlasCustomRect@@H@Z 00000001401281b0 f i toasty.obj
 0001:00127210       ?GetDebugName@ImFont@@QEBAPEBDXZ 0000000140128210 f i toasty.obj
 0001:00127260       ?GetDefaultFont@ImGui@@YAPEAUImFont@@XZ 0000000140128260 f i toasty.obj
 0001:001272d0       ?GetDrawListCount@ImDrawDataBuilder@@QEBAHXZ 00000001401282d0 f i toasty.obj
 0001:00127340       ?GetForegroundDrawList@ImGui@@YAPEAUImDrawList@@PEAUImGuiWindow@@@Z 0000000140128340 f i toasty.obj
 0001:00127360       ?GetHeight@ImRect@@QEBAMXZ 0000000140128360 f i toasty.obj
 0001:00127380       ?GetIndex@?$ImPool@UImGuiTabBar@@@@QEBAHPEBUImGuiTabBar@@@Z 0000000140128380 f i toasty.obj
 0001:00127420       ?GetIndex@?$ImPool@UImGuiTable@@@@QEBAHPEBUImGuiTable@@@Z 0000000140128420 f i toasty.obj
 0001:001274c0       ?GetInputTextState@ImGui@@YAPEAUImGuiInputTextState@@I@Z 00000001401284c0 f i toasty.obj
 0001:00127520       ?GetMainRect@ImGuiViewportP@@QEBA?AUImRect@@XZ 0000000140128520 f i toasty.obj
 0001:001275a0       ?GetMapSize@?$ImPool@UImGuiTabBar@@@@QEBAHXZ 00000001401285a0 f i toasty.obj
 0001:001275c0       ?GetMapSize@?$ImPool@UImGuiTable@@@@QEBAHXZ 00000001401285c0 f i toasty.obj
 0001:001275e0       ?GetName@ImGuiWindowSettings@@QEAAPEADXZ 00000001401285e0 f i toasty.obj
 0001:00127600       ?GetOrAddByKey@?$ImPool@UImGuiTabBar@@@@QEAAPEAUImGuiTabBar@@I@Z 0000000140128600 f i toasty.obj
 0001:00127690       ?GetOrAddByKey@?$ImPool@UImGuiTable@@@@QEAAPEAUImGuiTable@@I@Z 0000000140128690 f i toasty.obj
 0001:00127720       ?GetSize@ImRect@@QEBA?AUImVec2@@XZ 0000000140128720 f i toasty.obj
 0001:00127780       ?GetSpanPtrBegin@?$ImSpanAllocator@$02@@QEAAPEAXH@Z 0000000140128780 f i toasty.obj
 0001:00127800       ?GetSpanPtrEnd@?$ImSpanAllocator@$02@@QEAAPEAXH@Z 0000000140128800 f i toasty.obj
 0001:001278a0       ?GetTL@ImRect@@QEBA?AUImVec2@@XZ 00000001401288a0 f i toasty.obj
 0001:001278d0       ?GetTR@ImRect@@QEBA?AUImVec2@@XZ 00000001401288d0 f i toasty.obj
 0001:00127920       ?GetTabName@ImGuiTabBar@@QEBAPEBDPEBUImGuiTabItem@@@Z 0000000140128920 f i toasty.obj
 0001:001279a0       ?GetTabOrder@ImGuiTabBar@@QEBAHPEBUImGuiTabItem@@@Z 00000001401289a0 f i toasty.obj
 0001:001279d0       ?GetTexID@ImDrawCmd@@QEBAPEAXXZ 00000001401289d0 f i toasty.obj
 0001:001279f0       ?GetTexture@aiMaterial@@QEBA?AW4aiReturn@@W4aiTextureType@@IPEAUaiString@@PEAW4aiTextureMapping@@PEAIPEAMPEAW4aiTextureOp@@PEAW4aiTextureMapMode@@@Z 00000001401289f0 f i toasty.obj
 0001:00127a90       ?GetVarPtr@ImGuiStyleVarInfo@@QEBAPEAXPEAUImGuiStyle@@@Z 0000000140128a90 f i toasty.obj
 0001:00127ac0       ?GetWidth@ImRect@@QEBAMXZ  0000000140128ac0 f i toasty.obj
 0001:00127ae0       ?GetWorkRect@ImGuiViewportP@@QEBA?AUImRect@@XZ 0000000140128ae0 f i toasty.obj
 0001:00127b60       ?HSV@ImColor@@SA?AU1@MMMM@Z 0000000140128b60 f i toasty.obj
 0001:00127c00       ?HasFaces@aiMesh@@QEBA_NXZ 0000000140128c00 f i toasty.obj
 0001:00127c50       ?HasMaterials@aiScene@@QEBA_NXZ 0000000140128c50 f i toasty.obj
 0001:00127ca0       ?HasNormals@aiMesh@@QEBA_NXZ 0000000140128ca0 f i toasty.obj
 0001:00127cf0       ?HasPositions@aiMesh@@QEBA_NXZ 0000000140128cf0 f i toasty.obj
 0001:00127d40       ?HasSelection@ImGuiInputTextState@@QEBA_NXZ 0000000140128d40 f i toasty.obj
 0001:00127d90       ?HasTextureCoords@aiMesh@@QEBA_NI@Z 0000000140128d90 f i toasty.obj
 0001:00127e00       ?ImBitArrayClearBit@@YAXPEAIH@Z 0000000140128e00 f i toasty.obj
 0001:00127e70       ?ImBitArraySetBit@@YAXPEAIH@Z 0000000140128e70 f i toasty.obj
 0001:00127ee0       ?ImBitArraySetBitRange@@YAXPEAIHH@Z 0000000140128ee0 f i toasty.obj
 0001:00127ff0       ?ImBitArrayTestBit@@YA_NPEBIH@Z 0000000140128ff0 f i toasty.obj
 0001:00128070       ?ImTriangleArea@@YAMAEBUImVec2@@00@Z 0000000140129070 f i toasty.obj
 0001:00128130       ?IsActive@ImGuiTextFilter@@QEBA_NXZ 0000000140129130 f i toasty.obj
 0001:00128180       ?IsActiveIdUsingKey@ImGui@@YA_NH@Z 0000000140129180 f i toasty.obj
 0001:001281c0       ?IsActiveIdUsingNavDir@ImGui@@YA_NH@Z 00000001401291c0 f i toasty.obj
 0001:00128230       ?IsActiveIdUsingNavInput@ImGui@@YA_NH@Z 0000000140129230 f i toasty.obj
 0001:001282a0       ?IsBuilt@ImFontAtlas@@QEBA_NXZ 00000001401292a0 f i toasty.obj
 0001:001282f0       ?IsDataType@ImGuiPayload@@QEBA_NPEBD@Z 00000001401292f0 f i toasty.obj
 0001:00128360       ?IsGamepadKey@ImGui@@YA_NH@Z 0000000140129360 f i toasty.obj
 0001:001283b0       ?IsInverted@ImRect@@QEBA_NXZ 00000001401293b0 f i toasty.obj
 0001:00128410       ?IsLegacyKey@ImGui@@YA_NH@Z 0000000140129410 f i toasty.obj
 0001:00128450       ?IsLoaded@ImFont@@QEBA_NXZ 0000000140129450 f i toasty.obj
 0001:00128490       ?IsNamedKey@ImGui@@YA_NH@Z 0000000140129490 f i toasty.obj
 0001:001284e0       ?IsNavInputDown@ImGui@@YA_NH@Z 00000001401294e0 f i toasty.obj
 0001:00128540       ?IsNavInputTest@ImGui@@YA_NHW4ImGuiNavReadMode@@@Z 0000000140129540 f i toasty.obj
 0001:00128590       ?IsPacked@ImFontAtlasCustomRect@@QEBA_NXZ 0000000140129590 f i toasty.obj
 0001:001285d0       ?ItemSize@ImGui@@YAXAEBUImRect@@M@Z 00000001401295d0 f i toasty.obj
 0001:00128610       ?MenuBarHeight@ImGuiWindow@@QEBAMXZ 0000000140129610 f i toasty.obj
 0001:001286b0       ?MenuBarRect@ImGuiWindow@@QEBA?AUImRect@@XZ 00000001401296b0 f i toasty.obj
 0001:00128760       ?Overlaps@ImRect@@QEBA_NAEBU1@@Z 0000000140129760 f i toasty.obj
 0001:00128800       ?PathFillConvex@ImDrawList@@QEAAXI@Z 0000000140129800 f i toasty.obj
 0001:00128860       ?PathLineTo@ImDrawList@@QEAAXAEBUImVec2@@@Z 0000000140129860 f i toasty.obj
 0001:001288a0       ?PathStroke@ImDrawList@@QEAAXIHM@Z 00000001401298a0 f i toasty.obj
 0001:00128920       ?PrimVtx@ImDrawList@@QEAAXAEBUImVec2@@0I@Z 0000000140129920 f i toasty.obj
 0001:00128980       ?PrimWriteIdx@ImDrawList@@QEAAXG@Z 0000000140129980 f i toasty.obj
 0001:001289c0       ?PrimWriteVtx@ImDrawList@@QEAAXAEBUImVec2@@0I@Z 00000001401299c0 f i toasty.obj
 0001:00128a60       ?ReadFile@Importer@Assimp@@QEAAPEBUaiScene@@AEBV?$basic_string@DU?$char_traits@D@std@@V?$allocator@D@2@@std@@I@Z 0000000140129a60 f i toasty.obj
 0001:00128ab0       ?Rect@ImGuiWindow@@QEBA?AUImRect@@XZ 0000000140129ab0 f i toasty.obj
 0001:00128b30       ?Remove@?$ImPool@UImGuiTable@@@@QEAAXIH@Z 0000000140129b30 f i toasty.obj
 0001:00128be0       ?Remove@?$ImPool@UImGuiTable@@@@QEAAXIPEBUImGuiTable@@@Z 0000000140129be0 f i toasty.obj
 0001:00128c30       ?Reserve@?$ImSpanAllocator@$02@@QEAAXH_KH@Z 0000000140129c30 f i toasty.obj
 0001:00128d20       ?Reset@ImGuiListClipperData@@QEAAXPEAUImGuiListClipper@@@Z 0000000140129d20 f i toasty.obj
 0001:00128d80       ?SelectAll@ImGuiInputTextCallbackData@@QEAAXXZ 0000000140129d80 f i toasty.obj
 0001:00128db0       ?SelectAll@ImGuiInputTextState@@QEAAXXZ 0000000140129db0 f i toasty.obj
 0001:00128e00       ?SetActiveIdUsingKey@ImGui@@YAXH@Z 0000000140129e00 f i toasty.obj
 0001:00128e40       ?SetAllBits@?$ImBitArray@$0IF@$0?CAA@@@QEAAXXZ 0000000140129e40 f i toasty.obj
 0001:00128e70       ?SetArenaBasePtr@?$ImSpanAllocator@$02@@QEAAXPEAX@Z 0000000140129e70 f i toasty.obj
 0001:00128e90       ?SetBit@?$ImBitArray@$0CIF@$0A@@@QEAAXH@Z 0000000140129e90 f i toasty.obj
 0001:00128f00       ?SetBit@?$ImBitArray@$0IE@$0A@@@QEAAXH@Z 0000000140129f00 f i toasty.obj
 0001:00128f70       ?SetBit@?$ImBitArray@$0IF@$0?CAA@@@QEAAXH@Z 0000000140129f70 f i toasty.obj
 0001:00128ff0       ?SetBit@ImBitVector@@QEAAXH@Z 0000000140129ff0 f i toasty.obj
 0001:00129060       ?SetBit@ImFontGlyphRangesBuilder@@QEAAX_K@Z 000000014012a060 f i toasty.obj
 0001:001290f0       ?SetBitRange@?$ImBitArray@$0IE@$0A@@@QEAAXHH@Z 000000014012a0f0 f i toasty.obj
 0001:00129190       ?SetTexID@ImFontAtlas@@QEAAXPEAX@Z 000000014012a190 f i toasty.obj
 0001:001291b0       ?Strdup@ExampleAppConsole@@SAPEADPEBD@Z 000000014012a1b0 f i toasty.obj
 0001:00129260       ?Stricmp@ExampleAppConsole@@SAHPEBD0@Z 000000014012a260 f i toasty.obj
 0001:00129300       ?Strnicmp@ExampleAppConsole@@SAHPEBD0H@Z 000000014012a300 f i toasty.obj
 0001:001293c0       ?Strtrim@ExampleAppConsole@@SAXPEAD@Z 000000014012a3c0 f i toasty.obj
 0001:00129440       ?TableFixFlags@@YAHHPEAUImGuiWindow@@@Z 000000014012a440 f i toasty.obj
 0001:00129580       ?TableGetInstanceData@ImGui@@YAPEAUImGuiTableInstanceData@@PEAUImGuiTable@@H@Z 000000014012a580 f i toasty.obj
 0001:001295d0       ?TempInputIsActive@ImGui@@YA_NI@Z 000000014012a5d0 f i toasty.obj
 0001:00129640       ?TestBit@?$ImBitArray@$0CIF@$0A@@@QEBA_NH@Z 000000014012a640 f i toasty.obj
 0001:001296b0       ?TestBit@?$ImBitArray@$0IE@$0A@@@QEBA_NH@Z 000000014012a6b0 f i toasty.obj
 0001:00129720       ?TestBit@ImBitVector@@QEBA_NH@Z 000000014012a720 f i toasty.obj
 0001:00129790       ?TextEditCallback@ExampleAppConsole@@QEAAHPEAUImGuiInputTextCallbackData@@@Z 000000014012a790 f i toasty.obj
 0001:00129eb0       ?TextEditCallbackStub@ExampleAppConsole@@SAHPEAUImGuiInputTextCallbackData@@@Z 000000014012aeb0 f i toasty.obj
 0001:00129ef0       ?TitleBarHeight@ImGuiWindow@@QEBAMXZ 000000014012aef0 f i toasty.obj
 0001:00129f70       ?TitleBarRect@ImGuiWindow@@QEBA?AUImRect@@XZ 000000014012af70 f i toasty.obj
 0001:0012a000       ?ToVec4@ImRect@@QEBA?AUImVec4@@XZ 000000014012b000 f i toasty.obj
 0001:0012a070       ?Translate@ImRect@@QEAAXAEBUImVec2@@@Z 000000014012b070 f i toasty.obj
 0001:0012a110       ?TranslateX@ImRect@@QEAAXM@Z 000000014012b110 f i toasty.obj
 0001:0012a160       ?TranslateY@ImRect@@QEAAXM@Z 000000014012b160 f i toasty.obj
 0001:0012a1b0       ?TryGetMapData@?$ImPool@UImGuiTabBar@@@@QEAAPEAUImGuiTabBar@@H@Z 000000014012b1b0 f i toasty.obj
 0001:0012a210       ?TryGetMapData@?$ImPool@UImGuiTable@@@@QEAAPEAUImGuiTable@@H@Z 000000014012b210 f i toasty.obj
 0001:0012a270       ?UpdateWorkRect@ImGuiViewportP@@QEAAXXZ 000000014012b270 f i toasty.obj
 0001:0012a300       ?WindowRectAbsToRel@ImGui@@YA?AUImRect@@PEAUImGuiWindow@@AEBU2@@Z 000000014012b300 f i toasty.obj
 0001:0012a3c0       ?WindowRectRelToAbs@ImGui@@YA?AUImRect@@PEAUImGuiWindow@@AEBU2@@Z 000000014012b3c0 f i toasty.obj
 0001:0012a480       ?_Adjust_manually_vector_aligned@std@@YAXAEAPEAXAEA_K@Z 000000014012b480 f i toasty.obj
 0001:0012a540       ?_Alloc_proxy@_Container_base0@std@@QEAAXAEBU_Fake_allocator@2@@Z 000000014012b540 f i toasty.obj
 0001:0012a550       ?_Allocate@_Default_allocate_traits@std@@SAPEAX_K@Z 000000014012b550 f i toasty.obj
 0001:0012a570       ?_Buy_nonzero@?$vector@IV?$allocator@I@std@@@std@@AEAAX_K@Z 000000014012b570 f i toasty.obj
 0001:0012a5c0       ?_Buy_nonzero@?$vector@Utexture@@V?$allocator@Utexture@@@std@@@std@@AEAAX_K@Z 000000014012b5c0 f i toasty.obj
 0001:0012a610       ?_Buy_nonzero@?$vector@Uvertex@@V?$allocator@Uvertex@@@std@@@std@@AEAAX_K@Z 000000014012b610 f i toasty.obj
 0001:0012a660       ?_Buy_raw@?$vector@IV?$allocator@I@std@@@std@@AEAAX_K@Z 000000014012b660 f i toasty.obj
 0001:0012a720       ?_Buy_raw@?$vector@Utexture@@V?$allocator@Utexture@@@std@@@std@@AEAAX_K@Z 000000014012b720 f i toasty.obj
 0001:0012a7e0       ?_Buy_raw@?$vector@Uvertex@@V?$allocator@Uvertex@@@std@@@std@@AEAAX_K@Z 000000014012b7e0 f i toasty.obj
 0001:0012a8a0       ?_Calculate_growth@?$basic_string@DU?$char_traits@D@std@@V?$allocator@D@2@@std@@AEBA_K_K@Z 000000014012b8a0 f i toasty.obj
 0001:0012a8e0       ?_Calculate_growth@?$basic_string@DU?$char_traits@D@std@@V?$allocator@D@2@@std@@CA_K_K00@Z 000000014012b8e0 f i toasty.obj
 0001:0012a9a0       ?_Calculate_growth@?$vector@IV?$allocator@I@std@@@std@@AEBA_K_K@Z 000000014012b9a0 f i toasty.obj
 0001:0012aa60       ?_Calculate_growth@?$vector@Umesh@@V?$allocator@Umesh@@@std@@@std@@AEBA_K_K@Z 000000014012ba60 f i toasty.obj
 0001:0012ab20       ?_Calculate_growth@?$vector@Utexture@@V?$allocator@Utexture@@@std@@@std@@AEBA_K_K@Z 000000014012bb20 f i toasty.obj
 0001:0012abe0       ?_Calculate_growth@?$vector@Uvertex@@V?$allocator@Uvertex@@@std@@@std@@AEBA_K_K@Z 000000014012bbe0 f i toasty.obj
 0001:0012aca0       ?_Change_array@?$vector@IV?$allocator@I@std@@@std@@AEAAXQEAI_K1@Z 000000014012bca0 f i toasty.obj
 0001:0012add0       ?_Change_array@?$vector@Umesh@@V?$allocator@Umesh@@@std@@@std@@AEAAXQEAUmesh@@_K1@Z 000000014012bdd0 f i toasty.obj
 0001:0012af20       ?_Change_array@?$vector@Utexture@@V?$allocator@Utexture@@@std@@@std@@AEAAXQEAUtexture@@_K1@Z 000000014012bf20 f i toasty.obj
 0001:0012b060       ?_Change_array@?$vector@Uvertex@@V?$allocator@Uvertex@@@std@@@std@@AEAAXQEAUvertex@@_K1@Z 000000014012c060 f i toasty.obj
 0001:0012b1a0       ?_Check_offset@?$_String_val@U?$_Simple_types@D@std@@@std@@QEBAX_K@Z 000000014012c1a0 f i toasty.obj
 0001:0012b1e0       ?_Clamp_suffix_size@?$_String_val@U?$_Simple_types@D@std@@@std@@QEBA_K_K0@Z 000000014012c1e0 f i toasty.obj
 0001:0012b230       ?_Construct_lv_contents@?$basic_string@DU?$char_traits@D@std@@V?$allocator@D@2@@std@@AEAAXAEBV12@@Z 000000014012c230 f i toasty.obj
 0001:0012b400       ?_Get_first@?$_Compressed_pair@V?$allocator@D@std@@V?$_String_val@U?$_Simple_types@D@std@@@2@$00@std@@QEAAAEAV?$allocator@D@2@XZ 000000014012c400 f i toasty.obj
 0001:0012b410       ?_Get_first@?$_Compressed_pair@V?$allocator@D@std@@V?$_String_val@U?$_Simple_types@D@std@@@2@$00@std@@QEBAAEBV?$allocator@D@2@XZ 000000014012c410 f i toasty.obj
 0001:0012b420       ?_Get_first@?$_Compressed_pair@V?$allocator@I@std@@V?$_Vector_val@U?$_Simple_types@I@std@@@2@$00@std@@QEAAAEAV?$allocator@I@2@XZ 000000014012c420 f i toasty.obj
 0001:0012b430       ?_Get_first@?$_Compressed_pair@V?$allocator@I@std@@V?$_Vector_val@U?$_Simple_types@I@std@@@2@$00@std@@QEBAAEBV?$allocator@I@2@XZ 000000014012c430 f i toasty.obj
 0001:0012b440       ?_Get_first@?$_Compressed_pair@V?$allocator@Umesh@@@std@@V?$_Vector_val@U?$_Simple_types@Umesh@@@std@@@2@$00@std@@QEAAAEAV?$allocator@Umesh@@@2@XZ 000000014012c440 f i toasty.obj
 0001:0012b450       ?_Get_first@?$_Compressed_pair@V?$allocator@Umesh@@@std@@V?$_Vector_val@U?$_Simple_types@Umesh@@@std@@@2@$00@std@@QEBAAEBV?$allocator@Umesh@@@2@XZ 000000014012c450 f i toasty.obj
 0001:0012b460       ?_Get_first@?$_Compressed_pair@V?$allocator@Utexture@@@std@@V?$_Vector_val@U?$_Simple_types@Utexture@@@std@@@2@$00@std@@QEAAAEAV?$allocator@Utexture@@@2@XZ 000000014012c460 f i toasty.obj
 0001:0012b470       ?_Get_first@?$_Compressed_pair@V?$allocator@Utexture@@@std@@V?$_Vector_val@U?$_Simple_types@Utexture@@@std@@@2@$00@std@@QEBAAEBV?$allocator@Utexture@@@2@XZ 000000014012c470 f i toasty.obj
 0001:0012b480       ?_Get_first@?$_Compressed_pair@V?$allocator@Uvertex@@@std@@V?$_Vector_val@U?$_Simple_types@Uvertex@@@std@@@2@$00@std@@QEAAAEAV?$allocator@Uvertex@@@2@XZ 000000014012c480 f i toasty.obj
 0001:0012b490       ?_Get_first@?$_Compressed_pair@V?$allocator@Uvertex@@@std@@V?$_Vector_val@U?$_Simple_types@Uvertex@@@std@@@2@$00@std@@QEBAAEBV?$allocator@Uvertex@@@2@XZ 000000014012c490 f i toasty.obj
 0001:0012b4a0       ?_Getal@?$basic_string@DU?$char_traits@D@std@@V?$allocator@D@2@@std@@AEAAAEAV?$allocator@D@2@XZ 000000014012c4a0 f i toasty.obj
 0001:0012b4d0       ?_Getal@?$basic_string@DU?$char_traits@D@std@@V?$allocator@D@2@@std@@AEBAAEBV?$allocator@D@2@XZ 000000014012c4d0 f i toasty.obj
 0001:0012b500       ?_Getal@?$vector@IV?$allocator@I@std@@@std@@AEAAAEAV?$allocator@I@2@XZ 000000014012c500 f i toasty.obj
 0001:0012b530       ?_Getal@?$vector@IV?$allocator@I@std@@@std@@AEBAAEBV?$allocator@I@2@XZ 000000014012c530 f i toasty.obj
 0001:0012b560       ?_Getal@?$vector@Umesh@@V?$allocator@Umesh@@@std@@@std@@AEAAAEAV?$allocator@Umesh@@@2@XZ 000000014012c560 f i toasty.obj
 0001:0012b590       ?_Getal@?$vector@Umesh@@V?$allocator@Umesh@@@std@@@std@@AEBAAEBV?$allocator@Umesh@@@2@XZ 000000014012c590 f i toasty.obj
 0001:0012b5c0       ?_Getal@?$vector@Utexture@@V?$allocator@Utexture@@@std@@@std@@AEAAAEAV?$allocator@Utexture@@@2@XZ 000000014012c5c0 f i toasty.obj
 0001:0012b5f0       ?_Getal@?$vector@Utexture@@V?$allocator@Utexture@@@std@@@std@@AEBAAEBV?$allocator@Utexture@@@2@XZ 000000014012c5f0 f i toasty.obj
 0001:0012b620       ?_Getal@?$vector@Uvertex@@V?$allocator@Uvertex@@@std@@@std@@AEAAAEAV?$allocator@Uvertex@@@2@XZ 000000014012c620 f i toasty.obj
 0001:0012b650       ?_Getal@?$vector@Uvertex@@V?$allocator@Uvertex@@@std@@@std@@AEBAAEBV?$allocator@Uvertex@@@2@XZ 000000014012c650 f i toasty.obj
 0001:0012b680       ?_Large_string_engaged@?$_String_val@U?$_Simple_types@D@std@@@std@@QEBA_NXZ 000000014012c680 f i toasty.obj
 0001:0012b6c0       ?_Memcpy_val_from@?$basic_string@DU?$char_traits@D@std@@V?$allocator@D@2@@std@@AEAAXAEBV12@@Z 000000014012c6c0 f i toasty.obj
 0001:0012b720       ?_Myptr@?$_String_val@U?$_Simple_types@D@std@@@std@@QEAAPEADXZ 000000014012c720 f i toasty.obj
 0001:0012b770       ?_Myptr@?$_String_val@U?$_Simple_types@D@std@@@std@@QEBAPEBDXZ 000000014012c770 f i toasty.obj
 0001:0012b7c0       ?_Orphan_all@_Container_base0@std@@QEAAXXZ 000000014012c7c0 f i toasty.obj
 0001:0012b7d0       ?_Orphan_range@?$vector@IV?$allocator@I@std@@@std@@AEBAXPEAI0@Z 000000014012c7d0 f i toasty.obj
 0001:0012b7f0       ?_Orphan_range@?$vector@Umesh@@V?$allocator@Umesh@@@std@@@std@@AEBAXPEAUmesh@@0@Z 000000014012c7f0 f i toasty.obj
 0001:0012b810       ?_Orphan_range@?$vector@Utexture@@V?$allocator@Utexture@@@std@@@std@@AEBAXPEAUtexture@@0@Z 000000014012c810 f i toasty.obj
 0001:0012b830       ?_Orphan_range@?$vector@Uvertex@@V?$allocator@Uvertex@@@std@@@std@@AEBAXPEAUvertex@@0@Z 000000014012c830 f i toasty.obj
 0001:0012b850       ?_Release@?$_Uninitialized_backout_al@V?$allocator@I@std@@@std@@QEAAPEAIXZ 000000014012c850 f i toasty.obj
 0001:0012b880       ?_Release@?$_Uninitialized_backout_al@V?$allocator@Umesh@@@std@@@std@@QEAAPEAUmesh@@XZ 000000014012c880 f i toasty.obj
 0001:0012b8b0       ?_Release@?$_Uninitialized_backout_al@V?$allocator@Utexture@@@std@@@std@@QEAAPEAUtexture@@XZ 000000014012c8b0 f i toasty.obj
 0001:0012b8e0       ?_Release@?$_Uninitialized_backout_al@V?$allocator@Uvertex@@@std@@@std@@QEAAPEAUvertex@@XZ 000000014012c8e0 f i toasty.obj
 0001:0012b910       ?_Release@_Fake_proxy_ptr_impl@std@@QEAAXXZ 000000014012c910 f i toasty.obj
 0001:0012b920       ?_Swap_proxy_and_iterators@?$basic_string@DU?$char_traits@D@std@@V?$allocator@D@2@@std@@AEAAXAEAV12@@Z 000000014012c920 f i toasty.obj
 0001:0012b950       ?_Swap_proxy_and_iterators@_Container_base0@std@@QEAAXAEAU12@@Z 000000014012c950 f i toasty.obj
 0001:0012b960       ?_Take_contents@?$basic_string@DU?$char_traits@D@std@@V?$allocator@D@2@@std@@AEAAXAEAV12@@Z 000000014012c960 f i toasty.obj
 0001:0012ba90       ?_Throw_bad_array_new_length@std@@YAXXZ 000000014012ca90 f i toasty.obj
 0001:0012bac0       ?_Tidy@?$vector@IV?$allocator@I@std@@@std@@AEAAXXZ 000000014012cac0 f i toasty.obj
 0001:0012bbc0       ?_Tidy@?$vector@Umesh@@V?$allocator@Umesh@@@std@@@std@@AEAAXXZ 000000014012cbc0 f i toasty.obj
 0001:0012bcd0       ?_Tidy@?$vector@Utexture@@V?$allocator@Utexture@@@std@@@std@@AEAAXXZ 000000014012ccd0 f i toasty.obj
 0001:0012bdd0       ?_Tidy@?$vector@Uvertex@@V?$allocator@Uvertex@@@std@@@std@@AEAAXXZ 000000014012cdd0 f i toasty.obj
 0001:0012bed0       ?_Tidy_deallocate@?$basic_string@DU?$char_traits@D@std@@V?$allocator@D@2@@std@@AEAAXXZ 000000014012ced0 f i toasty.obj
 0001:0012bfc0       ?_Tidy_init@?$basic_string@DU?$char_traits@D@std@@V?$allocator@D@2@@std@@AEAAXXZ 000000014012cfc0 f i toasty.obj
 0001:0012c030       ?_Unchecked_begin@?$vector@Umesh@@V?$allocator@Umesh@@@std@@@std@@QEAAPEAUmesh@@XZ 000000014012d030 f i toasty.obj
 0001:0012c050       ?_Unchecked_begin@?$vector@Utexture@@V?$allocator@Utexture@@@std@@@std@@QEAAPEAUtexture@@XZ 000000014012d050 f i toasty.obj
 0001:0012c070       ?_Unchecked_end@?$vector@Umesh@@V?$allocator@Umesh@@@std@@@std@@QEAAPEAUmesh@@XZ 000000014012d070 f i toasty.obj
 0001:0012c090       ?_Unchecked_end@?$vector@Utexture@@V?$allocator@Utexture@@@std@@@std@@QEAAPEAUtexture@@XZ 000000014012d090 f i toasty.obj
 0001:0012c0b0       ?_Xlen_string@std@@YAXXZ   000000014012d0b0 f i toasty.obj
 0001:0012c0d0       ?_Xlength@?$vector@IV?$allocator@I@std@@@std@@CAXXZ 000000014012d0d0 f i toasty.obj
 0001:0012c0f0       ?_Xlength@?$vector@Umesh@@V?$allocator@Umesh@@@std@@@std@@CAXXZ 000000014012d0f0 f i toasty.obj
 0001:0012c110       ?_Xlength@?$vector@Utexture@@V?$allocator@Utexture@@@std@@@std@@CAXXZ 000000014012d110 f i toasty.obj
 0001:0012c130       ?_Xlength@?$vector@Uvertex@@V?$allocator@Uvertex@@@std@@@std@@CAXXZ 000000014012d130 f i toasty.obj
 0001:0012c150       ?_Xran@?$_String_val@U?$_Simple_types@D@std@@@std@@SAXXZ 000000014012d150 f i toasty.obj
 0001:0012c170       ?_grow_capacity@?$ImVector@D@@QEBAHH@Z 000000014012d170 f i toasty.obj
 0001:0012c1f0       ?_grow_capacity@?$ImVector@E@@QEBAHH@Z 000000014012d1f0 f i toasty.obj
 0001:0012c270       ?_grow_capacity@?$ImVector@G@@QEBAHH@Z 000000014012d270 f i toasty.obj
 0001:0012c2f0       ?_grow_capacity@?$ImVector@H@@QEBAHH@Z 000000014012d2f0 f i toasty.obj
 0001:0012c370       ?_grow_capacity@?$ImVector@I@@QEBAHH@Z 000000014012d370 f i toasty.obj
 0001:0012c3f0       ?_grow_capacity@?$ImVector@M@@QEBAHH@Z 000000014012d3f0 f i toasty.obj
 0001:0012c470       ?_grow_capacity@?$ImVector@PEAD@@QEBAHH@Z 000000014012d470 f i toasty.obj
 0001:0012c4f0       ?_grow_capacity@?$ImVector@PEAUImDrawList@@@@QEBAHH@Z 000000014012d4f0 f i toasty.obj
 0001:0012c570       ?_grow_capacity@?$ImVector@PEAUImFont@@@@QEBAHH@Z 000000014012d570 f i toasty.obj
 0001:0012c5f0       ?_grow_capacity@?$ImVector@PEAUImGuiViewportP@@@@QEBAHH@Z 000000014012d5f0 f i toasty.obj
 0001:0012c670       ?_grow_capacity@?$ImVector@PEAUImGuiWindow@@@@QEBAHH@Z 000000014012d670 f i toasty.obj
 0001:0012c6f0       ?_grow_capacity@?$ImVector@PEAUMyDocument@@@@QEBAHH@Z 000000014012d6f0 f i toasty.obj
 0001:0012c770       ?_grow_capacity@?$ImVector@PEAX@@QEBAHH@Z 000000014012d770 f i toasty.obj
 0001:0012c7f0       ?_grow_capacity@?$ImVector@PEBD@@QEBAHH@Z 000000014012d7f0 f i toasty.obj
 0001:0012c870       ?_grow_capacity@?$ImVector@UImDrawChannel@@@@QEBAHH@Z 000000014012d870 f i toasty.obj
 0001:0012c8f0       ?_grow_capacity@?$ImVector@UImDrawCmd@@@@QEBAHH@Z 000000014012d8f0 f i toasty.obj
 0001:0012c970       ?_grow_capacity@?$ImVector@UImDrawVert@@@@QEBAHH@Z 000000014012d970 f i toasty.obj
 0001:0012c9f0       ?_grow_capacity@?$ImVector@UImFontAtlasCustomRect@@@@QEBAHH@Z 000000014012d9f0 f i toasty.obj
 0001:0012ca70       ?_grow_capacity@?$ImVector@UImFontBuildDstData@@@@QEBAHH@Z 000000014012da70 f i toasty.obj
 0001:0012caf0       ?_grow_capacity@?$ImVector@UImFontBuildSrcData@@@@QEBAHH@Z 000000014012daf0 f i toasty.obj
 0001:0012cb70       ?_grow_capacity@?$ImVector@UImFontConfig@@@@QEBAHH@Z 000000014012db70 f i toasty.obj
 0001:0012cbf0       ?_grow_capacity@?$ImVector@UImFontGlyph@@@@QEBAHH@Z 000000014012dbf0 f i toasty.obj
 0001:0012cc70       ?_grow_capacity@?$ImVector@UImGuiColorMod@@@@QEBAHH@Z 000000014012dc70 f i toasty.obj
 0001:0012ccf0       ?_grow_capacity@?$ImVector@UImGuiContextHook@@@@QEBAHH@Z 000000014012dcf0 f i toasty.obj
 0001:0012cd70       ?_grow_capacity@?$ImVector@UImGuiGroupData@@@@QEBAHH@Z 000000014012dd70 f i toasty.obj
 0001:0012cdf0       ?_grow_capacity@?$ImVector@UImGuiInputEvent@@@@QEBAHH@Z 000000014012ddf0 f i toasty.obj
 0001:0012ce70       ?_grow_capacity@?$ImVector@UImGuiListClipperData@@@@QEBAHH@Z 000000014012de70 f i toasty.obj
 0001:0012cef0       ?_grow_capacity@?$ImVector@UImGuiListClipperRange@@@@QEBAHH@Z 000000014012def0 f i toasty.obj
 0001:0012cf70       ?_grow_capacity@?$ImVector@UImGuiOldColumnData@@@@QEBAHH@Z 000000014012df70 f i toasty.obj
 0001:0012cff0       ?_grow_capacity@?$ImVector@UImGuiOldColumns@@@@QEBAHH@Z 000000014012dff0 f i toasty.obj
 0001:0012d070       ?_grow_capacity@?$ImVector@UImGuiPopupData@@@@QEBAHH@Z 000000014012e070 f i toasty.obj
 0001:0012d0f0       ?_grow_capacity@?$ImVector@UImGuiPtrOrIndex@@@@QEBAHH@Z 000000014012e0f0 f i toasty.obj
 0001:0012d170       ?_grow_capacity@?$ImVector@UImGuiSettingsHandler@@@@QEBAHH@Z 000000014012e170 f i toasty.obj
 0001:0012d1f0       ?_grow_capacity@?$ImVector@UImGuiShrinkWidthItem@@@@QEBAHH@Z 000000014012e1f0 f i toasty.obj
 0001:0012d270       ?_grow_capacity@?$ImVector@UImGuiStackLevelInfo@@@@QEBAHH@Z 000000014012e270 f i toasty.obj
 0001:0012d2f0       ?_grow_capacity@?$ImVector@UImGuiStoragePair@ImGuiStorage@@@@QEBAHH@Z 000000014012e2f0 f i toasty.obj
 0001:0012d370       ?_grow_capacity@?$ImVector@UImGuiStyleMod@@@@QEBAHH@Z 000000014012e370 f i toasty.obj
 0001:0012d3f0       ?_grow_capacity@?$ImVector@UImGuiTabBar@@@@QEBAHH@Z 000000014012e3f0 f i toasty.obj
 0001:0012d470       ?_grow_capacity@?$ImVector@UImGuiTabItem@@@@QEBAHH@Z 000000014012e470 f i toasty.obj
 0001:0012d4f0       ?_grow_capacity@?$ImVector@UImGuiTable@@@@QEBAHH@Z 000000014012e4f0 f i toasty.obj
 0001:0012d570       ?_grow_capacity@?$ImVector@UImGuiTableColumnSortSpecs@@@@QEBAHH@Z 000000014012e570 f i toasty.obj
 0001:0012d5f0       ?_grow_capacity@?$ImVector@UImGuiTableInstanceData@@@@QEBAHH@Z 000000014012e5f0 f i toasty.obj
 0001:0012d670       ?_grow_capacity@?$ImVector@UImGuiTableTempData@@@@QEBAHH@Z 000000014012e670 f i toasty.obj
 0001:0012d6f0       ?_grow_capacity@?$ImVector@UImGuiTextRange@ImGuiTextFilter@@@@QEBAHH@Z 000000014012e6f0 f i toasty.obj
 0001:0012d770       ?_grow_capacity@?$ImVector@UImGuiWindowStackData@@@@QEBAHH@Z 000000014012e770 f i toasty.obj
 0001:0012d7f0       ?_grow_capacity@?$ImVector@UImVec2@@@@QEBAHH@Z 000000014012e7f0 f i toasty.obj
 0001:0012d870       ?_grow_capacity@?$ImVector@UImVec4@@@@QEBAHH@Z 000000014012e870 f i toasty.obj
 0001:0012d8f0       ?_grow_capacity@?$ImVector@UMyDocument@@@@QEBAHH@Z 000000014012e8f0 f i toasty.obj
 0001:0012d970       ?_grow_capacity@?$ImVector@Ustbrp_rect@@@@QEBAHH@Z 000000014012e970 f i toasty.obj
 0001:0012d9f0       ?_grow_capacity@?$ImVector@Ustbtt_packedchar@@@@QEBAHH@Z 000000014012e9f0 f i toasty.obj
 0001:0012da70       ?alloc_chunk@?$ImChunkStream@UImGuiTableSettings@@@@QEAAPEAUImGuiTableSettings@@_K@Z 000000014012ea70 f i toasty.obj
 0001:0012db30       ?alloc_chunk@?$ImChunkStream@UImGuiWindowSettings@@@@QEAAPEAUImGuiWindowSettings@@_K@Z 000000014012eb30 f i toasty.obj
 0001:0012dbf0       ?allocate@?$allocator@D@std@@QEAAPEAD_K@Z 000000014012ebf0 f i toasty.obj
 0001:0012dc20       ?allocate@?$allocator@I@std@@QEAAPEAI_K@Z 000000014012ec20 f i toasty.obj
 0001:0012dc50       ?allocate@?$allocator@Umesh@@@std@@QEAAPEAUmesh@@_K@Z 000000014012ec50 f i toasty.obj
 0001:0012dc80       ?allocate@?$allocator@Utexture@@@std@@QEAAPEAUtexture@@_K@Z 000000014012ec80 f i toasty.obj
 0001:0012dcb0       ?allocate@?$allocator@Uvertex@@@std@@QEAAPEAUvertex@@_K@Z 000000014012ecb0 f i toasty.obj
 0001:0012dce0       ?append@?$basic_string@DU?$char_traits@D@std@@V?$allocator@D@2@@std@@QEAAAEAV12@QEBD@Z 000000014012ece0 f i toasty.obj
 0001:0012dd30       ?append@?$basic_string@DU?$char_traits@D@std@@V?$allocator@D@2@@std@@QEAAAEAV12@QEBD_K@Z 000000014012ed30 f i toasty.obj
 0001:0012de70       ?assign@?$_Narrow_char_traits@DH@std@@SAXAEADAEBD@Z 000000014012ee70 f i toasty.obj
 0001:0012de90       ?assign@?$basic_string@DU?$char_traits@D@std@@V?$allocator@D@2@@std@@QEAAAEAV12@AEBV12@_K_K@Z 000000014012ee90 f i toasty.obj
 0001:0012df20       ?assign@?$basic_string@DU?$char_traits@D@std@@V?$allocator@D@2@@std@@QEAAAEAV12@QEBD@Z 000000014012ef20 f i toasty.obj
 0001:0012df70       ?assign@?$basic_string@DU?$char_traits@D@std@@V?$allocator@D@2@@std@@QEAAAEAV12@QEBD_K@Z 000000014012ef70 f i toasty.obj
 0001:0012e050       ?back@?$ImVector@D@@QEBAAEBDXZ 000000014012f050 f i toasty.obj
 0001:0012e0c0       ?back@?$ImVector@H@@QEAAAEAHXZ 000000014012f0c0 f i toasty.obj
 0001:0012e120       ?back@?$ImVector@I@@QEAAAEAIXZ 000000014012f120 f i toasty.obj
 0001:0012e180       ?back@?$ImVector@M@@QEAAAEAMXZ 000000014012f180 f i toasty.obj
 0001:0012e1e0       ?back@?$ImVector@PEAUImFont@@@@QEAAAEAPEAUImFont@@XZ 000000014012f1e0 f i toasty.obj
 0001:0012e240       ?back@?$ImVector@PEAUImGuiWindow@@@@QEAAAEAPEAUImGuiWindow@@XZ 000000014012f240 f i toasty.obj
 0001:0012e2a0       ?back@?$ImVector@UImDrawCmd@@@@QEAAAEAUImDrawCmd@@XZ 000000014012f2a0 f i toasty.obj
 0001:0012e300       ?back@?$ImVector@UImDrawCmd@@@@QEBAAEBUImDrawCmd@@XZ 000000014012f300 f i toasty.obj
 0001:0012e360       ?back@?$ImVector@UImFontConfig@@@@QEAAAEAUImFontConfig@@XZ 000000014012f360 f i toasty.obj
 0001:0012e3d0       ?back@?$ImVector@UImFontGlyph@@@@QEAAAEAUImFontGlyph@@XZ 000000014012f3d0 f i toasty.obj
 0001:0012e430       ?back@?$ImVector@UImGuiColorMod@@@@QEAAAEAUImGuiColorMod@@XZ 000000014012f430 f i toasty.obj
 0001:0012e490       ?back@?$ImVector@UImGuiContextHook@@@@QEAAAEAUImGuiContextHook@@XZ 000000014012f490 f i toasty.obj
 0001:0012e4f0       ?back@?$ImVector@UImGuiGroupData@@@@QEAAAEAUImGuiGroupData@@XZ 000000014012f4f0 f i toasty.obj
 0001:0012e550       ?back@?$ImVector@UImGuiOldColumns@@@@QEAAAEAUImGuiOldColumns@@XZ 000000014012f550 f i toasty.obj
 0001:0012e5c0       ?back@?$ImVector@UImGuiPopupData@@@@QEAAAEAUImGuiPopupData@@XZ 000000014012f5c0 f i toasty.obj
 0001:0012e620       ?back@?$ImVector@UImGuiPtrOrIndex@@@@QEAAAEAUImGuiPtrOrIndex@@XZ 000000014012f620 f i toasty.obj
 0001:0012e680       ?back@?$ImVector@UImGuiStyleMod@@@@QEAAAEAUImGuiStyleMod@@XZ 000000014012f680 f i toasty.obj
 0001:0012e6e0       ?back@?$ImVector@UImGuiTabItem@@@@QEAAAEAUImGuiTabItem@@XZ 000000014012f6e0 f i toasty.obj
 0001:0012e740       ?back@?$ImVector@UImGuiWindowStackData@@@@QEAAAEAUImGuiWindowStackData@@XZ 000000014012f740 f i toasty.obj
 0001:0012e7a0       ?back@?$ImVector@UImVec2@@@@QEAAAEAUImVec2@@XZ 000000014012f7a0 f i toasty.obj
 0001:0012e800       ?back@?$ImVector@UImVec4@@@@QEAAAEAUImVec4@@XZ 000000014012f800 f i toasty.obj
 0001:0012e860       ?begin@?$ImChunkStream@UImGuiTableSettings@@@@QEAAPEAUImGuiTableSettings@@XZ 000000014012f860 f i toasty.obj
 0001:0012e8a0       ?begin@?$ImChunkStream@UImGuiWindowSettings@@@@QEAAPEAUImGuiWindowSettings@@XZ 000000014012f8a0 f i toasty.obj
 0001:0012e8e0       ?begin@?$ImVector@D@@QEAAPEADXZ 000000014012f8e0 f i toasty.obj
 0001:0012e900       ?begin@?$ImVector@I@@QEBAPEBIXZ 000000014012f900 f i toasty.obj
 0001:0012e920       ?begin@?$ImVector@PEAD@@QEAAPEAPEADXZ 000000014012f920 f i toasty.obj
 0001:0012e940       ?begin@?$ImVector@UImDrawCmd@@@@QEBAPEBUImDrawCmd@@XZ 000000014012f940 f i toasty.obj
 0001:0012e960       ?begin@ImGuiTextBuffer@@QEBAPEBDXZ 000000014012f960 f i toasty.obj
 0001:0012e9b0       ?c_str@?$basic_string@DU?$char_traits@D@std@@V?$allocator@D@2@@std@@QEBAPEBDXZ 000000014012f9b0 f i toasty.obj
 0001:0012e9e0       ?c_str@ImGuiTextBuffer@@QEBAPEBDXZ 000000014012f9e0 f i toasty.obj
 0001:0012ea30       ?call@?$compute_abs@M$00@detail@glm@@SAMM@Z 000000014012fa30 f i toasty.obj
 0001:0012ea90       ?call@?$compute_cross@M$0A@$0A@@detail@glm@@SA?AU?$vec@$02M$0A@@3@AEBU43@0@Z 000000014012fa90 f i toasty.obj
 0001:0012eb80       ?call@?$compute_dot@U?$vec@$02M$0A@@glm@@M$0A@@detail@glm@@SAMAEBU?$vec@$02M$0A@@3@0@Z 000000014012fb80 f i toasty.obj
 0001:0012ebd0       ?call@?$compute_normalize@$02M$0A@$0A@@detail@glm@@SA?AU?$vec@$02M$0A@@3@AEBU43@@Z 000000014012fbd0 f i toasty.obj
 0001:0012ec20       ?call@?$compute_vec4_mul@M$0A@$0A@@detail@glm@@SA?AU?$vec@$03M$0A@@3@AEBU43@0@Z 000000014012fc20 f i toasty.obj
 0001:0012ecd0       ?capacity@?$ImVector@D@@QEBAHXZ 000000014012fcd0 f i toasty.obj
 0001:0012ecf0       ?capacity@?$vector@IV?$allocator@I@std@@@std@@QEBA_KXZ 000000014012fcf0 f i toasty.obj
 0001:0012ed30       ?capacity@?$vector@Umesh@@V?$allocator@Umesh@@@std@@@std@@QEBA_KXZ 000000014012fd30 f i toasty.obj
 0001:0012ed70       ?capacity@?$vector@Utexture@@V?$allocator@Utexture@@@std@@@std@@QEBA_KXZ 000000014012fd70 f i toasty.obj
 0001:0012edb0       ?capacity@?$vector@Uvertex@@V?$allocator@Uvertex@@@std@@@std@@QEBA_KXZ 000000014012fdb0 f i toasty.obj
 0001:0012edf0       ?chunk_size@?$ImChunkStream@UImGuiTableSettings@@@@QEAAHPEBUImGuiTableSettings@@@Z 000000014012fdf0 f i toasty.obj
 0001:0012ee20       ?chunk_size@?$ImChunkStream@UImGuiWindowSettings@@@@QEAAHPEBUImGuiWindowSettings@@@Z 000000014012fe20 f i toasty.obj
 0001:0012ee50       ?clear@?$ImChunkStream@UImGuiTableSettings@@@@QEAAXXZ 000000014012fe50 f i toasty.obj
 0001:0012ee80       ?clear@?$ImChunkStream@UImGuiWindowSettings@@@@QEAAXXZ 000000014012fe80 f i toasty.obj
 0001:0012eeb0       ?clear@?$ImVector@D@@QEAAXXZ 000000014012feb0 f i toasty.obj
 0001:0012ef10       ?clear@?$ImVector@E@@QEAAXXZ 000000014012ff10 f i toasty.obj
 0001:0012ef70       ?clear@?$ImVector@G@@QEAAXXZ 000000014012ff70 f i toasty.obj
 0001:0012efd0       ?clear@?$ImVector@H@@QEAAXXZ 000000014012ffd0 f i toasty.obj
 0001:0012f030       ?clear@?$ImVector@I@@QEAAXXZ 0000000140130030 f i toasty.obj
 0001:0012f090       ?clear@?$ImVector@M@@QEAAXXZ 0000000140130090 f i toasty.obj
 0001:0012f0f0       ?clear@?$ImVector@PEAD@@QEAAXXZ 00000001401300f0 f i toasty.obj
 0001:0012f150       ?clear@?$ImVector@PEAUImFont@@@@QEAAXXZ 0000000140130150 f i toasty.obj
 0001:0012f1b0       ?clear@?$ImVector@PEAUImGuiViewportP@@@@QEAAXXZ 00000001401301b0 f i toasty.obj
 0001:0012f210       ?clear@?$ImVector@PEAUImGuiWindow@@@@QEAAXXZ 0000000140130210 f i toasty.obj
 0001:0012f270       ?clear@?$ImVector@PEAUMyDocument@@@@QEAAXXZ 0000000140130270 f i toasty.obj
 0001:0012f2d0       ?clear@?$ImVector@PEAX@@QEAAXXZ 00000001401302d0 f i toasty.obj
 0001:0012f330       ?clear@?$ImVector@UImDrawChannel@@@@QEAAXXZ 0000000140130330 f i toasty.obj
 0001:0012f390       ?clear@?$ImVector@UImDrawCmd@@@@QEAAXXZ 0000000140130390 f i toasty.obj
 0001:0012f3f0       ?clear@?$ImVector@UImDrawVert@@@@QEAAXXZ 00000001401303f0 f i toasty.obj
 0001:0012f450       ?clear@?$ImVector@UImFontAtlasCustomRect@@@@QEAAXXZ 0000000140130450 f i toasty.obj
 0001:0012f4b0       ?clear@?$ImVector@UImFontBuildDstData@@@@QEAAXXZ 00000001401304b0 f i toasty.obj
 0001:0012f510       ?clear@?$ImVector@UImFontBuildSrcData@@@@QEAAXXZ 0000000140130510 f i toasty.obj
 0001:0012f570       ?clear@?$ImVector@UImFontConfig@@@@QEAAXXZ 0000000140130570 f i toasty.obj
 0001:0012f5d0       ?clear@?$ImVector@UImFontGlyph@@@@QEAAXXZ 00000001401305d0 f i toasty.obj
 0001:0012f630       ?clear@?$ImVector@UImGuiColorMod@@@@QEAAXXZ 0000000140130630 f i toasty.obj
 0001:0012f690       ?clear@?$ImVector@UImGuiGroupData@@@@QEAAXXZ 0000000140130690 f i toasty.obj
 0001:0012f6f0       ?clear@?$ImVector@UImGuiListClipperData@@@@QEAAXXZ 00000001401306f0 f i toasty.obj
 0001:0012f750       ?clear@?$ImVector@UImGuiOldColumns@@@@QEAAXXZ 0000000140130750 f i toasty.obj
 0001:0012f7b0       ?clear@?$ImVector@UImGuiPopupData@@@@QEAAXXZ 00000001401307b0 f i toasty.obj
 0001:0012f810       ?clear@?$ImVector@UImGuiPtrOrIndex@@@@QEAAXXZ 0000000140130810 f i toasty.obj
 0001:0012f870       ?clear@?$ImVector@UImGuiSettingsHandler@@@@QEAAXXZ 0000000140130870 f i toasty.obj
 0001:0012f8d0       ?clear@?$ImVector@UImGuiShrinkWidthItem@@@@QEAAXXZ 00000001401308d0 f i toasty.obj
 0001:0012f930       ?clear@?$ImVector@UImGuiStoragePair@ImGuiStorage@@@@QEAAXXZ 0000000140130930 f i toasty.obj
 0001:0012f990       ?clear@?$ImVector@UImGuiStyleMod@@@@QEAAXXZ 0000000140130990 f i toasty.obj
 0001:0012f9f0       ?clear@?$ImVector@UImGuiTabBar@@@@QEAAXXZ 00000001401309f0 f i toasty.obj
 0001:0012fa50       ?clear@?$ImVector@UImGuiTable@@@@QEAAXXZ 0000000140130a50 f i toasty.obj
 0001:0012fab0       ?clear@?$ImVector@UImGuiTableColumnSortSpecs@@@@QEAAXXZ 0000000140130ab0 f i toasty.obj
 0001:0012fb10       ?clear@?$ImVector@UImGuiTableTempData@@@@QEAAXXZ 0000000140130b10 f i toasty.obj
 0001:0012fb70       ?clear@?$ImVector@UImGuiWindowStackData@@@@QEAAXXZ 0000000140130b70 f i toasty.obj
 0001:0012fbd0       ?clear@?$ImVector@UImVec2@@@@QEAAXXZ 0000000140130bd0 f i toasty.obj
 0001:0012fc30       ?clear@?$ImVector@UImVec4@@@@QEAAXXZ 0000000140130c30 f i toasty.obj
 0001:0012fc90       ?clear@?$ImVector@Ustbrp_rect@@@@QEAAXXZ 0000000140130c90 f i toasty.obj
 0001:0012fcf0       ?clear@ImGuiTextBuffer@@QEAAXXZ 0000000140130cf0 f i toasty.obj
 0001:0012fd20       ?clear_delete@?$ImVector@PEAUImFont@@@@QEAAXXZ 0000000140130d20 f i toasty.obj
 0001:0012fd90       ?clear_delete@?$ImVector@PEAUImGuiViewportP@@@@QEAAXXZ 0000000140130d90 f i toasty.obj
 0001:0012fe00       ?clear_delete@?$ImVector@PEAUImGuiWindow@@@@QEAAXXZ 0000000140130e00 f i toasty.obj
 0001:0012fe70       ?clear_destruct@?$ImVector@UImFontBuildSrcData@@@@QEAAXXZ 0000000140130e70 f i toasty.obj
 0001:0012fee0       ?clear_destruct@?$ImVector@UImGuiListClipperData@@@@QEAAXXZ 0000000140130ee0 f i toasty.obj
 0001:0012ff50       ?clear_destruct@?$ImVector@UImGuiOldColumns@@@@QEAAXXZ 0000000140130f50 f i toasty.obj
 0001:0012ffc0       ?clear_destruct@?$ImVector@UImGuiTableTempData@@@@QEAAXXZ 0000000140130fc0 f i toasty.obj
 0001:00130030       ?contains@?$ImVector@H@@QEBA_NAEBH@Z 0000000140131030 f i toasty.obj
 0001:001300d0       ?contains@?$ImVector@I@@QEBA_NAEBI@Z 00000001401310d0 f i toasty.obj
 0001:00130170       ?contains@?$ImVector@PEAUImGuiWindow@@@@QEBA_NAEBQEAUImGuiWindow@@@Z 0000000140131170 f i toasty.obj
 0001:00130210       ?copy@?$_Char_traits@DH@std@@SAPEADQEADQEBD_K@Z 0000000140131210 f i toasty.obj
 0001:00130250       ?cos@@YAMM@Z               0000000140131250 f i toasty.obj
 0001:00130280       ?deallocate@?$allocator@D@std@@QEAAXQEAD_K@Z 0000000140131280 f i toasty.obj
 0001:001302b0       ?deallocate@?$allocator@I@std@@QEAAXQEAI_K@Z 00000001401312b0 f i toasty.obj
 0001:001302f0       ?deallocate@?$allocator@Umesh@@@std@@QEAAXQEAUmesh@@_K@Z 00000001401312f0 f i toasty.obj
 0001:00130330       ?deallocate@?$allocator@Utexture@@@std@@QEAAXQEAUtexture@@_K@Z 0000000140131330 f i toasty.obj
 0001:00130370       ?deallocate@?$allocator@Uvertex@@@std@@QEAAXQEAUvertex@@_K@Z 0000000140131370 f i toasty.obj
 0001:001303b0       ?empty@?$ImChunkStream@UImGuiWindowSettings@@@@QEBA_NXZ 00000001401313b0 f i toasty.obj
 0001:001303f0       ?empty@?$ImVector@D@@QEBA_NXZ 00000001401313f0 f i toasty.obj
 0001:00130430       ?empty@?$ImVector@G@@QEBA_NXZ 0000000140131430 f i toasty.obj
 0001:00130470       ?empty@?$ImVector@I@@QEBA_NXZ 0000000140131470 f i toasty.obj
 0001:001304b0       ?empty@?$ImVector@M@@QEBA_NXZ 00000001401314b0 f i toasty.obj
 0001:001304f0       ?empty@?$ImVector@PEAUImDrawList@@@@QEBA_NXZ 00000001401314f0 f i toasty.obj
 0001:00130530       ?empty@?$ImVector@PEAUImFont@@@@QEBA_NXZ 0000000140131530 f i toasty.obj
 0001:00130570       ?empty@?$ImVector@PEAUMyDocument@@@@QEBA_NXZ 0000000140131570 f i toasty.obj
 0001:001305b0       ?empty@?$ImVector@UImFontGlyph@@@@QEBA_NXZ 00000001401315b0 f i toasty.obj
 0001:001305f0       ?empty@?$ImVector@UImGuiPtrOrIndex@@@@QEBA_NXZ 00000001401315f0 f i toasty.obj
 0001:00130630       ?empty@?$ImVector@UImGuiTextRange@ImGuiTextFilter@@@@QEBA_NXZ 0000000140131630 f i toasty.obj
 0001:00130670       ?empty@?$ImVector@UImGuiWindowStackData@@@@QEBA_NXZ 0000000140131670 f i toasty.obj
 0001:001306b0       ?empty@ImGuiTextBuffer@@QEBA_NXZ 00000001401316b0 f i toasty.obj
 0001:001306f0       ?empty@ImGuiTextRange@ImGuiTextFilter@@QEBA_NXZ 00000001401316f0 f i toasty.obj
 0001:00130740       ?end@?$ImChunkStream@UImGuiTableSettings@@@@QEAAPEAUImGuiTableSettings@@XZ 0000000140131740 f i toasty.obj
 0001:00130760       ?end@?$ImChunkStream@UImGuiWindowSettings@@@@QEAAPEAUImGuiWindowSettings@@XZ 0000000140131760 f i toasty.obj
 0001:00130780       ?end@?$ImVector@I@@QEBAPEBIXZ 0000000140131780 f i toasty.obj
 0001:001307b0       ?end@?$ImVector@UImGuiStoragePair@ImGuiStorage@@@@QEAAPEAUImGuiStoragePair@ImGuiStorage@@XZ 00000001401317b0 f i toasty.obj
 0001:001307e0       ?end@?$ImVector@UImGuiStoragePair@ImGuiStorage@@@@QEBAPEBUImGuiStoragePair@ImGuiStorage@@XZ 00000001401317e0 f i toasty.obj
 0001:00130810       ?end@ImGuiTextBuffer@@QEBAPEBDXZ 0000000140131810 f i toasty.obj
 0001:00130860       ?epsilon@?$numeric_limits@M@std@@SAMXZ 0000000140131860 f i toasty.obj
 0001:00130870       ?eq@?$_Narrow_char_traits@DH@std@@SA_NAEBD0@Z 0000000140131870 f i toasty.obj
 0001:001308c0       ?erase@?$ImVector@H@@QEAAPEAHPEBH@Z 00000001401318c0 f i toasty.obj
 0001:001309f0       ?erase@?$ImVector@PEAD@@QEAAPEAPEADPEBQEAD@Z 00000001401319f0 f i toasty.obj
 0001:00130b20       ?erase@?$ImVector@PEAUImGuiWindow@@@@QEAAPEAPEAUImGuiWindow@@PEBQEAU2@@Z 0000000140131b20 f i toasty.obj
 0001:00130c50       ?erase@?$ImVector@UImDrawCmd@@@@QEAAPEAUImDrawCmd@@PEBU2@@Z 0000000140131c50 f i toasty.obj
 0001:00130d80       ?erase@?$ImVector@UImGuiContextHook@@@@QEAAPEAUImGuiContextHook@@PEBU2@@Z 0000000140131d80 f i toasty.obj
 0001:00130ea0       ?erase@?$ImVector@UImGuiInputEvent@@@@QEAAPEAUImGuiInputEvent@@PEBU2@0@Z 0000000140131ea0 f i toasty.obj
 0001:00131040       ?erase@?$ImVector@UImGuiListClipperRange@@@@QEAAPEAUImGuiListClipperRange@@PEBU2@@Z 0000000140132040 f i toasty.obj
 0001:00131170       ?erase@?$ImVector@UImGuiSettingsHandler@@@@QEAAPEAUImGuiSettingsHandler@@PEBU2@@Z 0000000140132170 f i toasty.obj
 0001:001312a0       ?erase@?$ImVector@UImGuiTabItem@@@@QEAAPEAUImGuiTabItem@@PEBU2@@Z 00000001401322a0 f i toasty.obj
 0001:001313d0       ?erase_unsorted@?$ImVector@H@@QEAAPEAHPEBH@Z 00000001401323d0 f i toasty.obj
 0001:00131500       ?find@?$ImVector@H@@QEAAPEAHAEBH@Z 0000000140132500 f i toasty.obj
 0001:00131590       ?find@?$ImVector@PEAUImGuiWindow@@@@QEAAPEAPEAUImGuiWindow@@AEBQEAU2@@Z 0000000140132590 f i toasty.obj
 0001:00131620       ?find_erase_unsorted@?$ImVector@H@@QEAA_NAEBH@Z 0000000140132620 f i toasty.obj
 0001:00131690       ?find_last_of@?$basic_string@DU?$char_traits@D@std@@V?$allocator@D@2@@std@@QEBA_KD_K@Z 0000000140132690 f i toasty.obj
 0001:001316e0       ?front@?$ImVector@D@@QEBAAEBDXZ 00000001401326e0 f i toasty.obj
 0001:00131740       ?get_allocator@?$basic_string@DU?$char_traits@D@std@@V?$allocator@D@2@@std@@QEBA?AV?$allocator@D@2@XZ 0000000140132740 f i toasty.obj
 0001:00131770       ?index_from_ptr@?$ImSpan@UImGuiTableColumn@@@@QEBAHPEBUImGuiTableColumn@@@Z 0000000140132770 f i toasty.obj
 0001:00131810       ?index_from_ptr@?$ImVector@PEAUImGuiWindow@@@@QEBAHPEBQEAUImGuiWindow@@@Z 0000000140132810 f i toasty.obj
 0001:001318b0       ?index_from_ptr@?$ImVector@UImGuiTabItem@@@@QEBAHPEBUImGuiTabItem@@@Z 00000001401328b0 f i toasty.obj
 0001:00131960       ?insert@?$ImVector@PEAUImGuiWindow@@@@QEAAPEAPEAUImGuiWindow@@PEBQEAU2@AEBQEAU2@@Z 0000000140132960 f i toasty.obj
 0001:00131b10       ?insert@?$ImVector@UImDrawCmd@@@@QEAAPEAUImDrawCmd@@PEBU2@AEBU2@@Z 0000000140132b10 f i toasty.obj
 0001:00131cc0       ?insert@?$ImVector@UImGuiListClipperRange@@@@QEAAPEAUImGuiListClipperRange@@PEBU2@AEBU2@@Z 0000000140132cc0 f i toasty.obj
 0001:00131e70       ?insert@?$ImVector@UImGuiStoragePair@ImGuiStorage@@@@QEAAPEAUImGuiStoragePair@ImGuiStorage@@PEBU23@AEBU23@@Z 0000000140132e70 f i toasty.obj
 0001:00132010       ?ldexp@@YAMMH@Z            0000000140133010 f i toasty.obj
 0001:00132040       ?length@?$_Narrow_char_traits@DH@std@@SA_KQEBD@Z 0000000140133040 f i toasty.obj
 0001:00132060       ?length@?$mat@$03$03M$0A@@glm@@SAHXZ 0000000140133060 f i toasty.obj
 0001:00132070       ?length@?$vec@$02M$0A@@glm@@SAHXZ 0000000140133070 f i toasty.obj
 0001:00132080       ?length@?$vec@$03M$0A@@glm@@SAHXZ 0000000140133080 f i toasty.obj
 0001:00132090       ?max@?$numeric_limits@_J@std@@SA_JXZ 0000000140133090 f i toasty.obj
 0001:001320a0       ?max_size@?$_Default_allocator_traits@V?$allocator@D@std@@@std@@SA_KAEBV?$allocator@D@2@@Z 00000001401330a0 f i toasty.obj
 0001:001320b0       ?max_size@?$_Default_allocator_traits@V?$allocator@I@std@@@std@@SA_KAEBV?$allocator@I@2@@Z 00000001401330b0 f i toasty.obj
 0001:001320d0       ?max_size@?$_Default_allocator_traits@V?$allocator@Umesh@@@std@@@std@@SA_KAEBV?$allocator@Umesh@@@2@@Z 00000001401330d0 f i toasty.obj
 0001:001320f0       ?max_size@?$_Default_allocator_traits@V?$allocator@Utexture@@@std@@@std@@SA_KAEBV?$allocator@Utexture@@@2@@Z 00000001401330f0 f i toasty.obj
 0001:00132110       ?max_size@?$_Default_allocator_traits@V?$allocator@Uvertex@@@std@@@std@@SA_KAEBV?$allocator@Uvertex@@@2@@Z 0000000140133110 f i toasty.obj
 0001:00132130       ?max_size@?$basic_string@DU?$char_traits@D@std@@V?$allocator@D@2@@std@@QEBA_KXZ 0000000140133130 f i toasty.obj
 0001:001321c0       ?max_size@?$vector@IV?$allocator@I@std@@@std@@QEBA_KXZ 00000001401331c0 f i toasty.obj
 0001:00132220       ?max_size@?$vector@Umesh@@V?$allocator@Umesh@@@std@@@std@@QEBA_KXZ 0000000140133220 f i toasty.obj
 0001:00132280       ?max_size@?$vector@Utexture@@V?$allocator@Utexture@@@std@@@std@@QEBA_KXZ 0000000140133280 f i toasty.obj
 0001:001322e0       ?max_size@?$vector@Uvertex@@V?$allocator@Uvertex@@@std@@@std@@QEBA_KXZ 00000001401332e0 f i toasty.obj
 0001:00132340       ?memchr@@YAPEAXPEAXH_K@Z   0000000140133340 f i toasty.obj
 0001:00132390       ?move@?$_Char_traits@DH@std@@SAPEADQEADQEBD_K@Z 0000000140133390 f i toasty.obj
 0001:001323d0       ?next_chunk@?$ImChunkStream@UImGuiTableSettings@@@@QEAAPEAUImGuiTableSettings@@PEAU2@@Z 00000001401333d0 f i toasty.obj
 0001:001324d0       ?next_chunk@?$ImChunkStream@UImGuiWindowSettings@@@@QEAAPEAUImGuiWindowSettings@@PEAU2@@Z 00000001401334d0 f i toasty.obj
 0001:001325d0       ?offset_from_ptr@?$ImChunkStream@UImGuiTableSettings@@@@QEAAHPEBUImGuiTableSettings@@@Z 00000001401335d0 f i toasty.obj
 0001:00132660       ?offset_from_ptr@?$ImChunkStream@UImGuiWindowSettings@@@@QEAAHPEBUImGuiWindowSettings@@@Z 0000000140133660 f i toasty.obj
 0001:001326f0       ?pop_back@?$ImVector@H@@QEAAXXZ 00000001401336f0 f i toasty.obj
 0001:00132750       ?pop_back@?$ImVector@I@@QEAAXXZ 0000000140133750 f i toasty.obj
 0001:001327b0       ?pop_back@?$ImVector@M@@QEAAXXZ 00000001401337b0 f i toasty.obj
 0001:00132810       ?pop_back@?$ImVector@PEAUImFont@@@@QEAAXXZ 0000000140133810 f i toasty.obj
 0001:00132870       ?pop_back@?$ImVector@PEAX@@QEAAXXZ 0000000140133870 f i toasty.obj
 0001:001328d0       ?pop_back@?$ImVector@UImDrawCmd@@@@QEAAXXZ 00000001401338d0 f i toasty.obj
 0001:00132930       ?pop_back@?$ImVector@UImGuiColorMod@@@@QEAAXXZ 0000000140133930 f i toasty.obj
 0001:00132990       ?pop_back@?$ImVector@UImGuiGroupData@@@@QEAAXXZ 0000000140133990 f i toasty.obj
 0001:001329f0       ?pop_back@?$ImVector@UImGuiPopupData@@@@QEAAXXZ 00000001401339f0 f i toasty.obj
 0001:00132a50       ?pop_back@?$ImVector@UImGuiPtrOrIndex@@@@QEAAXXZ 0000000140133a50 f i toasty.obj
 0001:00132ab0       ?pop_back@?$ImVector@UImGuiStyleMod@@@@QEAAXXZ 0000000140133ab0 f i toasty.obj
 0001:00132b10       ?pop_back@?$ImVector@UImGuiWindowStackData@@@@QEAAXXZ 0000000140133b10 f i toasty.obj
 0001:00132b70       ?pop_back@?$ImVector@UImVec4@@@@QEAAXXZ 0000000140133b70 f i toasty.obj
 0001:00132bd0       ?pow@@YAMMM@Z              0000000140133bd0 f i toasty.obj
 0001:00132c00       ?ptr_from_offset@?$ImChunkStream@UImGuiTableSettings@@@@QEAAPEAUImGuiTableSettings@@H@Z 0000000140133c00 f i toasty.obj
 0001:00132c70       ?ptr_from_offset@?$ImChunkStream@UImGuiWindowSettings@@@@QEAAPEAUImGuiWindowSettings@@H@Z 0000000140133c70 f i toasty.obj
 0001:00132ce0       ?push_back@?$ImVector@D@@QEAAXAEBD@Z 0000000140133ce0 f i toasty.obj
 0001:00132d80       ?push_back@?$ImVector@G@@QEAAXAEBG@Z 0000000140133d80 f i toasty.obj
 0001:00132e20       ?push_back@?$ImVector@H@@QEAAXAEBH@Z 0000000140133e20 f i toasty.obj
 0001:00132ec0       ?push_back@?$ImVector@I@@QEAAXAEBI@Z 0000000140133ec0 f i toasty.obj
 0001:00132f60       ?push_back@?$ImVector@M@@QEAAXAEBM@Z 0000000140133f60 f i toasty.obj
 0001:00133000       ?push_back@?$ImVector@PEAD@@QEAAXAEBQEAD@Z 0000000140134000 f i toasty.obj
 0001:001330a0       ?push_back@?$ImVector@PEAUImDrawList@@@@QEAAXAEBQEAUImDrawList@@@Z 00000001401340a0 f i toasty.obj
 0001:00133140       ?push_back@?$ImVector@PEAUImFont@@@@QEAAXAEBQEAUImFont@@@Z 0000000140134140 f i toasty.obj
 0001:001331e0       ?push_back@?$ImVector@PEAUImGuiViewportP@@@@QEAAXAEBQEAUImGuiViewportP@@@Z 00000001401341e0 f i toasty.obj
 0001:00133280       ?push_back@?$ImVector@PEAUImGuiWindow@@@@QEAAXAEBQEAUImGuiWindow@@@Z 0000000140134280 f i toasty.obj
 0001:00133320       ?push_back@?$ImVector@PEAUMyDocument@@@@QEAAXAEBQEAUMyDocument@@@Z 0000000140134320 f i toasty.obj
 0001:001333c0       ?push_back@?$ImVector@PEAX@@QEAAXAEBQEAX@Z 00000001401343c0 f i toasty.obj
 0001:00133460       ?push_back@?$ImVector@PEBD@@QEAAXAEBQEBD@Z 0000000140134460 f i toasty.obj
 0001:00133500       ?push_back@?$ImVector@UImDrawCmd@@@@QEAAXAEBUImDrawCmd@@@Z 0000000140134500 f i toasty.obj
 0001:001335a0       ?push_back@?$ImVector@UImFontAtlasCustomRect@@@@QEAAXAEBUImFontAtlasCustomRect@@@Z 00000001401345a0 f i toasty.obj
 0001:00133640       ?push_back@?$ImVector@UImFontConfig@@@@QEAAXAEBUImFontConfig@@@Z 0000000140134640 f i toasty.obj
 0001:001336e0       ?push_back@?$ImVector@UImGuiColorMod@@@@QEAAXAEBUImGuiColorMod@@@Z 00000001401346e0 f i toasty.obj
 0001:00133780       ?push_back@?$ImVector@UImGuiContextHook@@@@QEAAXAEBUImGuiContextHook@@@Z 0000000140134780 f i toasty.obj
 0001:00133820       ?push_back@?$ImVector@UImGuiInputEvent@@@@QEAAXAEBUImGuiInputEvent@@@Z 0000000140134820 f i toasty.obj
 0001:001338c0       ?push_back@?$ImVector@UImGuiListClipperRange@@@@QEAAXAEBUImGuiListClipperRange@@@Z 00000001401348c0 f i toasty.obj
 0001:00133960       ?push_back@?$ImVector@UImGuiOldColumnData@@@@QEAAXAEBUImGuiOldColumnData@@@Z 0000000140134960 f i toasty.obj
 0001:00133a00       ?push_back@?$ImVector@UImGuiOldColumns@@@@QEAAXAEBUImGuiOldColumns@@@Z 0000000140134a00 f i toasty.obj
 0001:00133aa0       ?push_back@?$ImVector@UImGuiPopupData@@@@QEAAXAEBUImGuiPopupData@@@Z 0000000140134aa0 f i toasty.obj
 0001:00133b40       ?push_back@?$ImVector@UImGuiPtrOrIndex@@@@QEAAXAEBUImGuiPtrOrIndex@@@Z 0000000140134b40 f i toasty.obj
 0001:00133be0       ?push_back@?$ImVector@UImGuiSettingsHandler@@@@QEAAXAEBUImGuiSettingsHandler@@@Z 0000000140134be0 f i toasty.obj
 0001:00133c80       ?push_back@?$ImVector@UImGuiStyleMod@@@@QEAAXAEBUImGuiStyleMod@@@Z 0000000140134c80 f i toasty.obj
 0001:00133d20       ?push_back@?$ImVector@UImGuiTabItem@@@@QEAAXAEBUImGuiTabItem@@@Z 0000000140134d20 f i toasty.obj
 0001:00133dc0       ?push_back@?$ImVector@UImGuiTableInstanceData@@@@QEAAXAEBUImGuiTableInstanceData@@@Z 0000000140134dc0 f i toasty.obj
 0001:00133e60       ?push_back@?$ImVector@UImGuiTextRange@ImGuiTextFilter@@@@QEAAXAEBUImGuiTextRange@ImGuiTextFilter@@@Z 0000000140134e60 f i toasty.obj
 0001:00133f00       ?push_back@?$ImVector@UImGuiWindowStackData@@@@QEAAXAEBUImGuiWindowStackData@@@Z 0000000140134f00 f i toasty.obj
 0001:00133fa0       ?push_back@?$ImVector@UImVec2@@@@QEAAXAEBUImVec2@@@Z 0000000140134fa0 f i toasty.obj
 0001:00134040       ?push_back@?$ImVector@UImVec4@@@@QEAAXAEBUImVec4@@@Z 0000000140135040 f i toasty.obj
 0001:001340e0       ?push_back@?$ImVector@UMyDocument@@@@QEAAXAEBUMyDocument@@@Z 00000001401350e0 f i toasty.obj
 0001:00134180       ?push_back@?$vector@IV?$allocator@I@std@@@std@@QEAAXAEBI@Z 0000000140135180 f i toasty.obj
 0001:001341b0       ?push_back@?$vector@Umesh@@V?$allocator@Umesh@@@std@@@std@@QEAAXAEBUmesh@@@Z 00000001401351b0 f i toasty.obj
 0001:001341e0       ?push_back@?$vector@Utexture@@V?$allocator@Utexture@@@std@@@std@@QEAAXAEBUtexture@@@Z 00000001401351e0 f i toasty.obj
 0001:00134210       ?push_back@?$vector@Uvertex@@V?$allocator@Uvertex@@@std@@@std@@QEAAXAEBUvertex@@@Z 0000000140135210 f i toasty.obj
 0001:00134240       ?push_front@?$ImVector@PEAUImGuiWindow@@@@QEAAXAEBQEAUImGuiWindow@@@Z 0000000140135240 f i toasty.obj
 0001:001342a0       ?push_front@?$ImVector@UImDrawCmd@@@@QEAAXAEBUImDrawCmd@@@Z 00000001401352a0 f i toasty.obj
 0001:00134300       ?push_front@?$ImVector@UImGuiListClipperRange@@@@QEAAXAEBUImGuiListClipperRange@@@Z 0000000140135300 f i toasty.obj
 0001:00134360       ?reserve@?$ImVector@D@@QEAAXH@Z 0000000140135360 f i toasty.obj
 0001:00134410       ?reserve@?$ImVector@E@@QEAAXH@Z 0000000140135410 f i toasty.obj
 0001:001344c0       ?reserve@?$ImVector@G@@QEAAXH@Z 00000001401354c0 f i toasty.obj
 0001:00134570       ?reserve@?$ImVector@H@@QEAAXH@Z 0000000140135570 f i toasty.obj
 0001:00134630       ?reserve@?$ImVector@I@@QEAAXH@Z 0000000140135630 f i toasty.obj
 0001:001346f0       ?reserve@?$ImVector@M@@QEAAXH@Z 00000001401356f0 f i toasty.obj
 0001:001347b0       ?reserve@?$ImVector@PEAD@@QEAAXH@Z 00000001401357b0 f i toasty.obj
 0001:00134870       ?reserve@?$ImVector@PEAUImDrawList@@@@QEAAXH@Z 0000000140135870 f i toasty.obj
 0001:00134930       ?reserve@?$ImVector@PEAUImFont@@@@QEAAXH@Z 0000000140135930 f i toasty.obj
 0001:001349f0       ?reserve@?$ImVector@PEAUImGuiViewportP@@@@QEAAXH@Z 00000001401359f0 f i toasty.obj
 0001:00134ab0       ?reserve@?$ImVector@PEAUImGuiWindow@@@@QEAAXH@Z 0000000140135ab0 f i toasty.obj
 0001:00134b70       ?reserve@?$ImVector@PEAUMyDocument@@@@QEAAXH@Z 0000000140135b70 f i toasty.obj
 0001:00134c30       ?reserve@?$ImVector@PEAX@@QEAAXH@Z 0000000140135c30 f i toasty.obj
 0001:00134cf0       ?reserve@?$ImVector@PEBD@@QEAAXH@Z 0000000140135cf0 f i toasty.obj
 0001:00134db0       ?reserve@?$ImVector@UImDrawChannel@@@@QEAAXH@Z 0000000140135db0 f i toasty.obj
 0001:00134e70       ?reserve@?$ImVector@UImDrawCmd@@@@QEAAXH@Z 0000000140135e70 f i toasty.obj
 0001:00134f30       ?reserve@?$ImVector@UImDrawVert@@@@QEAAXH@Z 0000000140135f30 f i toasty.obj
 0001:00134ff0       ?reserve@?$ImVector@UImFontAtlasCustomRect@@@@QEAAXH@Z 0000000140135ff0 f i toasty.obj
 0001:001350b0       ?reserve@?$ImVector@UImFontBuildDstData@@@@QEAAXH@Z 00000001401360b0 f i toasty.obj
 0001:00135170       ?reserve@?$ImVector@UImFontBuildSrcData@@@@QEAAXH@Z 0000000140136170 f i toasty.obj
 0001:00135230       ?reserve@?$ImVector@UImFontConfig@@@@QEAAXH@Z 0000000140136230 f i toasty.obj
 0001:001352f0       ?reserve@?$ImVector@UImFontGlyph@@@@QEAAXH@Z 00000001401362f0 f i toasty.obj
 0001:001353b0       ?reserve@?$ImVector@UImGuiColorMod@@@@QEAAXH@Z 00000001401363b0 f i toasty.obj
 0001:00135470       ?reserve@?$ImVector@UImGuiContextHook@@@@QEAAXH@Z 0000000140136470 f i toasty.obj
 0001:00135530       ?reserve@?$ImVector@UImGuiGroupData@@@@QEAAXH@Z 0000000140136530 f i toasty.obj
 0001:001355f0       ?reserve@?$ImVector@UImGuiInputEvent@@@@QEAAXH@Z 00000001401365f0 f i toasty.obj
 0001:001356b0       ?reserve@?$ImVector@UImGuiListClipperData@@@@QEAAXH@Z 00000001401366b0 f i toasty.obj
 0001:00135770       ?reserve@?$ImVector@UImGuiListClipperRange@@@@QEAAXH@Z 0000000140136770 f i toasty.obj
 0001:00135830       ?reserve@?$ImVector@UImGuiOldColumnData@@@@QEAAXH@Z 0000000140136830 f i toasty.obj
 0001:001358f0       ?reserve@?$ImVector@UImGuiOldColumns@@@@QEAAXH@Z 00000001401368f0 f i toasty.obj
 0001:001359b0       ?reserve@?$ImVector@UImGuiPopupData@@@@QEAAXH@Z 00000001401369b0 f i toasty.obj
 0001:00135a70       ?reserve@?$ImVector@UImGuiPtrOrIndex@@@@QEAAXH@Z 0000000140136a70 f i toasty.obj
 0001:00135b30       ?reserve@?$ImVector@UImGuiSettingsHandler@@@@QEAAXH@Z 0000000140136b30 f i toasty.obj
 0001:00135bf0       ?reserve@?$ImVector@UImGuiShrinkWidthItem@@@@QEAAXH@Z 0000000140136bf0 f i toasty.obj
 0001:00135cb0       ?reserve@?$ImVector@UImGuiStackLevelInfo@@@@QEAAXH@Z 0000000140136cb0 f i toasty.obj
 0001:00135d70       ?reserve@?$ImVector@UImGuiStoragePair@ImGuiStorage@@@@QEAAXH@Z 0000000140136d70 f i toasty.obj
 0001:00135e30       ?reserve@?$ImVector@UImGuiStyleMod@@@@QEAAXH@Z 0000000140136e30 f i toasty.obj
 0001:00135ef0       ?reserve@?$ImVector@UImGuiTabBar@@@@QEAAXH@Z 0000000140136ef0 f i toasty.obj
 0001:00135fb0       ?reserve@?$ImVector@UImGuiTabItem@@@@QEAAXH@Z 0000000140136fb0 f i toasty.obj
 0001:00136070       ?reserve@?$ImVector@UImGuiTable@@@@QEAAXH@Z 0000000140137070 f i toasty.obj
 0001:00136130       ?reserve@?$ImVector@UImGuiTableColumnSortSpecs@@@@QEAAXH@Z 0000000140137130 f i toasty.obj
 0001:001361f0       ?reserve@?$ImVector@UImGuiTableInstanceData@@@@QEAAXH@Z 00000001401371f0 f i toasty.obj
 0001:001362b0       ?reserve@?$ImVector@UImGuiTableTempData@@@@QEAAXH@Z 00000001401372b0 f i toasty.obj
 0001:00136370       ?reserve@?$ImVector@UImGuiTextRange@ImGuiTextFilter@@@@QEAAXH@Z 0000000140137370 f i toasty.obj
 0001:00136430       ?reserve@?$ImVector@UImGuiWindowStackData@@@@QEAAXH@Z 0000000140137430 f i toasty.obj
 0001:001364f0       ?reserve@?$ImVector@UImVec2@@@@QEAAXH@Z 00000001401374f0 f i toasty.obj
 0001:001365b0       ?reserve@?$ImVector@UImVec4@@@@QEAAXH@Z 00000001401375b0 f i toasty.obj
 0001:00136670       ?reserve@?$ImVector@UMyDocument@@@@QEAAXH@Z 0000000140137670 f i toasty.obj
 0001:00136730       ?reserve@?$ImVector@Ustbrp_rect@@@@QEAAXH@Z 0000000140137730 f i toasty.obj
 0001:001367f0       ?reserve@?$ImVector@Ustbtt_packedchar@@@@QEAAXH@Z 00000001401377f0 f i toasty.obj
 0001:001368b0       ?reserve@ImGuiTextBuffer@@QEAAXH@Z 00000001401378b0 f i toasty.obj
 0001:001368e0       ?resize@?$ImVector@D@@QEAAXH@Z 00000001401378e0 f i toasty.obj
 0001:00136940       ?resize@?$ImVector@E@@QEAAXH@Z 0000000140137940 f i toasty.obj
 0001:001369a0       ?resize@?$ImVector@G@@QEAAXH@Z 00000001401379a0 f i toasty.obj
 0001:00136a00       ?resize@?$ImVector@G@@QEAAXHAEBG@Z 0000000140137a00 f i toasty.obj
 0001:00136ad0       ?resize@?$ImVector@H@@QEAAXH@Z 0000000140137ad0 f i toasty.obj
 0001:00136b30       ?resize@?$ImVector@I@@QEAAXH@Z 0000000140137b30 f i toasty.obj
 0001:00136b90       ?resize@?$ImVector@M@@QEAAXH@Z 0000000140137b90 f i toasty.obj
 0001:00136bf0       ?resize@?$ImVector@M@@QEAAXHAEBM@Z 0000000140137bf0 f i toasty.obj
 0001:00136cc0       ?resize@?$ImVector@PEAUImDrawList@@@@QEAAXH@Z 0000000140137cc0 f i toasty.obj
 0001:00136d20       ?resize@?$ImVector@PEAUImGuiWindow@@@@QEAAXH@Z 0000000140137d20 f i toasty.obj
 0001:00136d80       ?resize@?$ImVector@PEAX@@QEAAXH@Z 0000000140137d80 f i toasty.obj
 0001:00136de0       ?resize@?$ImVector@UImDrawChannel@@@@QEAAXH@Z 0000000140137de0 f i toasty.obj
 0001:00136e40       ?resize@?$ImVector@UImDrawCmd@@@@QEAAXH@Z 0000000140137e40 f i toasty.obj
 0001:00136ea0       ?resize@?$ImVector@UImDrawVert@@@@QEAAXH@Z 0000000140137ea0 f i toasty.obj
 0001:00136f00       ?resize@?$ImVector@UImFontBuildDstData@@@@QEAAXH@Z 0000000140137f00 f i toasty.obj
 0001:00136f60       ?resize@?$ImVector@UImFontBuildSrcData@@@@QEAAXH@Z 0000000140137f60 f i toasty.obj
 0001:00136fc0       ?resize@?$ImVector@UImFontGlyph@@@@QEAAXH@Z 0000000140137fc0 f i toasty.obj
 0001:00137020       ?resize@?$ImVector@UImGuiGroupData@@@@QEAAXH@Z 0000000140138020 f i toasty.obj
 0001:00137080       ?resize@?$ImVector@UImGuiInputEvent@@@@QEAAXH@Z 0000000140138080 f i toasty.obj
 0001:001370e0       ?resize@?$ImVector@UImGuiListClipperData@@@@QEAAXHAEBUImGuiListClipperData@@@Z 00000001401380e0 f i toasty.obj
 0001:001371b0       ?resize@?$ImVector@UImGuiListClipperRange@@@@QEAAXH@Z 00000001401381b0 f i toasty.obj
 0001:00137210       ?resize@?$ImVector@UImGuiOldColumnData@@@@QEAAXH@Z 0000000140138210 f i toasty.obj
 0001:00137270       ?resize@?$ImVector@UImGuiPopupData@@@@QEAAXH@Z 0000000140138270 f i toasty.obj
 0001:001372d0       ?resize@?$ImVector@UImGuiShrinkWidthItem@@@@QEAAXH@Z 00000001401382d0 f i toasty.obj
 0001:00137330       ?resize@?$ImVector@UImGuiStackLevelInfo@@@@QEAAXH@Z 0000000140138330 f i toasty.obj
 0001:00137390       ?resize@?$ImVector@UImGuiStackLevelInfo@@@@QEAAXHAEBUImGuiStackLevelInfo@@@Z 0000000140138390 f i toasty.obj
 0001:00137460       ?resize@?$ImVector@UImGuiTabBar@@@@QEAAXH@Z 0000000140138460 f i toasty.obj
 0001:001374c0       ?resize@?$ImVector@UImGuiTabItem@@@@QEAAXH@Z 00000001401384c0 f i toasty.obj
 0001:00137520       ?resize@?$ImVector@UImGuiTable@@@@QEAAXH@Z 0000000140138520 f i toasty.obj
 0001:00137580       ?resize@?$ImVector@UImGuiTableColumnSortSpecs@@@@QEAAXH@Z 0000000140138580 f i toasty.obj
 0001:001375e0       ?resize@?$ImVector@UImGuiTableTempData@@@@QEAAXHAEBUImGuiTableTempData@@@Z 00000001401385e0 f i toasty.obj
 0001:001376b0       ?resize@?$ImVector@UImGuiTextRange@ImGuiTextFilter@@@@QEAAXH@Z 00000001401386b0 f i toasty.obj
 0001:00137710       ?resize@?$ImVector@UImGuiWindowStackData@@@@QEAAXH@Z 0000000140138710 f i toasty.obj
 0001:00137770       ?resize@?$ImVector@UImVec2@@@@QEAAXH@Z 0000000140138770 f i toasty.obj
 0001:001377d0       ?resize@?$ImVector@UImVec4@@@@QEAAXH@Z 00000001401387d0 f i toasty.obj
 0001:00137830       ?resize@?$ImVector@Ustbrp_rect@@@@QEAAXH@Z 0000000140138830 f i toasty.obj
 0001:00137890       ?resize@?$ImVector@Ustbtt_packedchar@@@@QEAAXH@Z 0000000140138890 f i toasty.obj
 0001:001378f0       ?select_on_container_copy_construction@?$_Default_allocator_traits@V?$allocator@D@std@@@std@@SA?AV?$allocator@D@2@AEBV32@@Z 00000001401388f0 f i toasty.obj
 0001:00137910       ?select_on_container_copy_construction@?$_Default_allocator_traits@V?$allocator@I@std@@@std@@SA?AV?$allocator@I@2@AEBV32@@Z 0000000140138910 f i toasty.obj
 0001:00137930       ?select_on_container_copy_construction@?$_Default_allocator_traits@V?$allocator@Utexture@@@std@@@std@@SA?AV?$allocator@Utexture@@@2@AEBV32@@Z 0000000140138930 f i toasty.obj
 0001:00137950       ?select_on_container_copy_construction@?$_Default_allocator_traits@V?$allocator@Uvertex@@@std@@@std@@SA?AV?$allocator@Uvertex@@@2@AEBV32@@Z 0000000140138950 f i toasty.obj
 0001:00137970       ?set@?$ImSpan@C@@QEAAXPEAC0@Z 0000000140138970 f i toasty.obj
 0001:001379b0       ?set@?$ImSpan@UImGuiTableCellData@@@@QEAAXPEAUImGuiTableCellData@@0@Z 00000001401389b0 f i toasty.obj
 0001:001379f0       ?set@?$ImSpan@UImGuiTableColumn@@@@QEAAXPEAUImGuiTableColumn@@0@Z 00000001401389f0 f i toasty.obj
 0001:00137a30       ?shrink@?$ImVector@G@@QEAAXH@Z 0000000140138a30 f i toasty.obj
 0001:00137a90       ?shrink@?$ImVector@UImDrawVert@@@@QEAAXH@Z 0000000140138a90 f i toasty.obj
 0001:00137af0       ?sin@@YAMM@Z               0000000140138af0 f i toasty.obj
 0001:00137b20       ?size@?$ImChunkStream@UImGuiTableSettings@@@@QEBAHXZ 0000000140138b20 f i toasty.obj
 0001:00137b30       ?size@?$ImChunkStream@UImGuiWindowSettings@@@@QEBAHXZ 0000000140138b30 f i toasty.obj
 0001:00137b40       ?size@?$ImSpan@UImGuiTableColumn@@@@QEBAHXZ 0000000140138b40 f i toasty.obj
 0001:00137b70       ?size@?$ImVector@D@@QEBAHXZ 0000000140138b70 f i toasty.obj
 0001:00137b80       ?size@?$ImVector@UImVec2@@@@QEBAHXZ 0000000140138b80 f i toasty.obj
 0001:00137b90       ?size@?$basic_string@DU?$char_traits@D@std@@V?$allocator@D@2@@std@@QEBA_KXZ 0000000140138b90 f i toasty.obj
 0001:00137bb0       ?size@?$vector@IV?$allocator@I@std@@@std@@QEBA_KXZ 0000000140138bb0 f i toasty.obj
 0001:00137bf0       ?size@?$vector@Uvertex@@V?$allocator@Uvertex@@@std@@@std@@QEBA_KXZ 0000000140138bf0 f i toasty.obj
 0001:00137c30       ?size@ImGuiTextBuffer@@QEBAHXZ 0000000140138c30 f i toasty.obj
 0001:00137c70       ?size_in_bytes@?$ImVector@UImFontBuildDstData@@@@QEBAHXZ 0000000140138c70 f i toasty.obj
 0001:00137c90       ?size_in_bytes@?$ImVector@UImFontBuildSrcData@@@@QEBAHXZ 0000000140138c90 f i toasty.obj
 0001:00137cb0       ?size_in_bytes@?$ImVector@UImGuiStoragePair@ImGuiStorage@@@@QEBAHXZ 0000000140138cb0 f i toasty.obj
 0001:00137cd0       ?size_in_bytes@?$ImVector@Ustbrp_rect@@@@QEBAHXZ 0000000140138cd0 f i toasty.obj
 0001:00137cf0       ?size_in_bytes@?$ImVector@Ustbtt_packedchar@@@@QEBAHXZ 0000000140138cf0 f i toasty.obj
 0001:00137d10       ?sqrt@@YAMM@Z              0000000140138d10 f i toasty.obj
 0001:00137d40       ?substr@?$basic_string@DU?$char_traits@D@std@@V?$allocator@D@2@@std@@QEBA?AV12@_K0@Z 0000000140138d40 f i toasty.obj
 0001:00137dc0       ?swap@?$ImChunkStream@UImGuiTableSettings@@@@QEAAXAEAU1@@Z 0000000140138dc0 f i toasty.obj
 0001:00137df0       ?swap@?$ImVector@D@@QEAAXAEAU1@@Z 0000000140138df0 f i toasty.obj
 0001:00137ea0       ?swap@?$ImVector@PEAUImGuiWindow@@@@QEAAXAEAU1@@Z 0000000140138ea0 f i toasty.obj
 0001:00137f50       ?swap@?$ImVector@UImDrawVert@@@@QEAAXAEAU1@@Z 0000000140138f50 f i toasty.obj
 0001:00138000       ?tan@@YAMM@Z               0000000140139000 f i toasty.obj
 0001:00138030       ?what@exception@std@@UEBAPEBDXZ 0000000140139030 f i toasty.obj
 0001:00138080       __local_stdio_printf_options 0000000140139080 f i toasty.obj
 0001:00138090       __local_stdio_scanf_options 0000000140139090 f i toasty.obj
 0001:001380a0       _snprintf                  00000001401390a0 f i toasty.obj
 0001:00138110       _vfprintf_l                0000000140139110 f i toasty.obj
 0001:00138170       _vsnprintf                 0000000140139170 f i toasty.obj
 0001:001381c0       _vsnprintf_l               00000001401391c0 f i toasty.obj
 0001:00138260       _vsprintf_l                0000000140139260 f i toasty.obj
 0001:001382c0       _vsscanf_l                 00000001401392c0 f i toasty.obj
 0001:00138330       _vsscanf_s_l               0000000140139330 f i toasty.obj
 0001:001383a0       aiGetMaterialFloat         00000001401393a0 f i toasty.obj
 0001:00138400       aiGetMaterialInteger       0000000140139400 f i toasty.obj
 0001:00138460       fabsf                      0000000140139460 f i toasty.obj
 0001:00138490       fprintf                    0000000140139490 f i toasty.obj
 0001:00138500       ldexpf                     0000000140139500 f i toasty.obj
 0001:00138530       printf                     0000000140139530 f i toasty.obj
 0001:001385a0       sprintf                    00000001401395a0 f i toasty.obj
 0001:00138610       sscanf                     0000000140139610 f i toasty.obj
 0001:00138680       sscanf_s                   0000000140139680 f i toasty.obj
 0001:001386e0       vsscanf_s                  00000001401396e0 f i toasty.obj
 0001:0013871a       SDL_free                   000000014013971a f   SDL2:SDL2.dll
 0001:00138720       SDL_RWFromFile             0000000140139720 f   SDL2:SDL2.dll
 0001:00138726       SDL_RWsize                 0000000140139726 f   SDL2:SDL2.dll
 0001:0013872c       SDL_RWread                 000000014013972c f   SDL2:SDL2.dll
 0001:00138732       SDL_RWclose                0000000140139732 f   SDL2:SDL2.dll
 0001:00138738       SDL_SetClipboardText       0000000140139738 f   SDL2:SDL2.dll
 0001:0013873e       SDL_GetClipboardText       000000014013973e f   SDL2:SDL2.dll
 0001:00138744       SDL_GetCurrentVideoDriver  0000000140139744 f   SDL2:SDL2.dll
 0001:0013874a       SDL_CreateWindow           000000014013974a f   SDL2:SDL2.dll
 0001:00138750       SDL_GetWindowFlags         0000000140139750 f   SDL2:SDL2.dll
 0001:00138756       SDL_GetWindowPosition      0000000140139756 f   SDL2:SDL2.dll
 0001:0013875c       SDL_GetWindowSize          000000014013975c f   SDL2:SDL2.dll
 0001:00138762       SDL_DestroyWindow          0000000140139762 f   SDL2:SDL2.dll
 0001:00138768       SDL_GL_SetAttribute        0000000140139768 f   SDL2:SDL2.dll
 0001:0013876e       SDL_GL_CreateContext       000000014013976e f   SDL2:SDL2.dll
 0001:00138774       SDL_GL_MakeCurrent         0000000140139774 f   SDL2:SDL2.dll
 0001:0013877a       SDL_GL_GetDrawableSize     000000014013977a f   SDL2:SDL2.dll
 0001:00138780       SDL_GL_SetSwapInterval     0000000140139780 f   SDL2:SDL2.dll
 0001:00138786       SDL_GL_SwapWindow          0000000140139786 f   SDL2:SDL2.dll
 0001:0013878c       SDL_GL_DeleteContext       000000014013978c f   SDL2:SDL2.dll
 0001:00138792       SDL_GetKeyboardFocus       0000000140139792 f   SDL2:SDL2.dll
 0001:00138798       SDL_GetKeyboardState       0000000140139798 f   SDL2:SDL2.dll
 0001:0013879e       SDL_GetModState            000000014013979e f   SDL2:SDL2.dll
 0001:001387a4       SDL_GetMouseState          00000001401397a4 f   SDL2:SDL2.dll
 0001:001387aa       SDL_GetGlobalMouseState    00000001401397aa f   SDL2:SDL2.dll
 0001:001387b0       SDL_GetRelativeMouseState  00000001401397b0 f   SDL2:SDL2.dll
 0001:001387b6       SDL_WarpMouseInWindow      00000001401397b6 f   SDL2:SDL2.dll
 0001:001387bc       SDL_SetRelativeMouseMode   00000001401397bc f   SDL2:SDL2.dll
 0001:001387c2       SDL_CaptureMouse           00000001401397c2 f   SDL2:SDL2.dll
 0001:001387c8       SDL_CreateSystemCursor     00000001401397c8 f   SDL2:SDL2.dll
 0001:001387ce       SDL_SetCursor              00000001401397ce f   SDL2:SDL2.dll
 0001:001387d4       SDL_FreeCursor             00000001401397d4 f   SDL2:SDL2.dll
 0001:001387da       SDL_ShowCursor             00000001401397da f   SDL2:SDL2.dll
 0001:001387e0       SDL_GameControllerOpen     00000001401397e0 f   SDL2:SDL2.dll
 0001:001387e6       SDL_GameControllerGetAxis  00000001401397e6 f   SDL2:SDL2.dll
 0001:001387ec       SDL_GameControllerGetButton 00000001401397ec f   SDL2:SDL2.dll
 0001:001387f2       SDL_PollEvent              00000001401397f2 f   SDL2:SDL2.dll
 0001:001387f8       SDL_SetHint                00000001401397f8 f   SDL2:SDL2.dll
 0001:001387fe       SDL_GetRendererOutputSize  00000001401397fe f   SDL2:SDL2.dll
 0001:00138804       SDL_GetPerformanceCounter  0000000140139804 f   SDL2:SDL2.dll
 0001:0013880a       SDL_GetPerformanceFrequency 000000014013980a f   SDL2:SDL2.dll
 0001:00138810       SDL_Init                   0000000140139810 f   SDL2:SDL2.dll
 0001:00138816       SDL_Quit                   0000000140139816 f   SDL2:SDL2.dll
 0001:0013881c       SDL_GetWindowWMInfo        000000014013981c f   SDL2:SDL2.dll
 0001:00138822       ??0Importer@Assimp@@QEAA@XZ 0000000140139822 f   assimp-vc142-mt:assimp-vc142-mt.dll
 0001:00138828       ??1Importer@Assimp@@QEAA@XZ 0000000140139828 f   assimp-vc142-mt:assimp-vc142-mt.dll
 0001:0013882e       ?ReadFile@Importer@Assimp@@QEAAPEBUaiScene@@PEBDI@Z 000000014013982e f   assimp-vc142-mt:assimp-vc142-mt.dll
 0001:00138834       ?GetErrorString@Importer@Assimp@@QEBAPEBDXZ 0000000140139834 f   assimp-vc142-mt:assimp-vc142-mt.dll
 0001:0013883a       aiGetMaterialFloatArray    000000014013983a f   assimp-vc142-mt:assimp-vc142-mt.dll
 0001:00138840       aiGetMaterialIntegerArray  0000000140139840 f   assimp-vc142-mt:assimp-vc142-mt.dll
 0001:00138846       aiGetMaterialColor         0000000140139846 f   assimp-vc142-mt:assimp-vc142-mt.dll
 0001:0013884c       aiGetMaterialString        000000014013984c f   assimp-vc142-mt:assimp-vc142-mt.dll
 0001:00138852       aiGetMaterialTexture       0000000140139852 f   assimp-vc142-mt:assimp-vc142-mt.dll
 0001:00138858       ?_Xlength_error@std@@YAXPEBD@Z 0000000140139858 f   msvcprt:MSVCP140.dll
 0001:0013885e       ?_Xout_of_range@std@@YAXPEBD@Z 000000014013985e f   msvcprt:MSVCP140.dll
 0001:00138864       OpenClipboard              0000000140139864 f   user32:USER32.dll
 0001:0013886a       CloseClipboard             000000014013986a f   user32:USER32.dll
 0001:00138870       SetClipboardData           0000000140139870 f   user32:USER32.dll
 0001:00138876       GetClipboardData           0000000140139876 f   user32:USER32.dll
 0001:0013887c       EmptyClipboard             000000014013987c f   user32:USER32.dll
 0001:00138882       FreeLibrary                0000000140139882 f   kernel32:KERNEL32.dll
 0001:00138888       GetProcAddress             0000000140139888 f   kernel32:KERNEL32.dll
 0001:0013888e       LoadLibraryW               000000014013988e f   kernel32:KERNEL32.dll
 0001:00138894       GlobalAlloc                0000000140139894 f   kernel32:KERNEL32.dll
 0001:0013889a       GlobalUnlock               000000014013989a f   kernel32:KERNEL32.dll
 0001:001388a0       GlobalLock                 00000001401398a0 f   kernel32:KERNEL32.dll
 0001:001388a6       GlobalFree                 00000001401398a6 f   kernel32:KERNEL32.dll
 0001:001388ac       MultiByteToWideChar        00000001401398ac f   kernel32:KERNEL32.dll
 0001:001388b2       WideCharToMultiByte        00000001401398b2 f   kernel32:KERNEL32.dll
 0001:001388b8       ImmGetContext              00000001401398b8 f   imm32:IMM32.dll
 0001:001388be       ImmReleaseContext          00000001401398be f   imm32:IMM32.dll
 0001:001388c4       ImmAssociateContextEx      00000001401398c4 f   imm32:IMM32.dll
 0001:001388ca       ImmSetCompositionWindow    00000001401398ca f   imm32:IMM32.dll
 0001:001388d0       ImmSetCandidateWindow      00000001401398d0 f   imm32:IMM32.dll
 0001:001388d8       ??_L@YAXPEAX_K1P6AX0@Z2@Z  00000001401398d8 f   MSVCRT:ehvecctr.obj
 0001:00138964       ??_L@YAXPEAX_KHP6AX0@Z2@Z  0000000140139964 f   MSVCRT:ehvecctr.obj
 0001:00138970       ??_M@YAXPEAX_K1P6AX0@Z@Z   0000000140139970 f   MSVCRT:ehvecdtr.obj
 0001:001389f8       ??_M@YAXPEAX_KHP6AX0@Z@Z   00000001401399f8 f   MSVCRT:ehvecdtr.obj
 0001:00138a54       ?__ArrayUnwind@@YAXPEAX_K1P6AX0@Z@Z 0000000140139a54 f   MSVCRT:ehvecdtr.obj
 0001:00138ad0       ??2@YAPEAX_K@Z             0000000140139ad0 f   MSVCRT:new_scalar.obj
 0001:00138b1c       ??3@YAXPEAX_K@Z            0000000140139b1c f   MSVCRT:delete_scalar_size.obj
 0001:00138b24       ??_U@YAPEAX_K@Z            0000000140139b24 f   MSVCRT:new_array.obj
 0001:00138b2c       ??_V@YAXPEAX@Z             0000000140139b2c f   MSVCRT:delete_array.obj
 0001:00138b34       ?configure_argv@__scrt_narrow_argv_policy@@SAHXZ 0000000140139b34 f i MSVCRT:utility.obj
 0001:00138bac       ?initialize_environment@__scrt_narrow_environment_policy@@SAHXZ 0000000140139bac f i MSVCRT:utility.obj
 0001:00138bf0       NtCurrentTeb               0000000140139bf0 f i MSVCRT:utility.obj
 0001:00138bfc       __scrt_acquire_startup_lock 0000000140139bfc f   MSVCRT:utility.obj
 0001:00138c44       __scrt_dllmain_after_initialize_c 0000000140139c44 f   MSVCRT:utility.obj
 0001:00138c88       __scrt_dllmain_before_initialize_c 0000000140139c88 f   MSVCRT:utility.obj
 0001:00138ca4       __scrt_dllmain_crt_thread_attach 0000000140139ca4 f   MSVCRT:utility.obj
 0001:00138cd8       __scrt_dllmain_crt_thread_detach 0000000140139cd8 f   MSVCRT:utility.obj
 0001:00138cf4       __scrt_dllmain_exception_filter 0000000140139cf4 f   MSVCRT:utility.obj
 0001:00138d6c       __scrt_dllmain_uninitialize_c 0000000140139d6c f   MSVCRT:utility.obj
 0001:00138da8       __scrt_dllmain_uninitialize_critical 0000000140139da8 f   MSVCRT:utility.obj
 0001:00138dc4       __scrt_initialize_crt      0000000140139dc4 f   MSVCRT:utility.obj
 0001:00138e20       __scrt_initialize_onexit_tables 0000000140139e20 f   MSVCRT:utility.obj
 0001:00138ed0       __scrt_is_nonwritable_in_current_image 0000000140139ed0 f   MSVCRT:utility.obj
 0001:00138f90       __scrt_release_startup_lock 0000000140139f90 f   MSVCRT:utility.obj
 0001:00138fc0       __scrt_uninitialize_crt    0000000140139fc0 f   MSVCRT:utility.obj
 0001:00138ff4       _onexit                    0000000140139ff4 f   MSVCRT:utility.obj
 0001:0013903c       at_quick_exit              000000014013a03c f   MSVCRT:utility.obj
 0001:00139060       atexit                     000000014013a060 f   MSVCRT:utility.obj
 0001:0013907c       __raise_securityfailure    000000014013a07c f   MSVCRT:gs_report.obj
 0001:001390c0       __report_gsfailure         000000014013a0c0 f   MSVCRT:gs_report.obj
 0001:001391c8       __report_rangecheckfailure 000000014013a1c8 f   MSVCRT:gs_report.obj
 0001:001391e0       __report_securityfailure   000000014013a1e0 f   MSVCRT:gs_report.obj
 0001:001392a4       __report_securityfailureEx 000000014013a2a4 f   MSVCRT:gs_report.obj
 0001:0013972c       _Init_thread_abort         000000014013a72c f   MSVCRT:thread_safe_statics.obj
 0001:00139768       _Init_thread_footer        000000014013a768 f   MSVCRT:thread_safe_statics.obj
 0001:001397e0       _Init_thread_header        000000014013a7e0 f   MSVCRT:thread_safe_statics.obj
 0001:00139860       _Init_thread_lock          000000014013a860 f   MSVCRT:thread_safe_statics.obj
 0001:00139874       _Init_thread_notify        000000014013a874 f   MSVCRT:thread_safe_statics.obj
 0001:001398c8       _Init_thread_unlock        000000014013a8c8 f   MSVCRT:thread_safe_statics.obj
 0001:001398dc       _Init_thread_wait          000000014013a8dc f   MSVCRT:thread_safe_statics.obj
 0001:00139958       __GSHandlerCheck           000000014013a958 f   MSVCRT:gshandler.obj
 0001:0013997c       __GSHandlerCheckCommon     000000014013a97c f   MSVCRT:gshandler.obj
 0001:001399f0       __GSHandlerCheck_EH4       000000014013a9f0 f   MSVCRT:gshandlereh4.obj
 0001:00139aa0       __chkstk                   000000014013aaa0 f   MSVCRT:chkstk.obj
 0001:00139aa0       _alloca_probe              000000014013aaa0 f   MSVCRT:chkstk.obj
 0001:00139b20       __security_check_cookie    000000014013ab20 f   MSVCRT:amdsecgs.obj
 0001:00139b4c       ??1type_info@@UEAA@XZ      000000014013ab4c f   MSVCRT:std_type_info_static.obj
 0001:00139b5c       ??_Etype_info@@UEAAPEAXI@Z 000000014013ab5c f i MSVCRT:std_type_info_static.obj
 0001:00139b5c       ??_Gtype_info@@UEAAPEAXI@Z 000000014013ab5c f i MSVCRT:std_type_info_static.obj
 0001:00139ee4       ?set_app_type@__scrt_main_policy@@SAXXZ 000000014013aee4 f i MSVCRT:exe_main.obj
 0001:00139ef0       ?set_commode@__scrt_file_policy@@SAXXZ 000000014013aef0 f i MSVCRT:exe_main.obj
 0001:00139f10       ?set_fmode@__scrt_file_policy@@SAXXZ 000000014013af10 f i MSVCRT:exe_main.obj
 0001:00139f2c       mainCRTStartup             000000014013af2c f   MSVCRT:exe_main.obj
 0001:00139f44       _guard_check_icall_nop     000000014013af44 f i MSVCRT:guard_support.obj
 0001:00139f48       ReadNoFence64              000000014013af48 f i MSVCRT:guard_support.obj
 0001:00139f4c       ReadPointerNoFence         000000014013af4c f i MSVCRT:guard_support.obj
 0001:00139f50       __castguard_check_failure_debugbreak 000000014013af50 f i MSVCRT:guard_support.obj
 0001:00139f74       __castguard_check_failure_fastfail 000000014013af74 f i MSVCRT:guard_support.obj
 0001:00139fa0       __castguard_check_failure_nop 000000014013afa0 f i MSVCRT:guard_support.obj
 0001:00139fa4       __castguard_check_failure_os_handled 000000014013afa4 f i MSVCRT:guard_support.obj
 0001:0013a038       __castguard_slow_path_check_debugbreak 000000014013b038 f i MSVCRT:guard_support.obj
 0001:0013a07c       __castguard_slow_path_check_fastfail 000000014013b07c f i MSVCRT:guard_support.obj
 0001:0013a0c4       __castguard_slow_path_check_nop 000000014013b0c4 f i MSVCRT:guard_support.obj
 0001:0013a0c8       __castguard_slow_path_check_os_handled 000000014013b0c8 f i MSVCRT:guard_support.obj
 0001:0013a150       _guard_icall_checks_enforced 000000014013b150 f i MSVCRT:guard_support.obj
 0001:0013a16c       _guard_rf_checks_enforced  000000014013b16c f i MSVCRT:guard_support.obj
 0001:0013a170       ??0bad_alloc@std@@QEAA@XZ  000000014013b170 f i MSVCRT:throw_bad_alloc.obj
 0001:0013a198       ?__scrt_throw_std_bad_alloc@@YAXXZ 000000014013b198 f   MSVCRT:throw_bad_alloc.obj
 0001:0013a1c0       ?__scrt_throw_std_bad_array_new_length@@YAXXZ 000000014013b1c0 f   MSVCRT:throw_bad_alloc.obj
 0001:0013a1e8       ??3@YAXPEAX@Z              000000014013b1e8 f   MSVCRT:delete_scalar.obj
 0001:0013a1f0       __isa_available_init       000000014013b1f0 f   MSVCRT:cpu_disp.obj
 0001:0013a408       _get_startup_argv_mode     000000014013b408 f   MSVCRT:argv_mode.obj
 0001:0013a410       __scrt_is_ucrt_dll_in_use  000000014013b410 f   MSVCRT:ucrt_detection.obj
 0001:0013a420       __crt_debugger_hook        000000014013b420 f   MSVCRT:utility_desktop.obj
 0001:0013a42c       __scrt_fastfail            000000014013b42c f   MSVCRT:utility_desktop.obj
 0001:0013a5cc       __scrt_get_show_window_mode 000000014013b5cc f   MSVCRT:utility_desktop.obj
 0001:0013a614       __scrt_initialize_mta      000000014013b614 f   MSVCRT:utility_desktop.obj
 0001:0013a61c       __scrt_initialize_winrt    000000014013b61c f   MSVCRT:utility_desktop.obj
 0001:0013a620       __scrt_is_managed_app      000000014013b620 f   MSVCRT:utility_desktop.obj
 0001:0013a688       __scrt_set_unhandled_exception_filter 000000014013b688 f   MSVCRT:utility_desktop.obj
 0001:0013a69c       __scrt_exe_initialize_mta  000000014013b69c f   MSVCRT:utility_desktop.obj
 0001:0013a69c       __scrt_stub_for_initialize_mta 000000014013b69c f   MSVCRT:utility_desktop.obj
 0001:0013a6a0       __scrt_unhandled_exception_filter 000000014013b6a0 f   MSVCRT:utility_desktop.obj
 0001:0013a79c       __security_init_cookie     000000014013b79c f   MSVCRT:gs_support.obj
 0001:0013a874       _matherr                   000000014013b874 f   MSVCRT:matherr.obj
 0001:0013a878       _get_startup_commit_mode   000000014013b878 f   MSVCRT:commit_mode.obj
 0001:0013a87c       _get_startup_file_mode     000000014013b87c f   MSVCRT:file_mode.obj
 0001:0013a884       _get_startup_new_mode      000000014013b884 f   MSVCRT:new_mode.obj
 0001:0013a888       _get_startup_thread_locale_mode 000000014013b888 f   MSVCRT:thread_locale.obj
 0001:0013a88c       ?__scrt_initialize_type_info@@YAXXZ 000000014013b88c f   MSVCRT:tncleanup.obj
 0001:0013a8a0       ?__scrt_uninitialize_type_info@@YAXXZ 000000014013b8a0 f   MSVCRT:tncleanup.obj
 0001:0013a8b0       _should_initialize_environment 000000014013b8b0 f   MSVCRT:env_mode.obj
 0001:0013a8b4       _initialize_invalid_parameter_handler 000000014013b8b4 f   MSVCRT:invalid_parameter_handler.obj
 0001:0013a8b8       _initialize_denormal_control 000000014013b8b8 f   MSVCRT:denormal_control.obj
 0001:0013a8bc       __scrt_initialize_default_local_stdio_options 000000014013b8bc f   MSVCRT:default_local_stdio_options.obj
 0001:0013a8e0       __scrt_is_user_matherr_present 000000014013b8e0 f   MSVCRT:matherr_detection.obj
 0001:0013a8f0       __scrt_get_dyn_tls_init_callback 000000014013b8f0 f   MSVCRT:dyn_tls_init.obj
 0001:0013a8fc       __scrt_get_dyn_tls_dtor_callback 000000014013b8fc f   MSVCRT:dyn_tls_dtor.obj
 0001:0013a908       _RTC_Initialize            000000014013b908 f   MSVCRT:initsect.obj
 0001:0013a954       _RTC_Terminate             000000014013b954 f   MSVCRT:initsect.obj
 0001:0013a9a0       memchr                     000000014013b9a0 f   vcruntime:VCRUNTIME140.dll
 0001:0013a9a6       memcmp                     000000014013b9a6 f   vcruntime:VCRUNTIME140.dll
 0001:0013a9ac       memcpy                     000000014013b9ac f   vcruntime:VCRUNTIME140.dll
 0001:0013a9b2       memmove                    000000014013b9b2 f   vcruntime:VCRUNTIME140.dll
 0001:0013a9b8       memset                     000000014013b9b8 f   vcruntime:VCRUNTIME140.dll
 0001:0013a9be       strchr                     000000014013b9be f   vcruntime:VCRUNTIME140.dll
 0001:0013a9c4       strstr                     000000014013b9c4 f   vcruntime:VCRUNTIME140.dll
 0001:0013a9ca       __std_exception_copy       000000014013b9ca f   vcruntime:VCRUNTIME140.dll
 0001:0013a9d0       __std_exception_destroy    000000014013b9d0 f   vcruntime:VCRUNTIME140.dll
 0001:0013a9d6       _CxxThrowException         000000014013b9d6 f   vcruntime:VCRUNTIME140.dll
 0001:0013a9dc       __CxxFrameHandler4         000000014013b9dc f   vcruntime:VCRUNTIME140_1.dll
 0001:0013a9e2       __C_specific_handler       000000014013b9e2 f   vcruntime:VCRUNTIME140.dll
 0001:0013a9e8       __current_exception        000000014013b9e8 f   vcruntime:VCRUNTIME140.dll
 0001:0013a9ee       __current_exception_context 000000014013b9ee f   vcruntime:VCRUNTIME140.dll
 0001:0013a9f4       __std_type_info_destroy_list 000000014013b9f4 f   vcruntime:VCRUNTIME140.dll
 0001:0013a9fa       _invalid_parameter_noinfo_noreturn 000000014013b9fa f   ucrt:api-ms-win-crt-runtime-l1-1-0.dll
 0001:0013aa00       __acrt_iob_func            000000014013ba00 f   ucrt:api-ms-win-crt-stdio-l1-1-0.dll
 0001:0013aa06       _wfopen                    000000014013ba06 f   ucrt:api-ms-win-crt-stdio-l1-1-0.dll
 0001:0013aa0c       fopen_s                    000000014013ba0c f   ucrt:api-ms-win-crt-stdio-l1-1-0.dll
 0001:0013aa12       fclose                     000000014013ba12 f   ucrt:api-ms-win-crt-stdio-l1-1-0.dll
 0001:0013aa18       feof                       000000014013ba18 f   ucrt:api-ms-win-crt-stdio-l1-1-0.dll
 0001:0013aa1e       ferror                     000000014013ba1e f   ucrt:api-ms-win-crt-stdio-l1-1-0.dll
 0001:0013aa24       fflush                     000000014013ba24 f   ucrt:api-ms-win-crt-stdio-l1-1-0.dll
 0001:0013aa2a       fgetc                      000000014013ba2a f   ucrt:api-ms-win-crt-stdio-l1-1-0.dll
 0001:0013aa30       fread                      000000014013ba30 f   ucrt:api-ms-win-crt-stdio-l1-1-0.dll
 0001:0013aa36       fseek                      000000014013ba36 f   ucrt:api-ms-win-crt-stdio-l1-1-0.dll
 0001:0013aa3c       ftell                      000000014013ba3c f   ucrt:api-ms-win-crt-stdio-l1-1-0.dll
 0001:0013aa42       fwrite                     000000014013ba42 f   ucrt:api-ms-win-crt-stdio-l1-1-0.dll
 0001:0013aa48       ungetc                     000000014013ba48 f   ucrt:api-ms-win-crt-stdio-l1-1-0.dll
 0001:0013aa4e       __stdio_common_vfprintf    000000014013ba4e f   ucrt:api-ms-win-crt-stdio-l1-1-0.dll
 0001:0013aa54       __stdio_common_vsprintf    000000014013ba54 f   ucrt:api-ms-win-crt-stdio-l1-1-0.dll
 0001:0013aa5a       __stdio_common_vsscanf     000000014013ba5a f   ucrt:api-ms-win-crt-stdio-l1-1-0.dll
 0001:0013aa60       free                       000000014013ba60 f   ucrt:api-ms-win-crt-heap-l1-1-0.dll
 0001:0013aa66       malloc                     000000014013ba66 f   ucrt:api-ms-win-crt-heap-l1-1-0.dll
 0001:0013aa6c       realloc                    000000014013ba6c f   ucrt:api-ms-win-crt-heap-l1-1-0.dll
 0001:0013aa72       _lrotl                     000000014013ba72 f   ucrt:api-ms-win-crt-utility-l1-1-0.dll
 0001:0013aa78       abs                        000000014013ba78 f   ucrt:api-ms-win-crt-utility-l1-1-0.dll
 0001:0013aa7e       fabs                       000000014013ba7e f   ucrt:api-ms-win-crt-math-l1-1-0.dll
 0001:0013aa84       log                        000000014013ba84 f   ucrt:api-ms-win-crt-math-l1-1-0.dll
 0001:0013aa8a       pow                        000000014013ba8a f   ucrt:api-ms-win-crt-math-l1-1-0.dll
 0001:0013aa90       atof                       000000014013ba90 f   ucrt:api-ms-win-crt-convert-l1-1-0.dll
 0001:0013aa96       ldexp                      000000014013ba96 f   ucrt:api-ms-win-crt-math-l1-1-0.dll
 0001:0013aa9c       acosf                      000000014013ba9c f   ucrt:api-ms-win-crt-math-l1-1-0.dll
 0001:0013aaa2       atan2f                     000000014013baa2 f   ucrt:api-ms-win-crt-math-l1-1-0.dll
 0001:0013aaa8       ceilf                      000000014013baa8 f   ucrt:api-ms-win-crt-math-l1-1-0.dll
 0001:0013aaae       cosf                       000000014013baae f   ucrt:api-ms-win-crt-math-l1-1-0.dll
 0001:0013aab4       floorf                     000000014013bab4 f   ucrt:api-ms-win-crt-math-l1-1-0.dll
 0001:0013aaba       fmodf                      000000014013baba f   ucrt:api-ms-win-crt-math-l1-1-0.dll
 0001:0013aac0       logf                       000000014013bac0 f   ucrt:api-ms-win-crt-math-l1-1-0.dll
 0001:0013aac6       powf                       000000014013bac6 f   ucrt:api-ms-win-crt-math-l1-1-0.dll
 0001:0013aacc       sinf                       000000014013bacc f   ucrt:api-ms-win-crt-math-l1-1-0.dll
 0001:0013aad2       sqrtf                      000000014013bad2 f   ucrt:api-ms-win-crt-math-l1-1-0.dll
 0001:0013aad8       tanf                       000000014013bad8 f   ucrt:api-ms-win-crt-math-l1-1-0.dll
 0001:0013aade       qsort                      000000014013bade f   ucrt:api-ms-win-crt-utility-l1-1-0.dll
 0001:0013aae4       strtol                     000000014013bae4 f   ucrt:api-ms-win-crt-convert-l1-1-0.dll
 0001:0013aaea       strcat                     000000014013baea f   ucrt:api-ms-win-crt-string-l1-1-0.dll
 0001:0013aaf0       strcmp                     000000014013baf0 f   ucrt:api-ms-win-crt-string-l1-1-0.dll
 0001:0013aaf6       strcpy                     000000014013baf6 f   ucrt:api-ms-win-crt-string-l1-1-0.dll
 0001:0013aafc       strlen                     000000014013bafc f   ucrt:api-ms-win-crt-string-l1-1-0.dll
 0001:0013ab02       strncmp                    000000014013bb02 f   ucrt:api-ms-win-crt-string-l1-1-0.dll
 0001:0013ab08       strncpy                    000000014013bb08 f   ucrt:api-ms-win-crt-string-l1-1-0.dll
 0001:0013ab0e       toupper                    000000014013bb0e f   ucrt:api-ms-win-crt-string-l1-1-0.dll
 0001:0013ab14       _wassert                   000000014013bb14 f   ucrt:api-ms-win-crt-runtime-l1-1-0.dll
 0001:0013ab1a       terminate                  000000014013bb1a f   ucrt:api-ms-win-crt-runtime-l1-1-0.dll
 0001:0013ab20       _callnewh                  000000014013bb20 f   ucrt:api-ms-win-crt-heap-l1-1-0.dll
 0001:0013ab26       _seh_filter_dll            000000014013bb26 f   ucrt:api-ms-win-crt-runtime-l1-1-0.dll
 0001:0013ab2c       _configure_narrow_argv     000000014013bb2c f   ucrt:api-ms-win-crt-runtime-l1-1-0.dll
 0001:0013ab32       _initialize_narrow_environment 000000014013bb32 f   ucrt:api-ms-win-crt-runtime-l1-1-0.dll
 0001:0013ab38       _initialize_onexit_table   000000014013bb38 f   ucrt:api-ms-win-crt-runtime-l1-1-0.dll
 0001:0013ab3e       _register_onexit_function  000000014013bb3e f   ucrt:api-ms-win-crt-runtime-l1-1-0.dll
 0001:0013ab44       _execute_onexit_table      000000014013bb44 f   ucrt:api-ms-win-crt-runtime-l1-1-0.dll
 0001:0013ab4a       _crt_atexit                000000014013bb4a f   ucrt:api-ms-win-crt-runtime-l1-1-0.dll
 0001:0013ab50       _crt_at_quick_exit         000000014013bb50 f   ucrt:api-ms-win-crt-runtime-l1-1-0.dll
 0001:0013ab56       _cexit                     000000014013bb56 f   ucrt:api-ms-win-crt-runtime-l1-1-0.dll
 0001:0013ab5c       _seh_filter_exe            000000014013bb5c f   ucrt:api-ms-win-crt-runtime-l1-1-0.dll
 0001:0013ab62       _set_app_type              000000014013bb62 f   ucrt:api-ms-win-crt-runtime-l1-1-0.dll
 0001:0013ab68       __setusermatherr           000000014013bb68 f   ucrt:api-ms-win-crt-math-l1-1-0.dll
 0001:0013ab6e       _get_initial_narrow_environment 000000014013bb6e f   ucrt:api-ms-win-crt-runtime-l1-1-0.dll
 0001:0013ab74       _initterm                  000000014013bb74 f   ucrt:api-ms-win-crt-runtime-l1-1-0.dll
 0001:0013ab7a       _initterm_e                000000014013bb7a f   ucrt:api-ms-win-crt-runtime-l1-1-0.dll
 0001:0013ab80       exit                       000000014013bb80 f   ucrt:api-ms-win-crt-runtime-l1-1-0.dll
 0001:0013ab86       _exit                      000000014013bb86 f   ucrt:api-ms-win-crt-runtime-l1-1-0.dll
 0001:0013ab8c       _set_fmode                 000000014013bb8c f   ucrt:api-ms-win-crt-stdio-l1-1-0.dll
 0001:0013ab92       __p___argc                 000000014013bb92 f   ucrt:api-ms-win-crt-runtime-l1-1-0.dll
 0001:0013ab98       __p___argv                 000000014013bb98 f   ucrt:api-ms-win-crt-runtime-l1-1-0.dll
 0001:0013ab9e       _c_exit                    000000014013bb9e f   ucrt:api-ms-win-crt-runtime-l1-1-0.dll
 0001:0013aba4       _register_thread_local_exe_atexit_callback 000000014013bba4 f   ucrt:api-ms-win-crt-runtime-l1-1-0.dll
 0001:0013abaa       _configthreadlocale        000000014013bbaa f   ucrt:api-ms-win-crt-locale-l1-1-0.dll
 0001:0013abb0       _set_new_mode              000000014013bbb0 f   ucrt:api-ms-win-crt-heap-l1-1-0.dll
 0001:0013abb6       __p__commode               000000014013bbb6 f   ucrt:api-ms-win-crt-stdio-l1-1-0.dll
 0001:0013abc0       WinMain                    000000014013bbc0 f   SDL2main:SDL_windows_main.obj
 0001:0013abd0       main                       000000014013bbd0 f   SDL2main:SDL_windows_main.obj
 0001:0013ae00       wmain                      000000014013be00 f   SDL2main:SDL_windows_main.obj
 0001:0013ae05       CommandLineToArgvW         000000014013be05 f   shell32:SHELL32.dll
 0001:0013ae0b       RtlCaptureContext          000000014013be0b f   kernel32:KERNEL32.dll
 0001:0013ae11       RtlLookupFunctionEntry     000000014013be11 f   kernel32:KERNEL32.dll
 0001:0013ae17       RtlVirtualUnwind           000000014013be17 f   kernel32:KERNEL32.dll
 0001:0013ae1d       UnhandledExceptionFilter   000000014013be1d f   kernel32:KERNEL32.dll
 0001:0013ae23       SetUnhandledExceptionFilter 000000014013be23 f   kernel32:KERNEL32.dll
 0001:0013ae29       GetCurrentProcess          000000014013be29 f   kernel32:KERNEL32.dll
 0001:0013ae2f       TerminateProcess           000000014013be2f f   kernel32:KERNEL32.dll
 0001:0013ae35       IsProcessorFeaturePresent  000000014013be35 f   kernel32:KERNEL32.dll
 0001:0013ae3b       CloseHandle                000000014013be3b f   kernel32:KERNEL32.dll
 0001:0013ae41       EnterCriticalSection       000000014013be41 f   kernel32:KERNEL32.dll
 0001:0013ae47       LeaveCriticalSection       000000014013be47 f   kernel32:KERNEL32.dll
 0001:0013ae4d       InitializeCriticalSectionAndSpinCount 000000014013be4d f   kernel32:KERNEL32.dll
 0001:0013ae53       DeleteCriticalSection      000000014013be53 f   kernel32:KERNEL32.dll
 0001:0013ae59       SetEvent                   000000014013be59 f   kernel32:KERNEL32.dll
 0001:0013ae5f       ResetEvent                 000000014013be5f f   kernel32:KERNEL32.dll
 0001:0013ae65       WaitForSingleObjectEx      000000014013be65 f   kernel32:KERNEL32.dll
 0001:0013ae6b       CreateEventW               000000014013be6b f   kernel32:KERNEL32.dll
 0001:0013ae71       GetModuleHandleW           000000014013be71 f   kernel32:KERNEL32.dll
 0001:0013ae77       IsDebuggerPresent          000000014013be77 f   kernel32:KERNEL32.dll
 0001:0013ae7d       GetStartupInfoW            000000014013be7d f   kernel32:KERNEL32.dll
 0001:0013ae83       QueryPerformanceCounter    000000014013be83 f   kernel32:KERNEL32.dll
 0001:0013ae89       GetCurrentProcessId        000000014013be89 f   kernel32:KERNEL32.dll
 0001:0013ae8f       GetCurrentThreadId         000000014013be8f f   kernel32:KERNEL32.dll
 0001:0013ae95       GetSystemTimeAsFileTime    000000014013be95 f   kernel32:KERNEL32.dll
 0001:0013ae9b       InitializeSListHead        000000014013be9b f   kernel32:KERNEL32.dll
 0001:0013aea1       GetCommandLineW            000000014013bea1 f   kernel32:KERNEL32.dll
 0001:0013aea7       HeapAlloc                  000000014013bea7 f   kernel32:KERNEL32.dll
 0001:0013aead       HeapFree                   000000014013bead f   kernel32:KERNEL32.dll
 0001:0013aeb3       GetProcessHeap             000000014013beb3 f   kernel32:KERNEL32.dll
 0001:0013aeb9       LocalFree                  000000014013beb9 f   kernel32:KERNEL32.dll
 0001:0013aebf       SDL_wcslen                 000000014013bebf f   SDL2:SDL2.dll
 0001:0013aec5       SDL_strlen                 000000014013bec5 f   SDL2:SDL2.dll
 0001:0013aecb       SDL_iconv_string           000000014013becb f   SDL2:SDL2.dll
 0001:0013aed1       SDL_SetMainReady           000000014013bed1 f   SDL2:SDL2.dll
 0001:0013aed7       SDL_ShowSimpleMessageBox   000000014013bed7 f   SDL2:SDL2.dll
 0001:0013aee0       __vcrt_initialize          000000014013bee0 f   MSVCRT:ucrt_stubs.obj
 0001:0013aee0       __scrt_stub_for_acrt_initialize 000000014013bee0 f   MSVCRT:ucrt_stubs.obj
 0001:0013aee0       __acrt_initialize          000000014013bee0 f   MSVCRT:ucrt_stubs.obj
 0001:0013aee4       __acrt_thread_attach       000000014013bee4 f   MSVCRT:ucrt_stubs.obj
 0001:0013aee4       __scrt_stub_for_acrt_thread_attach 000000014013bee4 f   MSVCRT:ucrt_stubs.obj
 0001:0013aee4       __vcrt_thread_attach       000000014013bee4 f   MSVCRT:ucrt_stubs.obj
 0001:0013aee8       __vcrt_thread_detach       000000014013bee8 f   MSVCRT:ucrt_stubs.obj
 0001:0013aee8       __acrt_thread_detach       000000014013bee8 f   MSVCRT:ucrt_stubs.obj
 0001:0013aee8       __scrt_stub_for_acrt_thread_detach 000000014013bee8 f   MSVCRT:ucrt_stubs.obj
 0001:0013aeec       __vcrt_uninitialize        000000014013beec f   MSVCRT:ucrt_stubs.obj
 0001:0013aeec       __acrt_uninitialize        000000014013beec f   MSVCRT:ucrt_stubs.obj
 0001:0013aeec       __scrt_stub_for_acrt_uninitialize 000000014013beec f   MSVCRT:ucrt_stubs.obj
 0001:0013aef0       __vcrt_uninitialize_critical 000000014013bef0 f   MSVCRT:ucrt_stubs.obj
 0001:0013aef0       __acrt_uninitialize_critical 000000014013bef0 f   MSVCRT:ucrt_stubs.obj
 0001:0013aef0       __scrt_stub_for_acrt_uninitialize_critical 000000014013bef0 f   MSVCRT:ucrt_stubs.obj
 0001:0013aef4       __scrt_stub_for_is_c_termination_complete 000000014013bef4 f   MSVCRT:ucrt_stubs.obj
 0001:0013aef4       _is_c_termination_complete 000000014013bef4 f   MSVCRT:ucrt_stubs.obj
 0001:0013e2e0       _guard_dispatch_icall_nop  000000014013f2e0 f   MSVCRT:guard_dispatch.obj
 0001:0013e300       _guard_xfg_dispatch_icall_nop 000000014013f300 f   MSVCRT:guard_xfg_dispatch.obj
 0002:00000000       __xc_a                     0000000140145000     MSVCRT:initializers.obj
 0002:00000220       __xc_z                     0000000140145220     MSVCRT:initializers.obj
 0002:00000330       __xi_a                     0000000140145330     MSVCRT:initializers.obj
 0002:00000770       __xi_z                     0000000140145770     MSVCRT:initializers.obj
 0002:00000880       __xl_a                     0000000140145880     MSVCRT:tlssup.obj
 0002:00000888       __xl_z                     0000000140145888     MSVCRT:tlssup.obj
 0002:00000890       __xp_a                     0000000140145890     MSVCRT:initializers.obj
 0002:000009a0       __xp_z                     00000001401459a0     MSVCRT:initializers.obj
 0002:00000ab0       __xt_a                     0000000140145ab0     MSVCRT:initializers.obj
 0002:00000bc0       __xt_z                     0000000140145bc0     MSVCRT:initializers.obj
 0002:0004e780       ??_C@_1HI@GPAGOKEL@?$AAC?$AA?3?$AA?2?$AAU?$AAs?$AAe?$AAr?$AAs?$AA?2?$AAj?$AAs?$AAa?$AAn?$AAc?$AA?2@ 0000000140193780     toasty.obj
 0002:0004e810       ??_C@_1BC@IIGHOJGM@?$AAi?$AAd?$AAx?$AA?5?$AA?$DM?$AA?$DN?$AA?5?$AA1@ 0000000140193810     toasty.obj
 0002:0004e828       ??_C@_1BM@COLNJNAB@?$AAB?$AAu?$AAf?$AA?4?$AAD?$AAa?$AAt?$AAa?$AA?5?$AA?$CB?$AA?$DN?$AA?5?$AA0@ 0000000140193828     toasty.obj
 0002:0004e850       ??_C@_1BG@HMJJDGFN@?$AAi?$AAn?$AAd?$AAe?$AAx?$AA?5?$AA?$DO?$AA?$DN?$AA?5?$AA0@ 0000000140193850     toasty.obj
 0002:0004e870       ??_C@_09EEKGDCPH@?$DMunknown?$DO@ 0000000140193870     toasty.obj
 0002:0004e880       ??_C@_1IK@MPEHNEHF@?$AAC?$AA?3?$AA?2?$AAU?$AAs?$AAe?$AAr?$AAs?$AA?2?$AAj?$AAs?$AAa?$AAn?$AAc?$AA?2@ 0000000140193880     toasty.obj
 0002:0004e928       ??_C@_1DA@HCNHOFJN@?$AAn?$AA?5?$AA?$DM?$AA?5?$AA?$CI?$AAS?$AAt?$AAo?$AAr?$AAa?$AAg?$AAe?$AA?4?$AAS?$AAi@ 0000000140193928     toasty.obj
 0002:0004e970       ??_C@_1HM@PJKJLKEH@?$AAt?$AAa?$AAb?$AA?9?$AA?$DO?$AAN?$AAa?$AAm?$AAe?$AAO?$AAf?$AAf?$AAs?$AAe?$AAt@ 0000000140193970     toasty.obj
 0002:0004ea04       ??_C@_13COJANIEC@?$AA0@    0000000140193a04     toasty.obj
 0002:0004ea90       ??_C@_1HM@FOEAOAAO@?$AAC?$AA?3?$AA?2?$AAU?$AAs?$AAe?$AAr?$AAs?$AA?2?$AAj?$AAs?$AAa?$AAn?$AAc?$AA?2@ 0000000140193a90     toasty.obj
 0002:00051f80       ??_C@_05EAJAAGNN@imgui@    0000000140196f80     toasty.obj
 0002:00051f88       ??_C@_02DJGKEECL@?4?4@     0000000140196f88     toasty.obj
 0002:00051f90       ??_C@_0M@GNLHKNNA@Pressed?5Up?$CB@ 0000000140196f90     toasty.obj
 0002:00051fa0       ??_C@_0O@CDNFAFCH@Pressed?5Down?$CB@ 0000000140196fa0     toasty.obj
 0002:00051fb0       ??_C@_1IG@ENBOOOOF@?$AAC?$AA?3?$AA?2?$AAU?$AAs?$AAe?$AAr?$AAs?$AA?2?$AAj?$AAs?$AAa?$AAn?$AAc?$AA?2@ 0000000140196fb0     toasty.obj
 0002:00052050       ??_C@_1DK@GBCOMGGK@?$AAm?$AAy?$AA_?$AAs?$AAt?$AAr?$AA?9?$AA?$DO?$AAb?$AAe?$AAg?$AAi?$AAn?$AA?$CI?$AA?$CJ@ 0000000140197050     toasty.obj
 0002:000520a0       ??_C@_1GE@PBHHHBJD@?$AA?$CI?$AAf?$AAl?$AAa?$AAg?$AAs?$AA?5?$AA?$CG?$AA?5?$AAI?$AAm?$AAG?$AAu?$AAi?$AAI@ 00000001401970a0     toasty.obj
 0002:000521b0       ??_C@_02BAABKJLB@?9?9@     00000001401971b0     toasty.obj
 0002:000521b4       ??_C@_02DPKJAMEF@?$CFd@    00000001401971b4     toasty.obj
 0002:00052319       ??_C@_00CNPNBAHC@@         0000000140197319     toasty.obj
 0002:00052320       ??_C@_0BB@GJBEJJEP@Examples?1Console@ 0000000140197320     toasty.obj
 0002:00052340       ??_C@_0ED@LHGHIAGP@C?3?2Users?2jsanc?2Dropbox?2Projects@ 0000000140197340     toasty.obj
 0002:00052390       ??_C@_04DOKPJKJF@HELP@     0000000140197390     toasty.obj
 0002:00052398       ??_C@_07DBIJIOJO@HISTORY@  0000000140197398     toasty.obj
 0002:000523a4       ??_C@_05PONODPI@CLEAR@     00000001401973a4     toasty.obj
 0002:000523b0       ??_C@_08GOHMLCGG@CLASSIFY@ 00000001401973b0     toasty.obj
 0002:000523c0       ??_C@_0BH@HICLALOG@Welcome?5to?5Dear?5ImGui?$CB@ 00000001401973c0     toasty.obj
 0002:000523dc       ??_C@_13KHDBCPJB@?$AAs@    00000001401973dc     toasty.obj
 0002:000523e0       ??_C@_17ENLBLDPN@?$AAb?$AAu?$AAf@ 00000001401973e0     toasty.obj
 0002:000523f0       ??_C@_0O@GDIOPKGP@Close?5Console@ 00000001401973f0     toasty.obj
 0002:00052400       ??_C@_0NJ@IPNBOCGH@This?5example?5implements?5a?5conso@ 0000000140197400     toasty.obj
 0002:00052508       ??_C@_0BH@DCBEMCMC@Enter?5?8HELP?8?5for?5help?4@ 0000000140197508     toasty.obj
 0002:00052528       ??_C@_0P@EGDLDIHN@Add?5Debug?5Text@ 0000000140197528     toasty.obj
 0002:00052540       ??_C@_0N@OJGBPOOP@?$CFd?5some?5text@ 0000000140197540     toasty.obj
 0002:00052550       ??_C@_0P@BMHJKMPF@some?5more?5text@ 0000000140197550     toasty.obj
 0002:00052568       ??_C@_0CF@PEIDNPCH@display?5very?5important?5message?5@ 0000000140197568     toasty.obj
 0002:00052598       ??_C@_0BA@FGHPBLJE@Add?5Debug?5Error@ 0000000140197598     toasty.obj
 0002:000525b0       ??_C@_0BN@KNPJMMPE@?$FLerror?$FN?5something?5went?5wrong@ 00000001401975b0     toasty.obj
 0002:000525d4       ??_C@_05MDNHABIA@Clear@    00000001401975d4     toasty.obj
 0002:000525dc       ??_C@_04OPMHGHMB@Copy@     00000001401975dc     toasty.obj
 0002:000525e8       ??_C@_07KHIHFBFN@Options@  00000001401975e8     toasty.obj
 0002:000525f8       ??_C@_0M@IFKANFPJ@Auto?9scroll@ 00000001401975f8     toasty.obj
 0002:00052608       ??_C@_0CA@HIABFBKB@Filter?5?$CI?$CCincl?0?9excl?$CC?$CJ?5?$CI?$CCerror?$CC?$CJ@ 0000000140197608     toasty.obj
 0002:00052630       ??_C@_0BA@KOEFNJOK@ScrollingRegion@ 0000000140197630     toasty.obj
 0002:00052648       ??_C@_07LFMCMLFD@?$FLerror?$FN@ 0000000140197648     toasty.obj
 0002:00052654       ??_C@_02KPDBPKPG@?$CD?5@   0000000140197654     toasty.obj
 0002:00052658       ??_C@_05DCDOHKAB@Input@    0000000140197658     toasty.obj
 0002:00052660       ??_C@_05DFHAGHEP@?$CD?5?$CFs?6@ 0000000140197660     toasty.obj
 0002:00052668       ??_C@_09GJFNIAOH@Commands?3@ 0000000140197668     toasty.obj
 0002:00052674       ??_C@_04JKCKOCFH@?9?5?$CFs@ 0000000140197674     toasty.obj
 0002:00052680       ??_C@_08PKLPHKJF@?$CF3d?3?5?$CFs?6@ 0000000140197680     toasty.obj
 0002:00052690       ??_C@_0BH@OKLFOGKH@Unknown?5command?3?5?8?$CFs?8?6@ 0000000140197690     toasty.obj
 0002:000526b0       ??_C@_0BG@DOPMHGPK@No?5match?5for?5?$CC?$CF?4?$CKs?$CC?$CB?6@ 00000001401976b0     toasty.obj
 0002:000526cc       ??_C@_01CLKCMJKC@?5@       00000001401976cc     toasty.obj
 0002:000526d0       ??_C@_0BD@LCPLNAHF@Possible?5matches?3?6@ 00000001401976d0     toasty.obj
 0002:000526e8       ??_C@_05PHKAGDP@?9?5?$CFs?6@ 00000001401976e8     toasty.obj
 0002:000526f0       ??_C@_06IBDJIBGI@Filter@   00000001401976f0     toasty.obj
 0002:000526f8       ??_C@_09PKEBEIDM@scrolling@ 00000001401976f8     toasty.obj
 0002:00052708       ??_C@_0O@LKIEAKBN@Document?5?$CC?$CFs?$CC@ 0000000140197708     toasty.obj
 0002:00052720       ??_C@_0HM@PALHCHMO@Lorem?5ipsum?5dolor?5sit?5amet?0?5con@ 0000000140197720     toasty.obj
 0002:000527b4       ??_C@_06CGNGJFJO@Modify@   00000001401977b4     toasty.obj
 0002:000527bc       ??_C@_04INACKGJP@Save@     00000001401977bc     toasty.obj
 0002:000527c4       ??_C@_05PEENBMOG@color@    00000001401977c4     toasty.obj
 0002:000527d0       ??_C@_07HKLKIEAD@Save?5?$CFs@ 00000001401977d0     toasty.obj
 0002:000527dc       ??_C@_06LGPANJDM@CTRL?$CLS@ 00000001401977dc     toasty.obj
 0002:000527e4       ??_C@_06NCJMBMDI@CTRL?$CLW@ 00000001401977e4     toasty.obj
 0002:000527ec       ??_C@_05LGELBCGM@Close@    00000001401977ec     toasty.obj
 0002:000527f8       ??_C@_07KPHKCHJL@Lettuce@  00000001401977f8     toasty.obj
 0002:00052808       ??_C@_08MEKMCLOD@Eggplant@ 0000000140197808     toasty.obj
 0002:00052814       ??_C@_06JOCEHIMN@Carrot@   0000000140197814     toasty.obj
 0002:0005281c       ??_C@_06BPAOMENE@Tomato@   000000014019781c     toasty.obj
 0002:00052828       ??_C@_0BE@GMCEAMGE@A?5Rather?5Long?5Title@ 0000000140197828     toasty.obj
 0002:00052840       ??_C@_0O@ILMKPHFK@Some?5Document@ 0000000140197840     toasty.obj
 0002:00052898       ??_7exception@std@@6B@     0000000140197898     toasty.obj
 0002:000528b0       ??_C@_0BC@EOODALEL@Unknown?5exception@ 00000001401978b0     toasty.obj
 0002:000528d0       ??_7bad_alloc@std@@6B@     00000001401978d0     toasty.obj
 0002:000528f0       ??_7bad_array_new_length@std@@6B@ 00000001401978f0     toasty.obj
 0002:00052908       ??_C@_0BF@KINCDENJ@bad?5array?5new?5length@ 0000000140197908     toasty.obj
 0002:00052928       ??_C@_0BA@JFNIOLAK@string?5too?5long@ 0000000140197928     toasty.obj
 0002:00052940       ?_BUF_SIZE@?$basic_string@DU?$char_traits@D@std@@V?$allocator@D@2@@std@@0_KB 0000000140197940     toasty.obj
 0002:00052950       ??_C@_1CG@GPMNJCJ@?$AAi?$AA?5?$AA?$DO?$AA?$DN?$AA?5?$AA0?$AA?5?$AA?$CG?$AA?$CG?$AA?5?$AAi?$AA?5?$AA?$DM?$AA?5?$AAS@ 0000000140197950     toasty.obj
 0002:00052980       ??_C@_1DO@NPHOAPAC@?$AAi?$AAt?$AA?5?$AA?$DO?$AA?$DN?$AA?5?$AAD?$AAa?$AAt?$AAa?$AA?5?$AA?$CG?$AA?$CG?$AA?5?$AAi@ 0000000140197980     toasty.obj
 0002:000529d0       ??_C@_1GG@ODANKJAN@?$AAn?$AA?5?$AA?$DO?$AA?$DN?$AA?5?$AA0?$AA?5?$AA?$CG?$AA?$CG?$AA?5?$AAn?$AA?5?$AA?$DM?$AA?5?$AAB@ 00000001401979d0     toasty.obj
 0002:00052a50       ??_C@_1CO@GNMLDMBF@?$AAn?$AA?5?$AA?$DO?$AA?$DN?$AA?5?$AA0?$AA?5?$AA?$CG?$AA?$CG?$AA?5?$AAn?$AA?5?$AA?$DM?$AA?5?$AAB@ 0000000140197a50     toasty.obj
 0002:00052a88       ??_C@_1DG@BODLFGJA@?$AAn?$AA?5?$AA?$DN?$AA?$DN?$AA?5?$AAC?$AAu?$AAr?$AAr?$AAI?$AAd?$AAx?$AA?5?$AA?$CG?$AA?$CG@ 0000000140197a88     toasty.obj
 0002:00052ac8       ??_C@_1DC@DHFOGPCD@?$AAp?$AA?5?$AA?$DO?$AA?$DN?$AA?5?$AAD?$AAa?$AAt?$AAa?$AA?5?$AA?$CG?$AA?$CG?$AA?5?$AAp?$AA?5@ 0000000140197ac8     toasty.obj
 0002:00052b08       ??_C@_1DG@OANBFKML@?$AAi?$AAt?$AA?5?$AA?$DO?$AA?$DN?$AA?5?$AAD?$AAa?$AAt?$AAa?$AA?5?$AA?$CG?$AA?$CG?$AA?5?$AAi@ 0000000140197b08     toasty.obj
 0002:00052b48       ??_C@_1BC@KCECIPDP@?$AAS?$AAi?$AAz?$AAe?$AA?5?$AA?$DO?$AA?5?$AA0@ 0000000140197b48     toasty.obj
 0002:00052b60       ??_C@_1DG@EPOMENA@?$AAo?$AAf?$AAf?$AA?5?$AA?$DO?$AA?$DN?$AA?5?$AA4?$AA?5?$AA?$CG?$AA?$CG?$AA?5?$AAo?$AAf?$AAf@ 0000000140197b60     toasty.obj
 0002:00052ba0       ??_C@_1DE@BDDBABLK@?$AAp?$AA?5?$AA?$DO?$AA?$DN?$AA?5?$AAb?$AAe?$AAg?$AAi?$AAn?$AA?$CI?$AA?$CJ?$AA?5?$AA?$CG?$AA?$CG@ 0000000140197ba0     toasty.obj
 0002:00052be0       ??_C@_1BE@OEELIPPM@?$AAp?$AA?5?$AA?$DM?$AA?5?$AAe?$AAn?$AAd?$AA?$CI?$AA?$CJ@ 0000000140197be0     toasty.obj
 0002:00052c00       ??_C@_1FC@BIEMKEOL@?$AAp?$AA?5?$AA?$DO?$AA?$DN?$AA?5?$AAB?$AAu?$AAf?$AA?4?$AAD?$AAa?$AAt?$AAa?$AA?5?$AA?$CG@ 0000000140197c00     toasty.obj
 0002:00052c70       ??_C@_1JE@CAGEIAMP@?$AAi?$AAt?$AA?5?$AA?$DO?$AA?$DN?$AA?5?$AAD?$AAa?$AAt?$AAa?$AA?5?$AA?$CG?$AA?$CG?$AA?5?$AAi@ 0000000140197c70     toasty.obj
 0002:00052d28       ??_C@_1CC@BPLGCGDC@?$AAn?$AAe?$AAw?$AA_?$AAs?$AAi?$AAz?$AAe?$AA?5?$AA?$DM?$AA?$DN?$AA?5?$AAS?$AAi?$AAz@ 0000000140197d28     toasty.obj
 0002:00052d50       ??_C@_1EA@INDCAEFK@?$AAi?$AAt?$AA?5?$AA?$DO?$AA?$DN?$AA?5?$AAD?$AAa?$AAt?$AAa?$AA?5?$AA?$CG?$AA?$CG?$AA?5?$AAi@ 0000000140197d50     toasty.obj
 0002:00052da0       ??_C@_0BI@CFPLBAOH@invalid?5string?5position@ 0000000140197da0     toasty.obj
 0002:00052dc0       ??_C@_1JG@FHELFBIM@?$AAC?$AA?3?$AA?2?$AAU?$AAs?$AAe?$AAr?$AAs?$AA?2?$AAj?$AAs?$AAa?$AAn?$AAc?$AA?2@ 0000000140197dc0     toasty.obj
 0002:00052e78       ??_C@_1DK@BGNCJAPL@?$AAi?$AA?5?$AA?$DO?$AA?$DN?$AA?5?$AA0?$AA?5?$AA?$CG?$AA?$CG?$AA?5?$AAi?$AA?5?$AA?$DM?$AA?5?$AAt@ 0000000140197e78     toasty.obj
 0002:00052ec0       ??_C@_0BA@FOIKENOD@vector?5too?5long@ 0000000140197ec0     toasty.obj
 0002:00052ee0       ??_C@_1FE@GEHGFLGL@?$AAn?$AA?5?$AA?$DO?$AA?$DN?$AA?5?$AA0?$AA?5?$AA?$CG?$AA?$CG?$AA?5?$AAn?$AA?5?$AA?$DM?$AA?5?$AAC@ 0000000140197ee0     toasty.obj
 0002:00052f50       ??_C@_1JG@CDNDLIAD@?$AAC?$AA?3?$AA?2?$AAU?$AAs?$AAe?$AAr?$AAs?$AA?2?$AAj?$AAs?$AAa?$AAn?$AAc?$AA?2@ 0000000140197f50     toasty.obj
 0002:00053010       ??_C@_1JK@GMJGJHCF@?$AAC?$AA?3?$AA?2?$AAU?$AAs?$AAe?$AAr?$AAs?$AA?2?$AAj?$AAs?$AAa?$AAn?$AAc?$AA?2@ 0000000140198010     toasty.obj
 0002:000530c8       ??_C@_1CG@KOFHLCJL@?$AAi?$AA?5?$AA?$DM?$AA?5?$AAt?$AAh?$AAi?$AAs?$AA?9?$AA?$DO?$AAl?$AAe?$AAn?$AAg?$AAt@ 00000001401980c8     toasty.obj
 0002:00053100       ??_C@_1KA@DLGPFCDD@?$AAC?$AA?3?$AA?2?$AAU?$AAs?$AAe?$AAr?$AAs?$AA?2?$AAj?$AAs?$AAa?$AAn?$AAc?$AA?2@ 0000000140198100     toasty.obj
 0002:000531c0       ??_C@_1II@JJEBDBC@?$AAa?$AAb?$AAs?$AA?$CI?$AAa?$AAs?$AAp?$AAe?$AAc?$AAt?$AA?5?$AA?9?$AA?5?$AAs?$AAt@ 00000001401981c0     toasty.obj
 0002:00053264       __real@00000000            0000000140198264     toasty.obj
 0002:00053268       __real@0000000000000000    0000000140198268     toasty.obj
 0002:00053274       __real@00800000            0000000140198274     toasty.obj
 0002:00053278       __real@1e3ce508            0000000140198278     toasty.obj
 0002:0005327c       __real@34000000            000000014019827c     toasty.obj
 0002:00053280       __real@358637bd            0000000140198280     toasty.obj
 0002:00053284       __real@3727c5ac            0000000140198284     toasty.obj
 0002:00053288       __real@38d1b717            0000000140198288     toasty.obj
 0002:0005328c       __real@3a03126f            000000014019828c     toasty.obj
 0002:00053290       __real@3b808081            0000000140198290     toasty.obj
 0002:00053294       __real@3ba3d70a            0000000140198294     toasty.obj
 0002:00053298       __real@3c23d70a            0000000140198298     toasty.obj
 0002:0005329c       __real@3c888889            000000014019829c     toasty.obj
 0002:000532a0       __real@3c8efa35            00000001401982a0     toasty.obj
 0002:000532a4       __real@3ca3d70a            00000001401982a4     toasty.obj
 0002:000532a8       __real@3cdd2f1b            00000001401982a8     toasty.obj
 0002:000532ac       __real@3d23d70a            00000001401982ac     toasty.obj
 0002:000532b0       __real@3d4ccccd            00000001401982b0     toasty.obj
 0002:000532b4       __real@3d75c28f            00000001401982b4     toasty.obj
 0002:000532b8       __real@3d8f5c29            00000001401982b8     toasty.obj
 0002:000532bc       __real@3da3d70a            00000001401982bc     toasty.obj
 0002:000532c0       __real@3db851ec            00000001401982c0     toasty.obj
 0002:000532c4       __real@3dcccccd            00000001401982c4     toasty.obj
 0002:000532c8       __real@3de147ae            00000001401982c8     toasty.obj
 0002:000532cc       __real@3e000000            00000001401982cc     toasty.obj
 0002:000532d0       __real@3e09374c            00000001401982d0     toasty.obj
 0002:000532d4       __real@3e0f5c29            00000001401982d4     toasty.obj
 0002:000532d8       __real@3e19999a            00000001401982d8     toasty.obj
 0002:000532dc       __real@3e23d70a            00000001401982dc     toasty.obj
 0002:000532e0       __real@3e2aaaab            00000001401982e0     toasty.obj
 0002:000532e4       __real@3e2e147b            00000001401982e4     toasty.obj
 0002:000532e8       __real@3e428f5c            00000001401982e8     toasty.obj
 0002:000532ec       __real@3e4ccccd            00000001401982ec     toasty.obj
 0002:000532f0       __real@3e6b851f            00000001401982f0     toasty.obj
 0002:000532f4       __real@3e75c28f            00000001401982f4     toasty.obj
 0002:000532f8       __real@3e800000            00000001401982f8     toasty.obj
 0002:000532fc       __real@3e851eb8            00000001401982fc     toasty.obj
 0002:00053300       __real@3e8a3d71            0000000140198300     toasty.obj
 0002:00053304       __real@3e8ccccd            0000000140198304     toasty.obj
 0002:00053308       __real@3e8f5c29            0000000140198308     toasty.obj
 0002:0005330c       __real@3e947ae1            000000014019830c     toasty.obj
 0002:00053310       __real@3e99999a            0000000140198310     toasty.obj
 0002:00053314       __real@3e9eb852            0000000140198314     toasty.obj
 0002:00053318       __real@3ea3d70a            0000000140198318     toasty.obj
 0002:00053320       __real@3eb0c6f7a0000000    0000000140198320     toasty.obj
 0002:0005332c       __real@3eb33333            000000014019832c     toasty.obj
 0002:00053330       __real@3ec28f5c            0000000140198330     toasty.obj
 0002:00053334       __real@3ec7ae14            0000000140198334     toasty.obj
 0002:00053338       __real@3ec8c8c9            0000000140198338     toasty.obj
 0002:0005333c       __real@3ecccccd            000000014019833c     toasty.obj
 0002:00053340       __real@3ed1eb85            0000000140198340     toasty.obj
 0002:00053344       __real@3ed70a3d            0000000140198344     toasty.obj
 0002:00053348       __real@3edc28f6            0000000140198348     toasty.obj
 0002:0005334c       __real@3ee147ae            000000014019834c     toasty.obj
 0002:00053350       __real@3ee66666            0000000140198350     toasty.obj
 0002:00053354       __real@3eeb851f            0000000140198354     toasty.obj
 0002:00053358       __real@3ef0a3d7            0000000140198358     toasty.obj
 0002:0005335c       __real@3ef5c28f            000000014019835c     toasty.obj
 0002:00053360       __real@3efae148            0000000140198360     toasty.obj
 0002:00053364       __real@3f000000            0000000140198364     toasty.obj
 0002:00053368       __real@3f028f5c            0000000140198368     toasty.obj
 0002:0005336c       __real@3f051eb8            000000014019836c     toasty.obj
 0002:00053370       __real@3f07ae14            0000000140198370     toasty.obj
 0002:00053374       __real@3f0a3d71            0000000140198374     toasty.obj
 0002:00053378       __real@3f0ccccd            0000000140198378     toasty.obj
 0002:0005337c       __real@3f11eb85            000000014019837c     toasty.obj
 0002:00053380       __real@3f159596            0000000140198380     toasty.obj
 0002:00053384       __real@3f170a3d            0000000140198384     toasty.obj
 0002:00053388       __real@3f19999a            0000000140198388     toasty.obj
 0002:0005338c       __real@3f1c28f6            000000014019838c     toasty.obj
 0002:00053390       __real@3f1eb852            0000000140198390     toasty.obj
 0002:00053394       __real@3f2147ae            0000000140198394     toasty.obj
 0002:00053398       __real@3f23d70a            0000000140198398     toasty.obj
 0002:0005339c       __real@3f266666            000000014019839c     toasty.obj
 0002:000533a0       __real@3f2b851f            00000001401983a0     toasty.obj
 0002:000533a4       __real@3f2e147b            00000001401983a4     toasty.obj
 0002:000533a8       __real@3f30a3d7            00000001401983a8     toasty.obj
 0002:000533ac       __real@3f333333            00000001401983ac     toasty.obj
 0002:000533b0       __real@3f350481            00000001401983b0     toasty.obj
 0002:000533b4       __real@3f35c28f            00000001401983b4     toasty.obj
 0002:000533b8       __real@3f3851ec            00000001401983b8     toasty.obj
 0002:000533bc       __real@3f3d70a4            00000001401983bc     toasty.obj
 0002:000533c0       __real@3f400000            00000001401983c0     toasty.obj
 0002:000533c4       __real@3f47ae14            00000001401983c4     toasty.obj
 0002:000533c8       __real@3f490fdb            00000001401983c8     toasty.obj
 0002:000533cc       __real@3f4a3d71            00000001401983cc     toasty.obj
 0002:000533d0       __real@3f4ccccd            00000001401983d0     toasty.obj
 0002:000533d4       __real@3f51eb85            00000001401983d4     toasty.obj
 0002:000533d8       __real@3f547ae1            00000001401983d8     toasty.obj
 0002:000533dc       __real@3f59999a            00000001401983dc     toasty.obj
 0002:000533e0       __real@3f5c28f6            00000001401983e0     toasty.obj
 0002:000533e4       __real@3f5db22d            00000001401983e4     toasty.obj
 0002:000533e8       __real@3f5db3d0            00000001401983e8     toasty.obj
 0002:000533ec       __real@3f5eb852            00000001401983ec     toasty.obj
 0002:000533f0       __real@3f6147ae            00000001401983f0     toasty.obj
 0002:000533f4       __real@3f666666            00000001401983f4     toasty.obj
 0002:000533f8       __real@3f6b851f            00000001401983f8     toasty.obj
 0002:000533fc       __real@3f6dedee            00000001401983fc     toasty.obj
 0002:00053400       __real@3f70a3d7            0000000140198400     toasty.obj
 0002:00053404       __real@3f733333            0000000140198404     toasty.obj
 0002:00053408       __real@3f75c28f            0000000140198408     toasty.obj
 0002:0005340c       __real@3f7ae148            000000014019840c     toasty.obj
 0002:00053410       __real@3f7d70a4            0000000140198410     toasty.obj
 0002:00053414       __real@3f7ff972            0000000140198414     toasty.obj
 0002:00053418       __real@3f7fff58            0000000140198418     toasty.obj
 0002:0005341c       __real@3f7fffef            000000014019841c     toasty.obj
 0002:00053420       __real@3f800000            0000000140198420     toasty.obj
 0002:00053424       __real@3f8147ae            0000000140198424     toasty.obj
 0002:00053428       __real@3f847ae140000000    0000000140198428     toasty.obj
 0002:00053434       __real@3f8ccccd            0000000140198434     toasty.obj
 0002:00053438       __real@3f91111120000000    0000000140198438     toasty.obj
 0002:00053444       __real@3f99999a            0000000140198444     toasty.obj
 0002:00053448       __real@3fa00000            0000000140198448     toasty.obj
 0002:0005344c       __real@3fa66666            000000014019844c     toasty.obj
 0002:00053450       __real@3faccccd            0000000140198450     toasty.obj
 0002:00053454       __real@3fb33333            0000000140198454     toasty.obj
 0002:00053458       __real@3fc00000            0000000140198458     toasty.obj
 0002:0005345c       __real@3fc90fdb            000000014019845c     toasty.obj
 0002:00053460       __real@3fd0000000000000    0000000140198460     toasty.obj
 0002:00053470       __real@3fe0000000000000    0000000140198470     toasty.obj
 0002:00053480       __real@3feffffde0000000    0000000140198480     toasty.obj
 0002:00053490       __real@3ff0000000000000    0000000140198490     toasty.obj
 0002:0005349c       __real@40000000            000000014019849c     toasty.obj
 0002:000534a0       __real@40200000            00000001401984a0     toasty.obj
 0002:000534a4       __real@403f5c29            00000001401984a4     toasty.obj
 0002:000534a8       __real@40400000            00000001401984a8     toasty.obj
 0002:000534ac       __real@40490e56            00000001401984ac     toasty.obj
 0002:000534b0       __real@40490fdb            00000001401984b0     toasty.obj
 0002:000534b8       __real@4059000000000000    00000001401984b8     toasty.obj
 0002:000534c4       __real@40600000            00000001401984c4     toasty.obj
 0002:000534c8       __real@40666666            00000001401984c8     toasty.obj
 0002:000534cc       __real@40800000            00000001401984cc     toasty.obj
 0002:000534d0       __real@408f400000000000    00000001401984d0     toasty.obj
 0002:000534dc       __real@40a00000            00000001401984dc     toasty.obj
 0002:000534e0       __real@40b00000            00000001401984e0     toasty.obj
 0002:000534e4       __real@40c00000            00000001401984e4     toasty.obj
 0002:000534e8       __real@40c80000            00000001401984e8     toasty.obj
 0002:000534ec       __real@40c90fdb            00000001401984ec     toasty.obj
 0002:000534f0       __real@40e00000            00000001401984f0     toasty.obj
 0002:000534f4       __real@40e80000            00000001401984f4     toasty.obj
 0002:000534f8       __real@41000000            00000001401984f8     toasty.obj
 0002:000534fc       __real@41100000            00000001401984fc     toasty.obj
 0002:00053500       __real@41200000            0000000140198500     toasty.obj
 0002:00053504       __real@41233333            0000000140198504     toasty.obj
 0002:00053508       __real@41400000            0000000140198508     toasty.obj
 0002:0005350c       __real@41500000            000000014019850c     toasty.obj
 0002:00053510       __real@41600000            0000000140198510     toasty.obj
 0002:00053514       __real@41700000            0000000140198514     toasty.obj
 0002:00053518       __real@41800000            0000000140198518     toasty.obj
 0002:0005351c       __real@41900000            000000014019851c     toasty.obj
 0002:00053520       __real@41980000            0000000140198520     toasty.obj
 0002:00053524       __real@41a00000            0000000140198524     toasty.obj
 0002:00053528       __real@41a80000            0000000140198528     toasty.obj
 0002:0005352c       __real@41c00000            000000014019852c     toasty.obj
 0002:00053530       __real@41c80000            0000000140198530     toasty.obj
 0002:00053534       __real@41e00000            0000000140198534     toasty.obj
 0002:00053538       __real@41f00000            0000000140198538     toasty.obj
 0002:0005353c       __real@41f80000            000000014019853c     toasty.obj
 0002:00053540       __real@42000000            0000000140198540     toasty.obj
 0002:00053544       __real@420c0000            0000000140198544     toasty.obj
 0002:00053548       __real@42200000            0000000140198548     toasty.obj
 0002:0005354c       __real@42400000            000000014019854c     toasty.obj
 0002:00053550       __real@42480000            0000000140198550     toasty.obj
 0002:00053554       __real@42700000            0000000140198554     toasty.obj
 0002:00053558       __real@42800000            0000000140198558     toasty.obj
 0002:0005355c       __real@42820000            000000014019855c     toasty.obj
 0002:00053560       __real@428c0000            0000000140198560     toasty.obj
 0002:00053564       __real@42a00000            0000000140198564     toasty.obj
 0002:00053568       __real@42b20000            0000000140198568     toasty.obj
 0002:0005356c       __real@42b40000            000000014019856c     toasty.obj
 0002:00053570       __real@42c80000            0000000140198570     toasty.obj
 0002:00053574       __real@42f00000            0000000140198574     toasty.obj
 0002:00053578       __real@42f60000            0000000140198578     toasty.obj
 0002:0005357c       __real@430c0000            000000014019857c     toasty.obj
 0002:00053580       __real@430c6bf526340000    0000000140198580     toasty.obj
 0002:0005358c       __real@43160000            000000014019858c     toasty.obj
 0002:00053590       __real@43200000            0000000140198590     toasty.obj
 0002:00053594       __real@43340000            0000000140198594     toasty.obj
 0002:00053598       __real@43480000            0000000140198598     toasty.obj
 0002:0005359c       __real@437f0000            000000014019859c     toasty.obj
 0002:000535a0       __real@43820000            00000001401985a0     toasty.obj
 0002:000535a4       __real@43960000            00000001401985a4     toasty.obj
 0002:000535a8       __real@43b40000            00000001401985a8     toasty.obj
 0002:000535ac       __real@43c80000            00000001401985ac     toasty.obj
 0002:000535b0       __real@43d70000            00000001401985b0     toasty.obj
 0002:000535b4       __real@43dc0000            00000001401985b4     toasty.obj
 0002:000535b8       __real@43e0000000000000    00000001401985b8     toasty.obj
 0002:000535c4       __real@43e10000            00000001401985c4     toasty.obj
 0002:000535c8       __real@43fa0000            00000001401985c8     toasty.obj
 0002:000535cc       __real@44020000            00000001401985cc     toasty.obj
 0002:000535d0       __real@44098000            00000001401985d0     toasty.obj
 0002:000535d4       __real@44160000            00000001401985d4     toasty.obj
 0002:000535d8       __real@44228000            00000001401985d8     toasty.obj
 0002:000535dc       __real@442a0000            00000001401985dc     toasty.obj
 0002:000535e0       __real@44333333            00000001401985e0     toasty.obj
 0002:000535e4       __real@44480000            00000001401985e4     toasty.obj
 0002:000535e8       __real@447a0000            00000001401985e8     toasty.obj
 0002:000535ec       __real@44b33333            00000001401985ec     toasty.obj
 0002:000535f0       __real@44bb8000            00000001401985f0     toasty.obj
 0002:000535f4       __real@44db2000            00000001401985f4     toasty.obj
 0002:000535f8       __real@45333333            00000001401985f8     toasty.obj
 0002:000535fc       __real@46800000            00000001401985fc     toasty.obj
 0002:00053600       __real@46c17e00            0000000140198600     toasty.obj
 0002:00053604       __real@46fffe00            0000000140198604     toasty.obj
 0002:00053608       __real@477fff00            0000000140198608     toasty.obj
 0002:0005360c       __real@47800000            000000014019860c     toasty.obj
 0002:00053610       __real@47efffffe0000000    0000000140198610     toasty.obj
 0002:0005361c       __real@4b800000            000000014019861c     toasty.obj
 0002:00053620       __real@501502f9            0000000140198620     toasty.obj
 0002:00053624       __real@5f000000            0000000140198624     toasty.obj
 0002:00053628       __real@7effffff            0000000140198628     toasty.obj
 0002:0005362c       __real@7f7fffff            000000014019862c     toasty.obj
 0002:00053630       __real@7fdfffffffffffff    0000000140198630     toasty.obj
 0002:00053640       __real@7fefffffffffffff    0000000140198640     toasty.obj
 0002:0005364c       __real@80800000            000000014019864c     toasty.obj
 0002:00053650       __real@bdcccccd            0000000140198650     toasty.obj
 0002:00053654       __real@be800000            0000000140198654     toasty.obj
 0002:00053658       __real@be99999a            0000000140198658     toasty.obj
 0002:0005365c       __real@beaaaaab            000000014019865c     toasty.obj
 0002:00053660       __real@bf000000            0000000140198660     toasty.obj
 0002:00053664       __real@bf400000            0000000140198664     toasty.obj
 0002:00053668       __real@bf5db22d            0000000140198668     toasty.obj
 0002:0005366c       __real@bf5db3d0            000000014019866c     toasty.obj
 0002:00053670       __real@bf800000            0000000140198670     toasty.obj
 0002:00053678       __real@bfe0000000000000    0000000140198678     toasty.obj
 0002:00053684       __real@c0000000            0000000140198684     toasty.obj
 0002:00053688       __real@c059000000000000    0000000140198688     toasty.obj
 0002:00053694       __real@c1200000            0000000140198694     toasty.obj
 0002:00053698       __real@c1400000            0000000140198698     toasty.obj
 0002:0005369c       __real@c1a00000            000000014019869c     toasty.obj
 0002:000536a0       __real@c2b20000            00000001401986a0     toasty.obj
 0002:000536a4       __real@c2b40000            00000001401986a4     toasty.obj
 0002:000536a8       __real@c2c80000            00000001401986a8     toasty.obj
 0002:000536b0       __real@c30c6bf526340000    00000001401986b0     toasty.obj
 0002:000536bc       __real@c3200000            00000001401986bc     toasty.obj
 0002:000536c0       __real@c3b40000            00000001401986c0     toasty.obj
 0002:000536c4       __real@c6c18000            00000001401986c4     toasty.obj
 0002:000536c8       __real@c87a0000            00000001401986c8     toasty.obj
 0002:000536cc       __real@cb800000            00000001401986cc     toasty.obj
 0002:000536d0       __real@d01502f9            00000001401986d0     toasty.obj
 0002:000536d4       __real@feffffff            00000001401986d4     toasty.obj
 0002:000536d8       __real@ff7fffff            00000001401986d8     toasty.obj
 0002:000536e0       __real@ffdfffffffffffff    00000001401986e0     toasty.obj
 0002:000536f0       __real@ffefffffffffffff    00000001401986f0     toasty.obj
 0002:00053700       __xmm@00000200000002000000020000000200 0000000140198700     toasty.obj
 0002:00053720       __xmm@00080008000800080008000800080008 0000000140198720     toasty.obj
 0002:00053740       __xmm@00ff00ff00ff00ff00ff00ff00ff00ff 0000000140198740     toasty.obj
 0002:00053760       __xmm@01010000010100000101000001010000 0000000140198760     toasty.obj
 0002:00053780       __xmm@08a914e808a914e808a914e808a914e8 0000000140198780     toasty.obj
 0002:000537a0       __xmm@11c8e09e11c8e09e11c8e09e11c8e09e 00000001401987a0     toasty.obj
 0002:000537c0       __xmm@11c8f9c311c8f9c311c8f9c311c8f9c3 00000001401987c0     toasty.obj
 0002:000537e0       __xmm@12d0046b12d0046b12d0046b12d0046b 00000001401987e0     toasty.obj
 0002:00053800       __xmm@166f166f166f166f166f166f166f166f 0000000140198800     toasty.obj
 0002:00053820       __xmm@1c5a1c5a1c5a1c5a1c5a1c5a1c5a1c5a 0000000140198820     toasty.obj
 0002:00053840       __xmm@80000000000000008000000000000000 0000000140198840     toasty.obj
 0002:00053860       __xmm@80000000800000008000000080000000 0000000140198860     toasty.obj
 0002:00053880       __xmm@80808080808080808080808080808080 0000000140198880     toasty.obj
 0002:000538a0       __xmm@e09ee565e09ee565e09ee565e09ee565 00000001401988a0     toasty.obj
 0002:000538c0       __xmm@e9cf12d0e9cf12d0e9cf12d0e9cf12d0 00000001401988c0     toasty.obj
 0002:000538e0       __xmm@eb1a08a9eb1a08a9eb1a08a9eb1a08a9 00000001401988e0     toasty.obj
 0002:00053900       __xmm@f493f493f493f493f493f493f493f493 0000000140198900     toasty.obj
 0002:00053920       __xmm@f9c31a9df9c31a9df9c31a9df9c31a9d 0000000140198920     toasty.obj
 0002:00053940       __xmm@fa7efa7efa7efa7efa7efa7efa7efa7e 0000000140198940     toasty.obj
 0002:00053960       __xmm@ffffffffffffffffffffffffffffffff 0000000140198960     MSVCRT:utility.obj
 0002:00053990       ??_C@_1EC@JIJBPKFM@?$AAa?$AAp?$AAi?$AA?9?$AAm?$AAs?$AA?9?$AAw?$AAi?$AAn?$AA?9?$AAc?$AAo?$AAr?$AAe@ 0000000140198990     MSVCRT:thread_safe_statics.obj
 0002:000539e0       ??_C@_1BK@MGMFAEKH@?$AAk?$AAe?$AAr?$AAn?$AAe?$AAl?$AA3?$AA2?$AA?4?$AAd?$AAl?$AAl@ 00000001401989e0     MSVCRT:thread_safe_statics.obj
 0002:00053a00       ??_C@_0BJ@JEBJOJFJ@SleepConditionVariableCS@ 0000000140198a00     MSVCRT:thread_safe_statics.obj
 0002:00053a20       ??_C@_0BJ@PGPPEPCC@WakeAllConditionVariable@ 0000000140198a20     MSVCRT:thread_safe_statics.obj
 0002:00053a48       ??_7type_info@@6B@         0000000140198a48     MSVCRT:std_type_info_static.obj
 0002:00053a58       ??_C@_0P@GHFPNOJB@bad?5allocation@ 0000000140198a58     MSVCRT:throw_bad_alloc.obj
 0002:00053a70       ??_C@_0BJ@HFNMHALN@Out?5of?5memory?5?9?5aborting@ 0000000140198a70     SDL2main:SDL_windows_main.obj
 0002:00053a90       ??_C@_0M@HFFOIJBL@Fatal?5Error@ 0000000140198a90     SDL2main:SDL_windows_main.obj
 0002:00053aa0       ??_C@_08NBDJLNFA@UTF?916LE@ 0000000140198aa0     SDL2main:SDL_windows_main.obj
 0002:00053aac       ??_C@_05EGJIMALK@UTF?98@   0000000140198aac     SDL2main:SDL_windows_main.obj
 0002:00053ac0       _load_config_used          0000000140198ac0     MSVCRT:loadcfg.obj
 0002:00053f80       __CastGuardVftablesStart   0000000140198f80     MSVCRT:guard_support.obj
 0002:00054180       __CastGuardVftablesEnd     0000000140199180     MSVCRT:guard_support.obj
 0002:00054320       _tls_used                  0000000140199320     MSVCRT:tlssup.obj
 0002:00054450       ??_R4exception@std@@6B@    0000000140199450     toasty.obj
 0002:00054480       ??_R3exception@std@@8      0000000140199480     toasty.obj
 0002:00054498       ??_R2exception@std@@8      0000000140199498     toasty.obj
 0002:000544a8       ??_R1A@?0A@EA@exception@std@@8 00000001401994a8     toasty.obj
 0002:000544d8       ??_R4bad_alloc@std@@6B@    00000001401994d8     toasty.obj
 0002:00054508       ??_R3bad_alloc@std@@8      0000000140199508     toasty.obj
 0002:00054520       ??_R2bad_alloc@std@@8      0000000140199520     toasty.obj
 0002:00054538       ??_R1A@?0A@EA@bad_alloc@std@@8 0000000140199538     toasty.obj
 0002:00054568       ??_R4bad_array_new_length@std@@6B@ 0000000140199568     toasty.obj
 0002:00054598       ??_R3bad_array_new_length@std@@8 0000000140199598     toasty.obj
 0002:000545b0       ??_R2bad_array_new_length@std@@8 00000001401995b0     toasty.obj
 0002:000545d8       ??_R1A@?0A@EA@bad_array_new_length@std@@8 00000001401995d8     toasty.obj
 0002:00054608       ??_R4type_info@@6B@        0000000140199608     MSVCRT:std_type_info_static.obj
 0002:00054638       ??_R3type_info@@8          0000000140199638     MSVCRT:std_type_info_static.obj
 0002:00054650       ??_R2type_info@@8          0000000140199650     MSVCRT:std_type_info_static.obj
 0002:00054660       ??_R1A@?0A@EA@type_info@@8 0000000140199660     MSVCRT:std_type_info_static.obj
 0002:00054910       __rtc_iaa                  0000000140199910     MSVCRT:initsect.obj
 0002:00054a20       __rtc_izz                  0000000140199a20     MSVCRT:initsect.obj
 0002:00054b30       __rtc_taa                  0000000140199b30     MSVCRT:initsect.obj
 0002:00054c40       __rtc_tzz                  0000000140199c40     MSVCRT:initsect.obj
 0002:0005ca30       _TI3?AVbad_array_new_length@std@@ 00000001401a1a30     toasty.obj
 0002:0005ca50       _CTA3?AVbad_array_new_length@std@@ 00000001401a1a50     toasty.obj
 0002:0005ca70       _CT??_R0?AVbad_array_new_length@std@@@8??0bad_array_new_length@std@@QEAA@AEBV01@@Z24 00000001401a1a70     toasty.obj
 0002:0005ca98       _CT??_R0?AVbad_alloc@std@@@8??0bad_alloc@std@@QEAA@AEBV01@@Z24 00000001401a1a98     toasty.obj
 0002:0005cac0       _CT??_R0?AVexception@std@@@8??0exception@std@@QEAA@AEBV01@@Z24 00000001401a1ac0     toasty.obj
 0002:0005cae8       _TI2?AVbad_alloc@std@@     00000001401a1ae8     MSVCRT:throw_bad_alloc.obj
 0002:0005cb08       _CTA2?AVbad_alloc@std@@    00000001401a1b08     MSVCRT:throw_bad_alloc.obj
 0003:00005764       __scrt_native_dllmain_reason 00000001401a7764     MSVCRT:utility.obj
 0003:00005768       _Init_global_epoch         00000001401a7768     MSVCRT:thread_safe_statics.obj
 0003:00005770       __security_cookie          00000001401a7770     MSVCRT:gs_cookie.obj
 0003:00005778       __security_cookie_complement 00000001401a7778     MSVCRT:gs_cookie.obj
 0003:00005784       _fltused                   00000001401a7784     MSVCRT:fltused.obj
 0003:00005788       __isa_available            00000001401a7788     MSVCRT:cpu_disp.obj
 0003:0000578c       __isa_enabled              00000001401a778c     MSVCRT:cpu_disp.obj
 0003:00005790       __memset_fast_string_threshold 00000001401a7790     MSVCRT:cpu_disp.obj
 0003:00005798       __memset_nt_threshold      00000001401a7798     MSVCRT:cpu_disp.obj
 0003:000057a4       __scrt_default_matherr     00000001401a77a4     MSVCRT:matherr.obj
 0003:000057b0       __scrt_ucrt_dll_is_in_use  00000001401a77b0     MSVCRT:ucrt_stubs.obj
 0003:00005958       ??_R0?AVbad_array_new_length@std@@@8 00000001401a7958     toasty.obj
 0003:00005990       ??_R0?AVbad_alloc@std@@@8  00000001401a7990     toasty.obj
 0003:000059c0       ??_R0?AVexception@std@@@8  00000001401a79c0     toasty.obj
 0003:00005af0       ??_R0?AVtype_info@@@8      00000001401a7af0     MSVCRT:std_type_info_static.obj
 0003:00005c20       ?GImGuiDemoMarkerCallback@@3P6AXPEBDH0PEAX@ZEA 00000001401a7c20     toasty.obj
 0003:00005c28       ?GImGuiDemoMarkerCallbackUserData@@3PEAXEA 00000001401a7c28     toasty.obj
 0003:00005c30       GLVersion                  00000001401a7c30     toasty.obj
 0003:00005c38       GLAD_GL_VERSION_1_0        00000001401a7c38     toasty.obj
 0003:00005c3c       GLAD_GL_VERSION_1_1        00000001401a7c3c     toasty.obj
 0003:00005c40       glad_glCullFace            00000001401a7c40     toasty.obj
 0003:00005c48       glad_glFrontFace           00000001401a7c48     toasty.obj
 0003:00005c50       glad_glHint                00000001401a7c50     toasty.obj
 0003:00005c58       glad_glLineWidth           00000001401a7c58     toasty.obj
 0003:00005c60       glad_glPointSize           00000001401a7c60     toasty.obj
 0003:00005c68       glad_glPolygonMode         00000001401a7c68     toasty.obj
 0003:00005c70       glad_glScissor             00000001401a7c70     toasty.obj
 0003:00005c78       glad_glTexParameterf       00000001401a7c78     toasty.obj
 0003:00005c80       glad_glTexParameterfv      00000001401a7c80     toasty.obj
 0003:00005c88       glad_glTexParameteri       00000001401a7c88     toasty.obj
 0003:00005c90       glad_glTexParameteriv      00000001401a7c90     toasty.obj
 0003:00005c98       glad_glTexImage1D          00000001401a7c98     toasty.obj
 0003:00005ca0       glad_glTexImage2D          00000001401a7ca0     toasty.obj
 0003:00005ca8       glad_glDrawBuffer          00000001401a7ca8     toasty.obj
 0003:00005cb0       glad_glClear               00000001401a7cb0     toasty.obj
 0003:00005cb8       glad_glClearColor          00000001401a7cb8     toasty.obj
 0003:00005cc0       glad_glClearStencil        00000001401a7cc0     toasty.obj
 0003:00005cc8       glad_glClearDepth          00000001401a7cc8     toasty.obj
 0003:00005cd0       glad_glStencilMask         00000001401a7cd0     toasty.obj
 0003:00005cd8       glad_glColorMask           00000001401a7cd8     toasty.obj
 0003:00005ce0       glad_glDepthMask           00000001401a7ce0     toasty.obj
 0003:00005ce8       glad_glDisable             00000001401a7ce8     toasty.obj
 0003:00005cf0       glad_glEnable              00000001401a7cf0     toasty.obj
 0003:00005cf8       glad_glFinish              00000001401a7cf8     toasty.obj
 0003:00005d00       glad_glFlush               00000001401a7d00     toasty.obj
 0003:00005d08       glad_glBlendFunc           00000001401a7d08     toasty.obj
 0003:00005d10       glad_glLogicOp             00000001401a7d10     toasty.obj
 0003:00005d18       glad_glStencilFunc         00000001401a7d18     toasty.obj
 0003:00005d20       glad_glStencilOp           00000001401a7d20     toasty.obj
 0003:00005d28       glad_glDepthFunc           00000001401a7d28     toasty.obj
 0003:00005d30       glad_glPixelStoref         00000001401a7d30     toasty.obj
 0003:00005d38       glad_glPixelStorei         00000001401a7d38     toasty.obj
 0003:00005d40       glad_glReadBuffer          00000001401a7d40     toasty.obj
 0003:00005d48       glad_glReadPixels          00000001401a7d48     toasty.obj
 0003:00005d50       glad_glGetBooleanv         00000001401a7d50     toasty.obj
 0003:00005d58       glad_glGetDoublev          00000001401a7d58     toasty.obj
 0003:00005d60       glad_glGetError            00000001401a7d60     toasty.obj
 0003:00005d68       glad_glGetFloatv           00000001401a7d68     toasty.obj
 0003:00005d70       glad_glGetIntegerv         00000001401a7d70     toasty.obj
 0003:00005d78       glad_glGetString           00000001401a7d78     toasty.obj
 0003:00005d80       glad_glGetTexImage         00000001401a7d80     toasty.obj
 0003:00005d88       glad_glGetTexParameterfv   00000001401a7d88     toasty.obj
 0003:00005d90       glad_glGetTexParameteriv   00000001401a7d90     toasty.obj
 0003:00005d98       glad_glGetTexLevelParameterfv 00000001401a7d98     toasty.obj
 0003:00005da0       glad_glGetTexLevelParameteriv 00000001401a7da0     toasty.obj
 0003:00005da8       glad_glIsEnabled           00000001401a7da8     toasty.obj
 0003:00005db0       glad_glDepthRange          00000001401a7db0     toasty.obj
 0003:00005db8       glad_glViewport            00000001401a7db8     toasty.obj
 0003:00005dc0       glad_glDrawArrays          00000001401a7dc0     toasty.obj
 0003:00005dc8       glad_glDrawElements        00000001401a7dc8     toasty.obj
 0003:00005dd0       glad_glPolygonOffset       00000001401a7dd0     toasty.obj
 0003:00005dd8       glad_glCopyTexImage1D      00000001401a7dd8     toasty.obj
 0003:00005de0       glad_glCopyTexImage2D      00000001401a7de0     toasty.obj
 0003:00005de8       glad_glCopyTexSubImage1D   00000001401a7de8     toasty.obj
 0003:00005df0       glad_glCopyTexSubImage2D   00000001401a7df0     toasty.obj
 0003:00005df8       glad_glTexSubImage1D       00000001401a7df8     toasty.obj
 0003:00005e00       glad_glTexSubImage2D       00000001401a7e00     toasty.obj
 0003:00005e08       glad_glBindTexture         00000001401a7e08     toasty.obj
 0003:00005e10       glad_glDeleteTextures      00000001401a7e10     toasty.obj
 0003:00005e18       glad_glGenTextures         00000001401a7e18     toasty.obj
 0003:00005e20       glad_glIsTexture           00000001401a7e20     toasty.obj
 0003:00005e28       GLAD_GL_VERSION_1_2        00000001401a7e28     toasty.obj
 0003:00005e2c       GLAD_GL_VERSION_1_3        00000001401a7e2c     toasty.obj
 0003:00005e30       glad_glDrawRangeElements   00000001401a7e30     toasty.obj
 0003:00005e38       glad_glTexImage3D          00000001401a7e38     toasty.obj
 0003:00005e40       glad_glTexSubImage3D       00000001401a7e40     toasty.obj
 0003:00005e48       glad_glCopyTexSubImage3D   00000001401a7e48     toasty.obj
 0003:00005e50       glad_glActiveTexture       00000001401a7e50     toasty.obj
 0003:00005e58       glad_glSampleCoverage      00000001401a7e58     toasty.obj
 0003:00005e60       glad_glCompressedTexImage3D 00000001401a7e60     toasty.obj
 0003:00005e68       glad_glCompressedTexImage2D 00000001401a7e68     toasty.obj
 0003:00005e70       glad_glCompressedTexImage1D 00000001401a7e70     toasty.obj
 0003:00005e78       glad_glCompressedTexSubImage3D 00000001401a7e78     toasty.obj
 0003:00005e80       glad_glCompressedTexSubImage2D 00000001401a7e80     toasty.obj
 0003:00005e88       glad_glCompressedTexSubImage1D 00000001401a7e88     toasty.obj
 0003:00005e90       glad_glGetCompressedTexImage 00000001401a7e90     toasty.obj
 0003:00005e98       GLAD_GL_VERSION_1_4        00000001401a7e98     toasty.obj
 0003:00005e9c       GLAD_GL_VERSION_1_5        00000001401a7e9c     toasty.obj
 0003:00005ea0       glad_glBlendFuncSeparate   00000001401a7ea0     toasty.obj
 0003:00005ea8       glad_glMultiDrawArrays     00000001401a7ea8     toasty.obj
 0003:00005eb0       glad_glMultiDrawElements   00000001401a7eb0     toasty.obj
 0003:00005eb8       glad_glPointParameterf     00000001401a7eb8     toasty.obj
 0003:00005ec0       glad_glPointParameterfv    00000001401a7ec0     toasty.obj
 0003:00005ec8       glad_glPointParameteri     00000001401a7ec8     toasty.obj
 0003:00005ed0       glad_glPointParameteriv    00000001401a7ed0     toasty.obj
 0003:00005ed8       glad_glBlendColor          00000001401a7ed8     toasty.obj
 0003:00005ee0       glad_glBlendEquation       00000001401a7ee0     toasty.obj
 0003:00005ee8       glad_glGenQueries          00000001401a7ee8     toasty.obj
 0003:00005ef0       glad_glDeleteQueries       00000001401a7ef0     toasty.obj
 0003:00005ef8       glad_glIsQuery             00000001401a7ef8     toasty.obj
 0003:00005f00       glad_glBeginQuery          00000001401a7f00     toasty.obj
 0003:00005f08       glad_glEndQuery            00000001401a7f08     toasty.obj
 0003:00005f10       glad_glGetQueryiv          00000001401a7f10     toasty.obj
 0003:00005f18       glad_glGetQueryObjectiv    00000001401a7f18     toasty.obj
 0003:00005f20       glad_glGetQueryObjectuiv   00000001401a7f20     toasty.obj
 0003:00005f28       glad_glBindBuffer          00000001401a7f28     toasty.obj
 0003:00005f30       glad_glDeleteBuffers       00000001401a7f30     toasty.obj
 0003:00005f38       glad_glGenBuffers          00000001401a7f38     toasty.obj
 0003:00005f40       glad_glIsBuffer            00000001401a7f40     toasty.obj
 0003:00005f48       glad_glBufferData          00000001401a7f48     toasty.obj
 0003:00005f50       glad_glBufferSubData       00000001401a7f50     toasty.obj
 0003:00005f58       glad_glGetBufferSubData    00000001401a7f58     toasty.obj
 0003:00005f60       glad_glMapBuffer           00000001401a7f60     toasty.obj
 0003:00005f68       glad_glUnmapBuffer         00000001401a7f68     toasty.obj
 0003:00005f70       glad_glGetBufferParameteriv 00000001401a7f70     toasty.obj
 0003:00005f78       glad_glGetBufferPointerv   00000001401a7f78     toasty.obj
 0003:00005f80       GLAD_GL_VERSION_2_0        00000001401a7f80     toasty.obj
 0003:00005f84       GLAD_GL_VERSION_2_1        00000001401a7f84     toasty.obj
 0003:00005f88       glad_glBlendEquationSeparate 00000001401a7f88     toasty.obj
 0003:00005f90       glad_glDrawBuffers         00000001401a7f90     toasty.obj
 0003:00005f98       glad_glStencilOpSeparate   00000001401a7f98     toasty.obj
 0003:00005fa0       glad_glStencilFuncSeparate 00000001401a7fa0     toasty.obj
 0003:00005fa8       glad_glStencilMaskSeparate 00000001401a7fa8     toasty.obj
 0003:00005fb0       glad_glAttachShader        00000001401a7fb0     toasty.obj
 0003:00005fb8       glad_glBindAttribLocation  00000001401a7fb8     toasty.obj
 0003:00005fc0       glad_glCompileShader       00000001401a7fc0     toasty.obj
 0003:00005fc8       glad_glCreateProgram       00000001401a7fc8     toasty.obj
 0003:00005fd0       glad_glCreateShader        00000001401a7fd0     toasty.obj
 0003:00005fd8       glad_glDeleteProgram       00000001401a7fd8     toasty.obj
 0003:00005fe0       glad_glDeleteShader        00000001401a7fe0     toasty.obj
 0003:00005fe8       glad_glDetachShader        00000001401a7fe8     toasty.obj
 0003:00005ff0       glad_glDisableVertexAttribArray 00000001401a7ff0     toasty.obj
 0003:00005ff8       glad_glEnableVertexAttribArray 00000001401a7ff8     toasty.obj
 0003:00006000       glad_glGetActiveAttrib     00000001401a8000     toasty.obj
 0003:00006008       glad_glGetActiveUniform    00000001401a8008     toasty.obj
 0003:00006010       glad_glGetAttachedShaders  00000001401a8010     toasty.obj
 0003:00006018       glad_glGetAttribLocation   00000001401a8018     toasty.obj
 0003:00006020       ?GImGui@@3PEAUImGuiContext@@EA 00000001401a8020     toasty.obj
 0003:00006028       glad_glGetProgramiv        00000001401a8028     toasty.obj
 0003:00006030       glad_glGetProgramInfoLog   00000001401a8030     toasty.obj
 0003:00006038       glad_glGetShaderiv         00000001401a8038     toasty.obj
 0003:00006040       glad_glGetShaderInfoLog    00000001401a8040     toasty.obj
 0003:00006048       glad_glGetShaderSource     00000001401a8048     toasty.obj
 0003:00006050       glad_glGetUniformLocation  00000001401a8050     toasty.obj
 0003:00006058       glad_glGetUniformfv        00000001401a8058     toasty.obj
 0003:00006060       glad_glGetUniformiv        00000001401a8060     toasty.obj
 0003:00006068       glad_glGetVertexAttribdv   00000001401a8068     toasty.obj
 0003:00006070       glad_glGetVertexAttribfv   00000001401a8070     toasty.obj
 0003:00006078       glad_glGetVertexAttribiv   00000001401a8078     toasty.obj
 0003:00006080       glad_glGetVertexAttribPointerv 00000001401a8080     toasty.obj
 0003:00006088       glad_glIsProgram           00000001401a8088     toasty.obj
 0003:00006090       glad_glIsShader            00000001401a8090     toasty.obj
 0003:00006098       glad_glLinkProgram         00000001401a8098     toasty.obj
 0003:000060a0       glad_glShaderSource        00000001401a80a0     toasty.obj
 0003:000060a8       glad_glUseProgram          00000001401a80a8     toasty.obj
 0003:000060b0       glad_glUniform1f           00000001401a80b0     toasty.obj
 0003:000060b8       glad_glUniform2f           00000001401a80b8     toasty.obj
 0003:000060c0       glad_glUniform3f           00000001401a80c0     toasty.obj
 0003:000060c8       glad_glUniform4f           00000001401a80c8     toasty.obj
 0003:000060d0       glad_glUniform1i           00000001401a80d0     toasty.obj
 0003:000060d8       glad_glUniform2i           00000001401a80d8     toasty.obj
 0003:000060e0       glad_glUniform3i           00000001401a80e0     toasty.obj
 0003:000060e8       glad_glUniform4i           00000001401a80e8     toasty.obj
 0003:000060f0       glad_glUniform1fv          00000001401a80f0     toasty.obj
 0003:000060f8       glad_glUniform2fv          00000001401a80f8     toasty.obj
 0003:00006100       glad_glUniform3fv          00000001401a8100     toasty.obj
 0003:00006108       glad_glUniform4fv          00000001401a8108     toasty.obj
 0003:00006110       glad_glUniform1iv          00000001401a8110     toasty.obj
 0003:00006118       glad_glUniform2iv          00000001401a8118     toasty.obj
 0003:00006120       glad_glUniform3iv          00000001401a8120     toasty.obj
 0003:00006128       glad_glUniform4iv          00000001401a8128     toasty.obj
 0003:00006130       glad_glUniformMatrix2fv    00000001401a8130     toasty.obj
 0003:00006138       glad_glUniformMatrix3fv    00000001401a8138     toasty.obj
 0003:00006140       glad_glUniformMatrix4fv    00000001401a8140     toasty.obj
 0003:00006148       glad_glValidateProgram     00000001401a8148     toasty.obj
 0003:00006150       glad_glVertexAttrib1d      00000001401a8150     toasty.obj
 0003:00006158       glad_glVertexAttrib1dv     00000001401a8158     toasty.obj
 0003:00006160       glad_glVertexAttrib1f      00000001401a8160     toasty.obj
 0003:00006168       glad_glVertexAttrib1fv     00000001401a8168     toasty.obj
 0003:00006170       glad_glVertexAttrib1s      00000001401a8170     toasty.obj
 0003:00006178       glad_glVertexAttrib1sv     00000001401a8178     toasty.obj
 0003:00006180       glad_glVertexAttrib2d      00000001401a8180     toasty.obj
 0003:00006188       glad_glVertexAttrib2dv     00000001401a8188     toasty.obj
 0003:00006190       glad_glVertexAttrib2f      00000001401a8190     toasty.obj
 0003:00006198       glad_glVertexAttrib2fv     00000001401a8198     toasty.obj
 0003:000061a0       glad_glVertexAttrib2s      00000001401a81a0     toasty.obj
 0003:000061a8       glad_glVertexAttrib2sv     00000001401a81a8     toasty.obj
 0003:000061b0       glad_glVertexAttrib3d      00000001401a81b0     toasty.obj
 0003:000061b8       glad_glVertexAttrib3dv     00000001401a81b8     toasty.obj
 0003:000061c0       glad_glVertexAttrib3f      00000001401a81c0     toasty.obj
 0003:000061c8       glad_glVertexAttrib3fv     00000001401a81c8     toasty.obj
 0003:000061d0       glad_glVertexAttrib3s      00000001401a81d0     toasty.obj
 0003:000061d8       glad_glVertexAttrib3sv     00000001401a81d8     toasty.obj
 0003:000061e0       glad_glVertexAttrib4Nbv    00000001401a81e0     toasty.obj
 0003:000061e8       glad_glVertexAttrib4Niv    00000001401a81e8     toasty.obj
 0003:000061f0       glad_glVertexAttrib4Nsv    00000001401a81f0     toasty.obj
 0003:000061f8       glad_glVertexAttrib4Nub    00000001401a81f8     toasty.obj
 0003:00006200       glad_glVertexAttrib4Nubv   00000001401a8200     toasty.obj
 0003:00006208       glad_glVertexAttrib4Nuiv   00000001401a8208     toasty.obj
 0003:00006210       glad_glVertexAttrib4Nusv   00000001401a8210     toasty.obj
 0003:00006218       glad_glVertexAttrib4bv     00000001401a8218     toasty.obj
 0003:00006220       glad_glVertexAttrib4d      00000001401a8220     toasty.obj
 0003:00006228       glad_glVertexAttrib4dv     00000001401a8228     toasty.obj
 0003:00006230       glad_glVertexAttrib4f      00000001401a8230     toasty.obj
 0003:00006238       glad_glVertexAttrib4fv     00000001401a8238     toasty.obj
 0003:00006240       glad_glVertexAttrib4iv     00000001401a8240     toasty.obj
 0003:00006248       glad_glVertexAttrib4s      00000001401a8248     toasty.obj
 0003:00006250       glad_glVertexAttrib4sv     00000001401a8250     toasty.obj
 0003:00006258       glad_glVertexAttrib4ubv    00000001401a8258     toasty.obj
 0003:00006260       glad_glVertexAttrib4uiv    00000001401a8260     toasty.obj
 0003:00006268       glad_glVertexAttrib4usv    00000001401a8268     toasty.obj
 0003:00006270       glad_glVertexAttribPointer 00000001401a8270     toasty.obj
 0003:00006278       glad_glUniformMatrix2x3fv  00000001401a8278     toasty.obj
 0003:00006280       glad_glUniformMatrix3x2fv  00000001401a8280     toasty.obj
 0003:00006288       glad_glUniformMatrix2x4fv  00000001401a8288     toasty.obj
 0003:00006290       glad_glUniformMatrix4x2fv  00000001401a8290     toasty.obj
 0003:00006298       glad_glUniformMatrix3x4fv  00000001401a8298     toasty.obj
 0003:000062a0       glad_glUniformMatrix4x3fv  00000001401a82a0     toasty.obj
 0003:000062a8       GLAD_GL_VERSION_3_0        00000001401a82a8     toasty.obj
 0003:000062ac       GLAD_GL_VERSION_3_1        00000001401a82ac     toasty.obj
 0003:000062b0       glad_glColorMaski          00000001401a82b0     toasty.obj
 0003:000062b8       glad_glGetBooleani_v       00000001401a82b8     toasty.obj
 0003:000062c0       glad_glGetIntegeri_v       00000001401a82c0     toasty.obj
 0003:000062c8       glad_glEnablei             00000001401a82c8     toasty.obj
 0003:000062d0       glad_glDisablei            00000001401a82d0     toasty.obj
 0003:000062d8       glad_glIsEnabledi          00000001401a82d8     toasty.obj
 0003:000062e0       glad_glBeginTransformFeedback 00000001401a82e0     toasty.obj
 0003:000062e8       glad_glEndTransformFeedback 00000001401a82e8     toasty.obj
 0003:000062f0       glad_glBindBufferRange     00000001401a82f0     toasty.obj
 0003:000062f8       glad_glBindBufferBase      00000001401a82f8     toasty.obj
 0003:00006300       glad_glTransformFeedbackVaryings 00000001401a8300     toasty.obj
 0003:00006308       glad_glGetTransformFeedbackVarying 00000001401a8308     toasty.obj
 0003:00006310       glad_glClampColor          00000001401a8310     toasty.obj
 0003:00006318       glad_glBeginConditionalRender 00000001401a8318     toasty.obj
 0003:00006320       glad_glEndConditionalRender 00000001401a8320     toasty.obj
 0003:00006328       glad_glVertexAttribIPointer 00000001401a8328     toasty.obj
 0003:00006330       glad_glGetVertexAttribIiv  00000001401a8330     toasty.obj
 0003:00006338       glad_glGetVertexAttribIuiv 00000001401a8338     toasty.obj
 0003:00006340       glad_glVertexAttribI1i     00000001401a8340     toasty.obj
 0003:00006348       glad_glVertexAttribI2i     00000001401a8348     toasty.obj
 0003:00006350       glad_glVertexAttribI3i     00000001401a8350     toasty.obj
 0003:00006358       glad_glVertexAttribI4i     00000001401a8358     toasty.obj
 0003:00006360       glad_glVertexAttribI1ui    00000001401a8360     toasty.obj
 0003:00006368       glad_glVertexAttribI2ui    00000001401a8368     toasty.obj
 0003:00006370       glad_glVertexAttribI3ui    00000001401a8370     toasty.obj
 0003:00006378       glad_glVertexAttribI4ui    00000001401a8378     toasty.obj
 0003:00006380       glad_glVertexAttribI1iv    00000001401a8380     toasty.obj
 0003:00006388       glad_glVertexAttribI2iv    00000001401a8388     toasty.obj
 0003:00006390       glad_glVertexAttribI3iv    00000001401a8390     toasty.obj
 0003:00006398       glad_glVertexAttribI4iv    00000001401a8398     toasty.obj
 0003:000063a0       glad_glVertexAttribI1uiv   00000001401a83a0     toasty.obj
 0003:000063a8       glad_glVertexAttribI2uiv   00000001401a83a8     toasty.obj
 0003:000063b0       glad_glVertexAttribI3uiv   00000001401a83b0     toasty.obj
 0003:000063b8       glad_glVertexAttribI4uiv   00000001401a83b8     toasty.obj
 0003:000063c0       glad_glVertexAttribI4bv    00000001401a83c0     toasty.obj
 0003:000063c8       glad_glVertexAttribI4sv    00000001401a83c8     toasty.obj
 0003:000063d0       glad_glVertexAttribI4ubv   00000001401a83d0     toasty.obj
 0003:000063d8       glad_glVertexAttribI4usv   00000001401a83d8     toasty.obj
 0003:000063e0       glad_glGetUniformuiv       00000001401a83e0     toasty.obj
 0003:000063e8       glad_glBindFragDataLocation 00000001401a83e8     toasty.obj
 0003:000063f0       glad_glGetFragDataLocation 00000001401a83f0     toasty.obj
 0003:000063f8       glad_glUniform1ui          00000001401a83f8     toasty.obj
 0003:00006400       glad_glUniform2ui          00000001401a8400     toasty.obj
 0003:00006408       glad_glUniform3ui          00000001401a8408     toasty.obj
 0003:00006410       glad_glUniform4ui          00000001401a8410     toasty.obj
 0003:00006418       glad_glUniform1uiv         00000001401a8418     toasty.obj
 0003:00006420       glad_glUniform2uiv         00000001401a8420     toasty.obj
 0003:00006428       glad_glUniform3uiv         00000001401a8428     toasty.obj
 0003:00006430       glad_glUniform4uiv         00000001401a8430     toasty.obj
 0003:00006438       glad_glTexParameterIiv     00000001401a8438     toasty.obj
 0003:00006440       glad_glTexParameterIuiv    00000001401a8440     toasty.obj
 0003:00006448       glad_glGetTexParameterIiv  00000001401a8448     toasty.obj
 0003:00006450       glad_glGetTexParameterIuiv 00000001401a8450     toasty.obj
 0003:00006458       glad_glClearBufferiv       00000001401a8458     toasty.obj
 0003:00006460       glad_glClearBufferuiv      00000001401a8460     toasty.obj
 0003:00006468       glad_glClearBufferfv       00000001401a8468     toasty.obj
 0003:00006470       glad_glClearBufferfi       00000001401a8470     toasty.obj
 0003:00006478       glad_glGetStringi          00000001401a8478     toasty.obj
 0003:00006480       glad_glIsRenderbuffer      00000001401a8480     toasty.obj
 0003:00006488       glad_glBindRenderbuffer    00000001401a8488     toasty.obj
 0003:00006490       glad_glDeleteRenderbuffers 00000001401a8490     toasty.obj
 0003:00006498       glad_glGenRenderbuffers    00000001401a8498     toasty.obj
 0003:000064a0       glad_glRenderbufferStorage 00000001401a84a0     toasty.obj
 0003:000064a8       glad_glGetRenderbufferParameteriv 00000001401a84a8     toasty.obj
 0003:000064b0       glad_glIsFramebuffer       00000001401a84b0     toasty.obj
 0003:000064b8       glad_glBindFramebuffer     00000001401a84b8     toasty.obj
 0003:000064c0       glad_glDeleteFramebuffers  00000001401a84c0     toasty.obj
 0003:000064c8       glad_glGenFramebuffers     00000001401a84c8     toasty.obj
 0003:000064d0       glad_glCheckFramebufferStatus 00000001401a84d0     toasty.obj
 0003:000064d8       glad_glFramebufferTexture1D 00000001401a84d8     toasty.obj
 0003:000064e0       glad_glFramebufferTexture2D 00000001401a84e0     toasty.obj
 0003:000064e8       glad_glFramebufferTexture3D 00000001401a84e8     toasty.obj
 0003:000064f0       glad_glFramebufferRenderbuffer 00000001401a84f0     toasty.obj
 0003:000064f8       glad_glGetFramebufferAttachmentParameteriv 00000001401a84f8     toasty.obj
 0003:00006500       glad_glGenerateMipmap      00000001401a8500     toasty.obj
 0003:00006508       glad_glBlitFramebuffer     00000001401a8508     toasty.obj
 0003:00006510       glad_glRenderbufferStorageMultisample 00000001401a8510     toasty.obj
 0003:00006518       glad_glFramebufferTextureLayer 00000001401a8518     toasty.obj
 0003:00006520       glad_glMapBufferRange      00000001401a8520     toasty.obj
 0003:00006528       glad_glFlushMappedBufferRange 00000001401a8528     toasty.obj
 0003:00006530       glad_glBindVertexArray     00000001401a8530     toasty.obj
 0003:00006538       glad_glDeleteVertexArrays  00000001401a8538     toasty.obj
 0003:00006540       glad_glGenVertexArrays     00000001401a8540     toasty.obj
 0003:00006548       glad_glIsVertexArray       00000001401a8548     toasty.obj
 0003:00006550       glad_glDrawArraysInstanced 00000001401a8550     toasty.obj
 0003:00006558       glad_glDrawElementsInstanced 00000001401a8558     toasty.obj
 0003:00006560       glad_glTexBuffer           00000001401a8560     toasty.obj
 0003:00006568       glad_glPrimitiveRestartIndex 00000001401a8568     toasty.obj
 0003:00006570       glad_glCopyBufferSubData   00000001401a8570     toasty.obj
 0003:00006578       glad_glGetUniformIndices   00000001401a8578     toasty.obj
 0003:00006580       glad_glGetActiveUniformsiv 00000001401a8580     toasty.obj
 0003:00006588       glad_glGetActiveUniformName 00000001401a8588     toasty.obj
 0003:00006590       glad_glGetUniformBlockIndex 00000001401a8590     toasty.obj
 0003:00006598       glad_glGetActiveUniformBlockiv 00000001401a8598     toasty.obj
 0003:000065a0       glad_glGetActiveUniformBlockName 00000001401a85a0     toasty.obj
 0003:000065a8       glad_glUniformBlockBinding 00000001401a85a8     toasty.obj
 0003:000065b0       GLAD_GL_VERSION_3_2        00000001401a85b0     toasty.obj
 0003:000065b4       GLAD_GL_VERSION_3_3        00000001401a85b4     toasty.obj
 0003:000065b8       glad_glDrawElementsBaseVertex 00000001401a85b8     toasty.obj
 0003:000065c0       glad_glDrawRangeElementsBaseVertex 00000001401a85c0     toasty.obj
 0003:000065c8       glad_glDrawElementsInstancedBaseVertex 00000001401a85c8     toasty.obj
 0003:000065d0       glad_glMultiDrawElementsBaseVertex 00000001401a85d0     toasty.obj
 0003:000065d8       glad_glProvokingVertex     00000001401a85d8     toasty.obj
 0003:000065e0       glad_glFenceSync           00000001401a85e0     toasty.obj
 0003:000065e8       glad_glIsSync              00000001401a85e8     toasty.obj
 0003:000065f0       glad_glDeleteSync          00000001401a85f0     toasty.obj
 0003:000065f8       glad_glClientWaitSync      00000001401a85f8     toasty.obj
 0003:00006600       glad_glWaitSync            00000001401a8600     toasty.obj
 0003:00006608       glad_glGetInteger64v       00000001401a8608     toasty.obj
 0003:00006610       glad_glGetSynciv           00000001401a8610     toasty.obj
 0003:00006618       glad_glGetInteger64i_v     00000001401a8618     toasty.obj
 0003:00006620       glad_glGetBufferParameteri64v 00000001401a8620     toasty.obj
 0003:00006628       glad_glFramebufferTexture  00000001401a8628     toasty.obj
 0003:00006630       glad_glTexImage2DMultisample 00000001401a8630     toasty.obj
 0003:00006638       glad_glTexImage3DMultisample 00000001401a8638     toasty.obj
 0003:00006640       glad_glGetMultisamplefv    00000001401a8640     toasty.obj
 0003:00006648       glad_glSampleMaski         00000001401a8648     toasty.obj
 0003:00006650       glad_glBindFragDataLocationIndexed 00000001401a8650     toasty.obj
 0003:00006658       glad_glGetFragDataIndex    00000001401a8658     toasty.obj
 0003:00006660       glad_glGenSamplers         00000001401a8660     toasty.obj
 0003:00006668       glad_glDeleteSamplers      00000001401a8668     toasty.obj
 0003:00006670       glad_glIsSampler           00000001401a8670     toasty.obj
 0003:00006678       glad_glBindSampler         00000001401a8678     toasty.obj
 0003:00006680       glad_glSamplerParameteri   00000001401a8680     toasty.obj
 0003:00006688       glad_glSamplerParameteriv  00000001401a8688     toasty.obj
 0003:00006690       glad_glSamplerParameterf   00000001401a8690     toasty.obj
 0003:00006698       glad_glSamplerParameterfv  00000001401a8698     toasty.obj
 0003:000066a0       glad_glSamplerParameterIiv 00000001401a86a0     toasty.obj
 0003:000066a8       glad_glSamplerParameterIuiv 00000001401a86a8     toasty.obj
 0003:000066b0       glad_glGetSamplerParameteriv 00000001401a86b0     toasty.obj
 0003:000066b8       glad_glGetSamplerParameterIiv 00000001401a86b8     toasty.obj
 0003:000066c0       glad_glGetSamplerParameterfv 00000001401a86c0     toasty.obj
 0003:000066c8       glad_glGetSamplerParameterIuiv 00000001401a86c8     toasty.obj
 0003:000066d0       glad_glQueryCounter        00000001401a86d0     toasty.obj
 0003:000066d8       glad_glGetQueryObjecti64v  00000001401a86d8     toasty.obj
 0003:000066e0       glad_glGetQueryObjectui64v 00000001401a86e0     toasty.obj
 0003:000066e8       glad_glVertexAttribDivisor 00000001401a86e8     toasty.obj
 0003:000066f0       glad_glVertexAttribP1ui    00000001401a86f0     toasty.obj
 0003:000066f8       glad_glVertexAttribP1uiv   00000001401a86f8     toasty.obj
 0003:00006700       glad_glVertexAttribP2ui    00000001401a8700     toasty.obj
 0003:00006708       glad_glVertexAttribP2uiv   00000001401a8708     toasty.obj
 0003:00006710       glad_glVertexAttribP3ui    00000001401a8710     toasty.obj
 0003:00006718       glad_glVertexAttribP3uiv   00000001401a8718     toasty.obj
 0003:00006720       glad_glVertexAttribP4ui    00000001401a8720     toasty.obj
 0003:00006728       glad_glVertexAttribP4uiv   00000001401a8728     toasty.obj
 0003:00006730       glad_glVertexP2ui          00000001401a8730     toasty.obj
 0003:00006738       glad_glVertexP2uiv         00000001401a8738     toasty.obj
 0003:00006740       glad_glVertexP3ui          00000001401a8740     toasty.obj
 0003:00006748       glad_glVertexP3uiv         00000001401a8748     toasty.obj
 0003:00006750       glad_glVertexP4ui          00000001401a8750     toasty.obj
 0003:00006758       glad_glVertexP4uiv         00000001401a8758     toasty.obj
 0003:00006760       glad_glTexCoordP1ui        00000001401a8760     toasty.obj
 0003:00006768       glad_glTexCoordP1uiv       00000001401a8768     toasty.obj
 0003:00006770       glad_glTexCoordP2ui        00000001401a8770     toasty.obj
 0003:00006778       glad_glTexCoordP2uiv       00000001401a8778     toasty.obj
 0003:00006780       glad_glTexCoordP3ui        00000001401a8780     toasty.obj
 0003:00006788       glad_glTexCoordP3uiv       00000001401a8788     toasty.obj
 0003:00006790       glad_glTexCoordP4ui        00000001401a8790     toasty.obj
 0003:00006798       glad_glTexCoordP4uiv       00000001401a8798     toasty.obj
 0003:000067a0       glad_glMultiTexCoordP1ui   00000001401a87a0     toasty.obj
 0003:000067a8       glad_glMultiTexCoordP1uiv  00000001401a87a8     toasty.obj
 0003:000067b0       glad_glMultiTexCoordP2ui   00000001401a87b0     toasty.obj
 0003:000067b8       glad_glMultiTexCoordP2uiv  00000001401a87b8     toasty.obj
 0003:000067c0       glad_glMultiTexCoordP3ui   00000001401a87c0     toasty.obj
 0003:000067c8       glad_glMultiTexCoordP3uiv  00000001401a87c8     toasty.obj
 0003:000067d0       glad_glMultiTexCoordP4ui   00000001401a87d0     toasty.obj
 0003:000067d8       glad_glMultiTexCoordP4uiv  00000001401a87d8     toasty.obj
 0003:000067e0       glad_glNormalP3ui          00000001401a87e0     toasty.obj
 0003:000067e8       glad_glNormalP3uiv         00000001401a87e8     toasty.obj
 0003:000067f0       glad_glColorP3ui           00000001401a87f0     toasty.obj
 0003:000067f8       glad_glColorP3uiv          00000001401a87f8     toasty.obj
 0003:00006800       glad_glColorP4ui           00000001401a8800     toasty.obj
 0003:00006808       glad_glColorP4uiv          00000001401a8808     toasty.obj
 0003:00006810       glad_glSecondaryColorP3ui  00000001401a8810     toasty.obj
 0003:00006818       glad_glSecondaryColorP3uiv 00000001401a8818     toasty.obj
 0003:00006820       GLAD_GL_VERSION_4_0        00000001401a8820     toasty.obj
 0003:00006824       GLAD_GL_VERSION_4_1        00000001401a8824     toasty.obj
 0003:00006828       glad_glMinSampleShading    00000001401a8828     toasty.obj
 0003:00006830       glad_glBlendEquationi      00000001401a8830     toasty.obj
 0003:00006838       glad_glBlendEquationSeparatei 00000001401a8838     toasty.obj
 0003:00006840       glad_glBlendFunci          00000001401a8840     toasty.obj
 0003:00006848       glad_glBlendFuncSeparatei  00000001401a8848     toasty.obj
 0003:00006850       glad_glDrawArraysIndirect  00000001401a8850     toasty.obj
 0003:00006858       glad_glDrawElementsIndirect 00000001401a8858     toasty.obj
 0003:00006860       glad_glUniform1d           00000001401a8860     toasty.obj
 0003:00006868       glad_glUniform2d           00000001401a8868     toasty.obj
 0003:00006870       glad_glUniform3d           00000001401a8870     toasty.obj
 0003:00006878       glad_glUniform4d           00000001401a8878     toasty.obj
 0003:00006880       glad_glUniform1dv          00000001401a8880     toasty.obj
 0003:00006888       glad_glUniform2dv          00000001401a8888     toasty.obj
 0003:00006890       glad_glUniform3dv          00000001401a8890     toasty.obj
 0003:00006898       glad_glUniform4dv          00000001401a8898     toasty.obj
 0003:000068a0       glad_glUniformMatrix2dv    00000001401a88a0     toasty.obj
 0003:000068a8       glad_glUniformMatrix3dv    00000001401a88a8     toasty.obj
 0003:000068b0       glad_glUniformMatrix4dv    00000001401a88b0     toasty.obj
 0003:000068b8       glad_glUniformMatrix2x3dv  00000001401a88b8     toasty.obj
 0003:000068c0       glad_glUniformMatrix2x4dv  00000001401a88c0     toasty.obj
 0003:000068c8       glad_glUniformMatrix3x2dv  00000001401a88c8     toasty.obj
 0003:000068d0       glad_glUniformMatrix3x4dv  00000001401a88d0     toasty.obj
 0003:000068d8       glad_glUniformMatrix4x2dv  00000001401a88d8     toasty.obj
 0003:000068e0       glad_glUniformMatrix4x3dv  00000001401a88e0     toasty.obj
 0003:000068e8       glad_glGetUniformdv        00000001401a88e8     toasty.obj
 0003:000068f0       glad_glGetSubroutineUniformLocation 00000001401a88f0     toasty.obj
 0003:000068f8       glad_glGetSubroutineIndex  00000001401a88f8     toasty.obj
 0003:00006900       glad_glGetActiveSubroutineUniformiv 00000001401a8900     toasty.obj
 0003:00006908       glad_glGetActiveSubroutineUniformName 00000001401a8908     toasty.obj
 0003:00006910       glad_glGetActiveSubroutineName 00000001401a8910     toasty.obj
 0003:00006918       glad_glUniformSubroutinesuiv 00000001401a8918     toasty.obj
 0003:00006920       glad_glGetUniformSubroutineuiv 00000001401a8920     toasty.obj
 0003:00006928       glad_glGetProgramStageiv   00000001401a8928     toasty.obj
 0003:00006930       glad_glPatchParameteri     00000001401a8930     toasty.obj
 0003:00006938       glad_glPatchParameterfv    00000001401a8938     toasty.obj
 0003:00006940       glad_glBindTransformFeedback 00000001401a8940     toasty.obj
 0003:00006948       glad_glDeleteTransformFeedbacks 00000001401a8948     toasty.obj
 0003:00006950       glad_glGenTransformFeedbacks 00000001401a8950     toasty.obj
 0003:00006958       glad_glIsTransformFeedback 00000001401a8958     toasty.obj
 0003:00006960       glad_glPauseTransformFeedback 00000001401a8960     toasty.obj
 0003:00006968       glad_glResumeTransformFeedback 00000001401a8968     toasty.obj
 0003:00006970       glad_glDrawTransformFeedback 00000001401a8970     toasty.obj
 0003:00006978       glad_glDrawTransformFeedbackStream 00000001401a8978     toasty.obj
 0003:00006980       glad_glBeginQueryIndexed   00000001401a8980     toasty.obj
 0003:00006988       glad_glEndQueryIndexed     00000001401a8988     toasty.obj
 0003:00006990       glad_glGetQueryIndexediv   00000001401a8990     toasty.obj
 0003:00006998       glad_glReleaseShaderCompiler 00000001401a8998     toasty.obj
 0003:000069a0       glad_glShaderBinary        00000001401a89a0     toasty.obj
 0003:000069a8       glad_glGetShaderPrecisionFormat 00000001401a89a8     toasty.obj
 0003:000069b0       glad_glDepthRangef         00000001401a89b0     toasty.obj
 0003:000069b8       glad_glClearDepthf         00000001401a89b8     toasty.obj
 0003:000069c0       glad_glGetProgramBinary    00000001401a89c0     toasty.obj
 0003:000069c8       glad_glProgramBinary       00000001401a89c8     toasty.obj
 0003:000069d0       glad_glProgramParameteri   00000001401a89d0     toasty.obj
 0003:000069d8       glad_glUseProgramStages    00000001401a89d8     toasty.obj
 0003:000069e0       glad_glActiveShaderProgram 00000001401a89e0     toasty.obj
 0003:000069e8       glad_glCreateShaderProgramv 00000001401a89e8     toasty.obj
 0003:000069f0       glad_glBindProgramPipeline 00000001401a89f0     toasty.obj
 0003:000069f8       glad_glDeleteProgramPipelines 00000001401a89f8     toasty.obj
 0003:00006a00       glad_glGenProgramPipelines 00000001401a8a00     toasty.obj
 0003:00006a08       glad_glIsProgramPipeline   00000001401a8a08     toasty.obj
 0003:00006a10       glad_glGetProgramPipelineiv 00000001401a8a10     toasty.obj
 0003:00006a18       glad_glProgramUniform1i    00000001401a8a18     toasty.obj
 0003:00006a20       glad_glProgramUniform1iv   00000001401a8a20     toasty.obj
 0003:00006a28       glad_glProgramUniform1f    00000001401a8a28     toasty.obj
 0003:00006a30       glad_glProgramUniform1fv   00000001401a8a30     toasty.obj
 0003:00006a38       glad_glProgramUniform1d    00000001401a8a38     toasty.obj
 0003:00006a40       glad_glProgramUniform1dv   00000001401a8a40     toasty.obj
 0003:00006a48       glad_glProgramUniform1ui   00000001401a8a48     toasty.obj
 0003:00006a50       glad_glProgramUniform1uiv  00000001401a8a50     toasty.obj
 0003:00006a58       glad_glProgramUniform2i    00000001401a8a58     toasty.obj
 0003:00006a60       glad_glProgramUniform2iv   00000001401a8a60     toasty.obj
 0003:00006a68       glad_glProgramUniform2f    00000001401a8a68     toasty.obj
 0003:00006a70       glad_glProgramUniform2fv   00000001401a8a70     toasty.obj
 0003:00006a78       glad_glProgramUniform2d    00000001401a8a78     toasty.obj
 0003:00006a80       glad_glProgramUniform2dv   00000001401a8a80     toasty.obj
 0003:00006a88       glad_glProgramUniform2ui   00000001401a8a88     toasty.obj
 0003:00006a90       glad_glProgramUniform2uiv  00000001401a8a90     toasty.obj
 0003:00006a98       glad_glProgramUniform3i    00000001401a8a98     toasty.obj
 0003:00006aa0       glad_glProgramUniform3iv   00000001401a8aa0     toasty.obj
 0003:00006aa8       glad_glProgramUniform3f    00000001401a8aa8     toasty.obj
 0003:00006ab0       glad_glProgramUniform3fv   00000001401a8ab0     toasty.obj
 0003:00006ab8       glad_glProgramUniform3d    00000001401a8ab8     toasty.obj
 0003:00006ac0       glad_glProgramUniform3dv   00000001401a8ac0     toasty.obj
 0003:00006ac8       glad_glProgramUniform3ui   00000001401a8ac8     toasty.obj
 0003:00006ad0       glad_glProgramUniform3uiv  00000001401a8ad0     toasty.obj
 0003:00006ad8       glad_glProgramUniform4i    00000001401a8ad8     toasty.obj
 0003:00006ae0       glad_glProgramUniform4iv   00000001401a8ae0     toasty.obj
 0003:00006ae8       glad_glProgramUniform4f    00000001401a8ae8     toasty.obj
 0003:00006af0       glad_glProgramUniform4fv   00000001401a8af0     toasty.obj
 0003:00006af8       glad_glProgramUniform4d    00000001401a8af8     toasty.obj
 0003:00006b00       glad_glProgramUniform4dv   00000001401a8b00     toasty.obj
 0003:00006b08       glad_glProgramUniform4ui   00000001401a8b08     toasty.obj
 0003:00006b10       glad_glProgramUniform4uiv  00000001401a8b10     toasty.obj
 0003:00006b18       glad_glProgramUniformMatrix2fv 00000001401a8b18     toasty.obj
 0003:00006b20       glad_glProgramUniformMatrix3fv 00000001401a8b20     toasty.obj
 0003:00006b28       glad_glProgramUniformMatrix4fv 00000001401a8b28     toasty.obj
 0003:00006b30       glad_glProgramUniformMatrix2dv 00000001401a8b30     toasty.obj
 0003:00006b38       glad_glProgramUniformMatrix3dv 00000001401a8b38     toasty.obj
 0003:00006b40       glad_glProgramUniformMatrix4dv 00000001401a8b40     toasty.obj
 0003:00006b48       glad_glProgramUniformMatrix2x3fv 00000001401a8b48     toasty.obj
 0003:00006b50       glad_glProgramUniformMatrix3x2fv 00000001401a8b50     toasty.obj
 0003:00006b58       glad_glProgramUniformMatrix2x4fv 00000001401a8b58     toasty.obj
 0003:00006b60       glad_glProgramUniformMatrix4x2fv 00000001401a8b60     toasty.obj
 0003:00006b68       glad_glProgramUniformMatrix3x4fv 00000001401a8b68     toasty.obj
 0003:00006b70       glad_glProgramUniformMatrix4x3fv 00000001401a8b70     toasty.obj
 0003:00006b78       glad_glProgramUniformMatrix2x3dv 00000001401a8b78     toasty.obj
 0003:00006b80       glad_glProgramUniformMatrix3x2dv 00000001401a8b80     toasty.obj
 0003:00006b88       glad_glProgramUniformMatrix2x4dv 00000001401a8b88     toasty.obj
 0003:00006b90       glad_glProgramUniformMatrix4x2dv 00000001401a8b90     toasty.obj
 0003:00006b98       glad_glProgramUniformMatrix3x4dv 00000001401a8b98     toasty.obj
 0003:00006ba0       glad_glProgramUniformMatrix4x3dv 00000001401a8ba0     toasty.obj
 0003:00006ba8       glad_glValidateProgramPipeline 00000001401a8ba8     toasty.obj
 0003:00006bb0       glad_glGetProgramPipelineInfoLog 00000001401a8bb0     toasty.obj
 0003:00006bb8       glad_glVertexAttribL1d     00000001401a8bb8     toasty.obj
 0003:00006bc0       glad_glVertexAttribL2d     00000001401a8bc0     toasty.obj
 0003:00006bc8       glad_glVertexAttribL3d     00000001401a8bc8     toasty.obj
 0003:00006bd0       glad_glVertexAttribL4d     00000001401a8bd0     toasty.obj
 0003:00006bd8       glad_glVertexAttribL1dv    00000001401a8bd8     toasty.obj
 0003:00006be0       glad_glVertexAttribL2dv    00000001401a8be0     toasty.obj
 0003:00006be8       glad_glVertexAttribL3dv    00000001401a8be8     toasty.obj
 0003:00006bf0       glad_glVertexAttribL4dv    00000001401a8bf0     toasty.obj
 0003:00006bf8       glad_glVertexAttribLPointer 00000001401a8bf8     toasty.obj
 0003:00006c00       glad_glGetVertexAttribLdv  00000001401a8c00     toasty.obj
 0003:00006c08       glad_glViewportArrayv      00000001401a8c08     toasty.obj
 0003:00006c10       glad_glViewportIndexedf    00000001401a8c10     toasty.obj
 0003:00006c18       glad_glViewportIndexedfv   00000001401a8c18     toasty.obj
 0003:00006c20       glad_glScissorArrayv       00000001401a8c20     toasty.obj
 0003:00006c28       glad_glScissorIndexed      00000001401a8c28     toasty.obj
 0003:00006c30       glad_glScissorIndexedv     00000001401a8c30     toasty.obj
 0003:00006c38       glad_glDepthRangeArrayv    00000001401a8c38     toasty.obj
 0003:00006c40       glad_glDepthRangeIndexed   00000001401a8c40     toasty.obj
 0003:00006c48       glad_glGetFloati_v         00000001401a8c48     toasty.obj
 0003:00006c50       glad_glGetDoublei_v        00000001401a8c50     toasty.obj
 0003:00006c58       GLAD_GL_VERSION_4_2        00000001401a8c58     toasty.obj
 0003:00006c5c       GLAD_GL_VERSION_4_3        00000001401a8c5c     toasty.obj
 0003:00006c60       glad_glDrawArraysInstancedBaseInstance 00000001401a8c60     toasty.obj
 0003:00006c68       glad_glDrawElementsInstancedBaseInstance 00000001401a8c68     toasty.obj
 0003:00006c70       glad_glDrawElementsInstancedBaseVertexBaseInstance 00000001401a8c70     toasty.obj
 0003:00006c78       glad_glGetInternalformativ 00000001401a8c78     toasty.obj
 0003:00006c80       glad_glGetActiveAtomicCounterBufferiv 00000001401a8c80     toasty.obj
 0003:00006c88       glad_glBindImageTexture    00000001401a8c88     toasty.obj
 0003:00006c90       glad_glMemoryBarrier       00000001401a8c90     toasty.obj
 0003:00006c98       glad_glTexStorage1D        00000001401a8c98     toasty.obj
 0003:00006ca0       glad_glTexStorage2D        00000001401a8ca0     toasty.obj
 0003:00006ca8       glad_glTexStorage3D        00000001401a8ca8     toasty.obj
 0003:00006cb0       glad_glDrawTransformFeedbackInstanced 00000001401a8cb0     toasty.obj
 0003:00006cb8       glad_glDrawTransformFeedbackStreamInstanced 00000001401a8cb8     toasty.obj
 0003:00006cc0       glad_glClearBufferData     00000001401a8cc0     toasty.obj
 0003:00006cc8       glad_glClearBufferSubData  00000001401a8cc8     toasty.obj
 0003:00006cd0       glad_glDispatchCompute     00000001401a8cd0     toasty.obj
 0003:00006cd8       glad_glDispatchComputeIndirect 00000001401a8cd8     toasty.obj
 0003:00006ce0       glad_glCopyImageSubData    00000001401a8ce0     toasty.obj
 0003:00006ce8       glad_glFramebufferParameteri 00000001401a8ce8     toasty.obj
 0003:00006cf0       glad_glGetFramebufferParameteriv 00000001401a8cf0     toasty.obj
 0003:00006cf8       glad_glGetInternalformati64v 00000001401a8cf8     toasty.obj
 0003:00006d00       glad_glInvalidateTexSubImage 00000001401a8d00     toasty.obj
 0003:00006d08       glad_glInvalidateTexImage  00000001401a8d08     toasty.obj
 0003:00006d10       glad_glInvalidateBufferSubData 00000001401a8d10     toasty.obj
 0003:00006d18       glad_glInvalidateBufferData 00000001401a8d18     toasty.obj
 0003:00006d20       glad_glInvalidateFramebuffer 00000001401a8d20     toasty.obj
 0003:00006d28       glad_glInvalidateSubFramebuffer 00000001401a8d28     toasty.obj
 0003:00006d30       glad_glMultiDrawArraysIndirect 00000001401a8d30     toasty.obj
 0003:00006d38       glad_glMultiDrawElementsIndirect 00000001401a8d38     toasty.obj
 0003:00006d40       glad_glGetProgramInterfaceiv 00000001401a8d40     toasty.obj
 0003:00006d48       glad_glGetProgramResourceIndex 00000001401a8d48     toasty.obj
 0003:00006d50       glad_glGetProgramResourceName 00000001401a8d50     toasty.obj
 0003:00006d58       glad_glGetProgramResourceiv 00000001401a8d58     toasty.obj
 0003:00006d60       glad_glGetProgramResourceLocation 00000001401a8d60     toasty.obj
 0003:00006d68       glad_glGetProgramResourceLocationIndex 00000001401a8d68     toasty.obj
 0003:00006d70       glad_glShaderStorageBlockBinding 00000001401a8d70     toasty.obj
 0003:00006d78       glad_glTexBufferRange      00000001401a8d78     toasty.obj
 0003:00006d80       glad_glTexStorage2DMultisample 00000001401a8d80     toasty.obj
 0003:00006d88       glad_glTexStorage3DMultisample 00000001401a8d88     toasty.obj
 0003:00006d90       glad_glTextureView         00000001401a8d90     toasty.obj
 0003:00006d98       glad_glBindVertexBuffer    00000001401a8d98     toasty.obj
 0003:00006da0       glad_glVertexAttribFormat  00000001401a8da0     toasty.obj
 0003:00006da8       glad_glVertexAttribIFormat 00000001401a8da8     toasty.obj
 0003:00006db0       glad_glVertexAttribLFormat 00000001401a8db0     toasty.obj
 0003:00006db8       glad_glVertexAttribBinding 00000001401a8db8     toasty.obj
 0003:00006dc0       glad_glVertexBindingDivisor 00000001401a8dc0     toasty.obj
 0003:00006dc8       glad_glDebugMessageControl 00000001401a8dc8     toasty.obj
 0003:00006dd0       glad_glDebugMessageInsert  00000001401a8dd0     toasty.obj
 0003:00006dd8       glad_glDebugMessageCallback 00000001401a8dd8     toasty.obj
 0003:00006de0       glad_glGetDebugMessageLog  00000001401a8de0     toasty.obj
 0003:00006de8       glad_glPushDebugGroup      00000001401a8de8     toasty.obj
 0003:00006df0       glad_glPopDebugGroup       00000001401a8df0     toasty.obj
 0003:00006df8       glad_glObjectLabel         00000001401a8df8     toasty.obj
 0003:00006e00       glad_glGetObjectLabel      00000001401a8e00     toasty.obj
 0003:00006e08       glad_glObjectPtrLabel      00000001401a8e08     toasty.obj
 0003:00006e10       glad_glGetObjectPtrLabel   00000001401a8e10     toasty.obj
 0003:00006e18       glad_glGetPointerv         00000001401a8e18     toasty.obj
 0003:00006e20       GLAD_GL_VERSION_4_4        00000001401a8e20     toasty.obj
 0003:00006e24       ?EmptyString@ImGuiTextBuffer@@2PADA 00000001401a8e24     toasty.obj
 0003:00006e28       glad_glBufferStorage       00000001401a8e28     toasty.obj
 0003:00006e30       glad_glClearTexImage       00000001401a8e30     toasty.obj
 0003:00006e38       glad_glClearTexSubImage    00000001401a8e38     toasty.obj
 0003:00006e40       glad_glBindBuffersBase     00000001401a8e40     toasty.obj
 0003:00006e48       glad_glBindBuffersRange    00000001401a8e48     toasty.obj
 0003:00006e50       glad_glBindTextures        00000001401a8e50     toasty.obj
 0003:00006e58       glad_glBindSamplers        00000001401a8e58     toasty.obj
 0003:00006e60       glad_glBindImageTextures   00000001401a8e60     toasty.obj
 0003:00006e68       glad_glBindVertexBuffers   00000001401a8e68     toasty.obj
 0003:00007298       ?_OptionsStorage@?1??__local_stdio_printf_options@@9@4_KA 00000001401a9298     toasty.obj
 0003:000072a8       ?_OptionsStorage@?1??__local_stdio_scanf_options@@9@4_KA 00000001401a92a8     toasty.obj
 0003:0000f1e8       __scrt_current_native_startup_state 00000001401b11e8     MSVCRT:utility.obj
 0003:0000f1f0       __scrt_native_startup_lock 00000001401b11f0     MSVCRT:utility.obj
 0003:0000f920       _tls_index                 00000001401b1920     MSVCRT:tlssup.obj
 0003:0000f924       __favor                    00000001401b1924     MSVCRT:cpu_disp.obj
 0003:0000f928       __scrt_debugger_hook_flag  00000001401b1928     MSVCRT:utility_desktop.obj
 0003:0000f930       ?__type_info_root_node@@3U__type_info_node@@A 00000001401b1930     MSVCRT:tncleanup.obj
 0003:0000f948       __dyn_tls_dtor_callback    00000001401b1948     <common>
 0003:0000f960       __dyn_tls_init_callback    00000001401b1960     <common>
 0005:00000000       __imp_ImmGetContext        00000001401bb000     imm32:IMM32.dll
 0005:00000008       __imp_ImmAssociateContextEx 00000001401bb008     imm32:IMM32.dll
 0005:00000010       __imp_ImmSetCompositionWindow 00000001401bb010     imm32:IMM32.dll
 0005:00000018       __imp_ImmSetCandidateWindow 00000001401bb018     imm32:IMM32.dll
 0005:00000020       __imp_ImmReleaseContext    00000001401bb020     imm32:IMM32.dll
 0005:00000028       \177IMM32_NULL_THUNK_DATA  00000001401bb028     imm32:IMM32.dll
 0005:00000088       __imp_TerminateProcess     00000001401bb088     kernel32:KERNEL32.dll
 0005:00000090       __imp_IsProcessorFeaturePresent 00000001401bb090     kernel32:KERNEL32.dll
 0005:00000098       __imp_CloseHandle          00000001401bb098     kernel32:KERNEL32.dll
 0005:000000a0       __imp_EnterCriticalSection 00000001401bb0a0     kernel32:KERNEL32.dll
 0005:000000a8       __imp_LeaveCriticalSection 00000001401bb0a8     kernel32:KERNEL32.dll
 0005:000000b0       __imp_SetUnhandledExceptionFilter 00000001401bb0b0     kernel32:KERNEL32.dll
 0005:000000b8       __imp_DeleteCriticalSection 00000001401bb0b8     kernel32:KERNEL32.dll
 0005:000000c0       __imp_SetEvent             00000001401bb0c0     kernel32:KERNEL32.dll
 0005:000000c8       __imp_ResetEvent           00000001401bb0c8     kernel32:KERNEL32.dll
 0005:000000d0       __imp_WaitForSingleObjectEx 00000001401bb0d0     kernel32:KERNEL32.dll
 0005:000000d8       __imp_CreateEventW         00000001401bb0d8     kernel32:KERNEL32.dll
 0005:000000e0       __imp_GetCurrentProcess    00000001401bb0e0     kernel32:KERNEL32.dll
 0005:000000e8       __imp_UnhandledExceptionFilter 00000001401bb0e8     kernel32:KERNEL32.dll
 0005:000000f0       __imp_RtlVirtualUnwind     00000001401bb0f0     kernel32:KERNEL32.dll
 0005:000000f8       __imp_RtlLookupFunctionEntry 00000001401bb0f8     kernel32:KERNEL32.dll
 0005:00000100       __imp_InitializeCriticalSectionAndSpinCount 00000001401bb100     kernel32:KERNEL32.dll
 0005:00000108       __imp_LocalFree            00000001401bb108     kernel32:KERNEL32.dll
 0005:00000110       __imp_WideCharToMultiByte  00000001401bb110     kernel32:KERNEL32.dll
 0005:00000118       __imp_MultiByteToWideChar  00000001401bb118     kernel32:KERNEL32.dll
 0005:00000120       __imp_GlobalFree           00000001401bb120     kernel32:KERNEL32.dll
 0005:00000128       __imp_GlobalLock           00000001401bb128     kernel32:KERNEL32.dll
 0005:00000130       __imp_GlobalUnlock         00000001401bb130     kernel32:KERNEL32.dll
 0005:00000138       __imp_GlobalAlloc          00000001401bb138     kernel32:KERNEL32.dll
 0005:00000140       __imp_LoadLibraryW         00000001401bb140     kernel32:KERNEL32.dll
 0005:00000148       __imp_GetProcAddress       00000001401bb148     kernel32:KERNEL32.dll
 0005:00000150       __imp_FreeLibrary          00000001401bb150     kernel32:KERNEL32.dll
 0005:00000158       __imp_GetModuleHandleW     00000001401bb158     kernel32:KERNEL32.dll
 0005:00000160       __imp_IsDebuggerPresent    00000001401bb160     kernel32:KERNEL32.dll
 0005:00000168       __imp_GetStartupInfoW      00000001401bb168     kernel32:KERNEL32.dll
 0005:00000170       __imp_QueryPerformanceCounter 00000001401bb170     kernel32:KERNEL32.dll
 0005:00000178       __imp_GetCurrentProcessId  00000001401bb178     kernel32:KERNEL32.dll
 0005:00000180       __imp_GetCurrentThreadId   00000001401bb180     kernel32:KERNEL32.dll
 0005:00000188       __imp_GetSystemTimeAsFileTime 00000001401bb188     kernel32:KERNEL32.dll
 0005:00000190       __imp_InitializeSListHead  00000001401bb190     kernel32:KERNEL32.dll
 0005:00000198       __imp_GetCommandLineW      00000001401bb198     kernel32:KERNEL32.dll
 0005:000001a0       __imp_HeapAlloc            00000001401bb1a0     kernel32:KERNEL32.dll
 0005:000001a8       __imp_HeapFree             00000001401bb1a8     kernel32:KERNEL32.dll
 0005:000001b0       __imp_GetProcessHeap       00000001401bb1b0     kernel32:KERNEL32.dll
 0005:000001b8       __imp_RtlCaptureContext    00000001401bb1b8     kernel32:KERNEL32.dll
 0005:000001c0       \177KERNEL32_NULL_THUNK_DATA 00000001401bb1c0     kernel32:KERNEL32.dll
 0005:00000250       __imp_?_Xlength_error@std@@YAXPEBD@Z 00000001401bb250     msvcprt:MSVCP140.dll
 0005:00000258       __imp_?_Xout_of_range@std@@YAXPEBD@Z 00000001401bb258     msvcprt:MSVCP140.dll
 0005:00000260       \177MSVCP140_NULL_THUNK_DATA 00000001401bb260     msvcprt:MSVCP140.dll
 0005:000002b8       __imp_SDL_GetWindowWMInfo  00000001401bb2b8     SDL2:SDL2.dll
 0005:000002c0       __imp_SDL_Quit             00000001401bb2c0     SDL2:SDL2.dll
 0005:000002c8       __imp_SDL_SetMainReady     00000001401bb2c8     SDL2:SDL2.dll
 0005:000002d0       __imp_SDL_GetPerformanceFrequency 00000001401bb2d0     SDL2:SDL2.dll
 0005:000002d8       __imp_SDL_GetPerformanceCounter 00000001401bb2d8     SDL2:SDL2.dll
 0005:000002e0       __imp_SDL_GetRendererOutputSize 00000001401bb2e0     SDL2:SDL2.dll
 0005:000002e8       __imp_SDL_wcslen           00000001401bb2e8     SDL2:SDL2.dll
 0005:000002f0       __imp_SDL_strlen           00000001401bb2f0     SDL2:SDL2.dll
 0005:000002f8       __imp_SDL_Init             00000001401bb2f8     SDL2:SDL2.dll
 0005:00000300       __imp_SDL_SetHint          00000001401bb300     SDL2:SDL2.dll
 0005:00000308       __imp_SDL_PollEvent        00000001401bb308     SDL2:SDL2.dll
 0005:00000310       __imp_SDL_GameControllerGetButton 00000001401bb310     SDL2:SDL2.dll
 0005:00000318       __imp_SDL_GameControllerGetAxis 00000001401bb318     SDL2:SDL2.dll
 0005:00000320       __imp_SDL_GameControllerOpen 00000001401bb320     SDL2:SDL2.dll
 0005:00000328       __imp_SDL_ShowCursor       00000001401bb328     SDL2:SDL2.dll
 0005:00000330       __imp_SDL_FreeCursor       00000001401bb330     SDL2:SDL2.dll
 0005:00000338       __imp_SDL_SetCursor        00000001401bb338     SDL2:SDL2.dll
 0005:00000340       __imp_SDL_CreateSystemCursor 00000001401bb340     SDL2:SDL2.dll
 0005:00000348       __imp_SDL_CaptureMouse     00000001401bb348     SDL2:SDL2.dll
 0005:00000350       __imp_SDL_SetRelativeMouseMode 00000001401bb350     SDL2:SDL2.dll
 0005:00000358       __imp_SDL_WarpMouseInWindow 00000001401bb358     SDL2:SDL2.dll
 0005:00000360       __imp_SDL_GetRelativeMouseState 00000001401bb360     SDL2:SDL2.dll
 0005:00000368       __imp_SDL_GetGlobalMouseState 00000001401bb368     SDL2:SDL2.dll
 0005:00000370       __imp_SDL_GetMouseState    00000001401bb370     SDL2:SDL2.dll
 0005:00000378       __imp_SDL_iconv_string     00000001401bb378     SDL2:SDL2.dll
 0005:00000380       __imp_SDL_GetModState      00000001401bb380     SDL2:SDL2.dll
 0005:00000388       __imp_SDL_GetKeyboardState 00000001401bb388     SDL2:SDL2.dll
 0005:00000390       __imp_SDL_GetKeyboardFocus 00000001401bb390     SDL2:SDL2.dll
 0005:00000398       __imp_SDL_GL_DeleteContext 00000001401bb398     SDL2:SDL2.dll
 0005:000003a0       __imp_SDL_GL_SwapWindow    00000001401bb3a0     SDL2:SDL2.dll
 0005:000003a8       __imp_SDL_GL_SetSwapInterval 00000001401bb3a8     SDL2:SDL2.dll
 0005:000003b0       __imp_SDL_GL_GetDrawableSize 00000001401bb3b0     SDL2:SDL2.dll
 0005:000003b8       __imp_SDL_GL_MakeCurrent   00000001401bb3b8     SDL2:SDL2.dll
 0005:000003c0       __imp_SDL_GL_CreateContext 00000001401bb3c0     SDL2:SDL2.dll
 0005:000003c8       __imp_SDL_GL_SetAttribute  00000001401bb3c8     SDL2:SDL2.dll
 0005:000003d0       __imp_SDL_DestroyWindow    00000001401bb3d0     SDL2:SDL2.dll
 0005:000003d8       __imp_SDL_GetWindowSize    00000001401bb3d8     SDL2:SDL2.dll
 0005:000003e0       __imp_SDL_GetWindowPosition 00000001401bb3e0     SDL2:SDL2.dll
 0005:000003e8       __imp_SDL_GetWindowFlags   00000001401bb3e8     SDL2:SDL2.dll
 0005:000003f0       __imp_SDL_CreateWindow     00000001401bb3f0     SDL2:SDL2.dll
 0005:000003f8       __imp_SDL_GetCurrentVideoDriver 00000001401bb3f8     SDL2:SDL2.dll
 0005:00000400       __imp_SDL_GetClipboardText 00000001401bb400     SDL2:SDL2.dll
 0005:00000408       __imp_SDL_SetClipboardText 00000001401bb408     SDL2:SDL2.dll
 0005:00000410       __imp_SDL_RWclose          00000001401bb410     SDL2:SDL2.dll
 0005:00000418       __imp_SDL_RWread           00000001401bb418     SDL2:SDL2.dll
 0005:00000420       __imp_SDL_RWsize           00000001401bb420     SDL2:SDL2.dll
 0005:00000428       __imp_SDL_RWFromFile       00000001401bb428     SDL2:SDL2.dll
 0005:00000430       __imp_SDL_free             00000001401bb430     SDL2:SDL2.dll
 0005:00000438       __imp_SDL_ShowSimpleMessageBox 00000001401bb438     SDL2:SDL2.dll
 0005:00000440       \177SDL2_NULL_THUNK_DATA   00000001401bb440     SDL2:SDL2.dll
 0005:000004e0       __imp_CommandLineToArgvW   00000001401bb4e0     shell32:SHELL32.dll
 0005:000004e8       \177SHELL32_NULL_THUNK_DATA 00000001401bb4e8     shell32:SHELL32.dll
 0005:00000540       __imp_EmptyClipboard       00000001401bb540     user32:USER32.dll
 0005:00000548       __imp_GetClipboardData     00000001401bb548     user32:USER32.dll
 0005:00000550       __imp_SetClipboardData     00000001401bb550     user32:USER32.dll
 0005:00000558       __imp_CloseClipboard       00000001401bb558     user32:USER32.dll
 0005:00000560       __imp_OpenClipboard        00000001401bb560     user32:USER32.dll
 0005:00000568       \177USER32_NULL_THUNK_DATA 00000001401bb568     user32:USER32.dll
 0005:000005c8       __imp_memcpy               00000001401bb5c8     vcruntime:VCRUNTIME140.dll
 0005:000005d0       __imp___current_exception_context 00000001401bb5d0     vcruntime:VCRUNTIME140.dll
 0005:000005d8       __imp_memchr               00000001401bb5d8     vcruntime:VCRUNTIME140.dll
 0005:000005e0       __imp___current_exception  00000001401bb5e0     vcruntime:VCRUNTIME140.dll
 0005:000005e8       __imp___C_specific_handler 00000001401bb5e8     vcruntime:VCRUNTIME140.dll
 0005:000005f0       __imp___std_type_info_destroy_list 00000001401bb5f0     vcruntime:VCRUNTIME140.dll
 0005:000005f8       __imp_strchr               00000001401bb5f8     vcruntime:VCRUNTIME140.dll
 0005:00000600       __imp_memset               00000001401bb600     vcruntime:VCRUNTIME140.dll
 0005:00000608       __imp__CxxThrowException   00000001401bb608     vcruntime:VCRUNTIME140.dll
 0005:00000610       __imp___std_exception_destroy 00000001401bb610     vcruntime:VCRUNTIME140.dll
 0005:00000618       __imp___std_exception_copy 00000001401bb618     vcruntime:VCRUNTIME140.dll
 0005:00000620       __imp_memcmp               00000001401bb620     vcruntime:VCRUNTIME140.dll
 0005:00000628       __imp_memmove              00000001401bb628     vcruntime:VCRUNTIME140.dll
 0005:00000630       __imp_strstr               00000001401bb630     vcruntime:VCRUNTIME140.dll
 0005:00000638       \177VCRUNTIME140_NULL_THUNK_DATA 00000001401bb638     vcruntime:VCRUNTIME140.dll
 0005:000006a0       __imp___CxxFrameHandler4   00000001401bb6a0     vcruntime:VCRUNTIME140_1.dll
 0005:000006a8       \177VCRUNTIME140_1_NULL_THUNK_DATA 00000001401bb6a8     vcruntime:VCRUNTIME140_1.dll
 0005:00000700       __imp_atof                 00000001401bb700     ucrt:api-ms-win-crt-convert-l1-1-0.dll
 0005:00000708       __imp_strtol               00000001401bb708     ucrt:api-ms-win-crt-convert-l1-1-0.dll
 0005:00000710       \177api-ms-win-crt-convert-l1-1-0_NULL_THUNK_DATA 00000001401bb710     ucrt:api-ms-win-crt-convert-l1-1-0.dll
 0005:00000768       __imp_free                 00000001401bb768     ucrt:api-ms-win-crt-heap-l1-1-0.dll
 0005:00000770       __imp__callnewh            00000001401bb770     ucrt:api-ms-win-crt-heap-l1-1-0.dll
 0005:00000778       __imp__set_new_mode        00000001401bb778     ucrt:api-ms-win-crt-heap-l1-1-0.dll
 0005:00000780       __imp_malloc               00000001401bb780     ucrt:api-ms-win-crt-heap-l1-1-0.dll
 0005:00000788       __imp_realloc              00000001401bb788     ucrt:api-ms-win-crt-heap-l1-1-0.dll
 0005:00000790       \177api-ms-win-crt-heap-l1-1-0_NULL_THUNK_DATA 00000001401bb790     ucrt:api-ms-win-crt-heap-l1-1-0.dll
 0005:000007f0       __imp__configthreadlocale  00000001401bb7f0     ucrt:api-ms-win-crt-locale-l1-1-0.dll
 0005:000007f8       \177api-ms-win-crt-locale-l1-1-0_NULL_THUNK_DATA 00000001401bb7f8     ucrt:api-ms-win-crt-locale-l1-1-0.dll
 0005:00000850       __imp_log                  00000001401bb850     ucrt:api-ms-win-crt-math-l1-1-0.dll
 0005:00000858       __imp_ceilf                00000001401bb858     ucrt:api-ms-win-crt-math-l1-1-0.dll
 0005:00000860       __imp_powf                 00000001401bb860     ucrt:api-ms-win-crt-math-l1-1-0.dll
 0005:00000868       __imp_logf                 00000001401bb868     ucrt:api-ms-win-crt-math-l1-1-0.dll
 0005:00000870       __imp_cosf                 00000001401bb870     ucrt:api-ms-win-crt-math-l1-1-0.dll
 0005:00000878       __imp_tanf                 00000001401bb878     ucrt:api-ms-win-crt-math-l1-1-0.dll
 0005:00000880       __imp_atan2f               00000001401bb880     ucrt:api-ms-win-crt-math-l1-1-0.dll
 0005:00000888       __imp_sqrtf                00000001401bb888     ucrt:api-ms-win-crt-math-l1-1-0.dll
 0005:00000890       __imp_acosf                00000001401bb890     ucrt:api-ms-win-crt-math-l1-1-0.dll
 0005:00000898       __imp_ldexp                00000001401bb898     ucrt:api-ms-win-crt-math-l1-1-0.dll
 0005:000008a0       __imp_fmodf                00000001401bb8a0     ucrt:api-ms-win-crt-math-l1-1-0.dll
 0005:000008a8       __imp_floorf               00000001401bb8a8     ucrt:api-ms-win-crt-math-l1-1-0.dll
 0005:000008b0       __imp_pow                  00000001401bb8b0     ucrt:api-ms-win-crt-math-l1-1-0.dll
 0005:000008b8       __imp_sinf                 00000001401bb8b8     ucrt:api-ms-win-crt-math-l1-1-0.dll
 0005:000008c0       __imp___setusermatherr     00000001401bb8c0     ucrt:api-ms-win-crt-math-l1-1-0.dll
 0005:000008c8       __imp_fabs                 00000001401bb8c8     ucrt:api-ms-win-crt-math-l1-1-0.dll
 0005:000008d0       \177api-ms-win-crt-math-l1-1-0_NULL_THUNK_DATA 00000001401bb8d0     ucrt:api-ms-win-crt-math-l1-1-0.dll
 0005:00000940       __imp__execute_onexit_table 00000001401bb940     ucrt:api-ms-win-crt-runtime-l1-1-0.dll
 0005:00000948       __imp__crt_atexit          00000001401bb948     ucrt:api-ms-win-crt-runtime-l1-1-0.dll
 0005:00000950       __imp__crt_at_quick_exit   00000001401bb950     ucrt:api-ms-win-crt-runtime-l1-1-0.dll
 0005:00000958       __imp__cexit               00000001401bb958     ucrt:api-ms-win-crt-runtime-l1-1-0.dll
 0005:00000960       __imp__seh_filter_exe      00000001401bb960     ucrt:api-ms-win-crt-runtime-l1-1-0.dll
 0005:00000968       __imp__initialize_onexit_table 00000001401bb968     ucrt:api-ms-win-crt-runtime-l1-1-0.dll
 0005:00000970       __imp__initialize_narrow_environment 00000001401bb970     ucrt:api-ms-win-crt-runtime-l1-1-0.dll
 0005:00000978       __imp__get_initial_narrow_environment 00000001401bb978     ucrt:api-ms-win-crt-runtime-l1-1-0.dll
 0005:00000980       __imp__initterm            00000001401bb980     ucrt:api-ms-win-crt-runtime-l1-1-0.dll
 0005:00000988       __imp__initterm_e          00000001401bb988     ucrt:api-ms-win-crt-runtime-l1-1-0.dll
 0005:00000990       __imp_exit                 00000001401bb990     ucrt:api-ms-win-crt-runtime-l1-1-0.dll
 0005:00000998       __imp__exit                00000001401bb998     ucrt:api-ms-win-crt-runtime-l1-1-0.dll
 0005:000009a0       __imp__register_onexit_function 00000001401bb9a0     ucrt:api-ms-win-crt-runtime-l1-1-0.dll
 0005:000009a8       __imp___p___argc           00000001401bb9a8     ucrt:api-ms-win-crt-runtime-l1-1-0.dll
 0005:000009b0       __imp___p___argv           00000001401bb9b0     ucrt:api-ms-win-crt-runtime-l1-1-0.dll
 0005:000009b8       __imp__c_exit              00000001401bb9b8     ucrt:api-ms-win-crt-runtime-l1-1-0.dll
 0005:000009c0       __imp__register_thread_local_exe_atexit_callback 00000001401bb9c0     ucrt:api-ms-win-crt-runtime-l1-1-0.dll
 0005:000009c8       __imp__configure_narrow_argv 00000001401bb9c8     ucrt:api-ms-win-crt-runtime-l1-1-0.dll
 0005:000009d0       __imp_terminate            00000001401bb9d0     ucrt:api-ms-win-crt-runtime-l1-1-0.dll
 0005:000009d8       __imp__wassert             00000001401bb9d8     ucrt:api-ms-win-crt-runtime-l1-1-0.dll
 0005:000009e0       __imp__invalid_parameter_noinfo_noreturn 00000001401bb9e0     ucrt:api-ms-win-crt-runtime-l1-1-0.dll
 0005:000009e8       __imp__seh_filter_dll      00000001401bb9e8     ucrt:api-ms-win-crt-runtime-l1-1-0.dll
 0005:000009f0       __imp__set_app_type        00000001401bb9f0     ucrt:api-ms-win-crt-runtime-l1-1-0.dll
 0005:000009f8       \177api-ms-win-crt-runtime-l1-1-0_NULL_THUNK_DATA 00000001401bb9f8     ucrt:api-ms-win-crt-runtime-l1-1-0.dll
 0005:00000a70       __imp__set_fmode           00000001401bba70     ucrt:api-ms-win-crt-stdio-l1-1-0.dll
 0005:00000a78       __imp___acrt_iob_func      00000001401bba78     ucrt:api-ms-win-crt-stdio-l1-1-0.dll
 0005:00000a80       __imp___stdio_common_vsscanf 00000001401bba80     ucrt:api-ms-win-crt-stdio-l1-1-0.dll
 0005:00000a88       __imp___stdio_common_vsprintf 00000001401bba88     ucrt:api-ms-win-crt-stdio-l1-1-0.dll
 0005:00000a90       __imp___stdio_common_vfprintf 00000001401bba90     ucrt:api-ms-win-crt-stdio-l1-1-0.dll
 0005:00000a98       __imp_ungetc               00000001401bba98     ucrt:api-ms-win-crt-stdio-l1-1-0.dll
 0005:00000aa0       __imp_fwrite               00000001401bbaa0     ucrt:api-ms-win-crt-stdio-l1-1-0.dll
 0005:00000aa8       __imp___p__commode         00000001401bbaa8     ucrt:api-ms-win-crt-stdio-l1-1-0.dll
 0005:00000ab0       __imp_fread                00000001401bbab0     ucrt:api-ms-win-crt-stdio-l1-1-0.dll
 0005:00000ab8       __imp_fgetc                00000001401bbab8     ucrt:api-ms-win-crt-stdio-l1-1-0.dll
 0005:00000ac0       __imp_fflush               00000001401bbac0     ucrt:api-ms-win-crt-stdio-l1-1-0.dll
 0005:00000ac8       __imp_ferror               00000001401bbac8     ucrt:api-ms-win-crt-stdio-l1-1-0.dll
 0005:00000ad0       __imp_feof                 00000001401bbad0     ucrt:api-ms-win-crt-stdio-l1-1-0.dll
 0005:00000ad8       __imp_fclose               00000001401bbad8     ucrt:api-ms-win-crt-stdio-l1-1-0.dll
 0005:00000ae0       __imp_fopen_s              00000001401bbae0     ucrt:api-ms-win-crt-stdio-l1-1-0.dll
 0005:00000ae8       __imp__wfopen              00000001401bbae8     ucrt:api-ms-win-crt-stdio-l1-1-0.dll
 0005:00000af0       __imp_fseek                00000001401bbaf0     ucrt:api-ms-win-crt-stdio-l1-1-0.dll
 0005:00000af8       __imp_ftell                00000001401bbaf8     ucrt:api-ms-win-crt-stdio-l1-1-0.dll
 0005:00000b00       \177api-ms-win-crt-stdio-l1-1-0_NULL_THUNK_DATA 00000001401bbb00     ucrt:api-ms-win-crt-stdio-l1-1-0.dll
 0005:00000b70       __imp_strcmp               00000001401bbb70     ucrt:api-ms-win-crt-string-l1-1-0.dll
 0005:00000b78       __imp_toupper              00000001401bbb78     ucrt:api-ms-win-crt-string-l1-1-0.dll
 0005:00000b80       __imp_strncpy              00000001401bbb80     ucrt:api-ms-win-crt-string-l1-1-0.dll
 0005:00000b88       __imp_strncmp              00000001401bbb88     ucrt:api-ms-win-crt-string-l1-1-0.dll
 0005:00000b90       __imp_strlen               00000001401bbb90     ucrt:api-ms-win-crt-string-l1-1-0.dll
 0005:00000b98       __imp_strcpy               00000001401bbb98     ucrt:api-ms-win-crt-string-l1-1-0.dll
 0005:00000ba0       __imp_strcat               00000001401bbba0     ucrt:api-ms-win-crt-string-l1-1-0.dll
 0005:00000ba8       \177api-ms-win-crt-string-l1-1-0_NULL_THUNK_DATA 00000001401bbba8     ucrt:api-ms-win-crt-string-l1-1-0.dll
 0005:00000c08       __imp_qsort                00000001401bbc08     ucrt:api-ms-win-crt-utility-l1-1-0.dll
 0005:00000c10       __imp_abs                  00000001401bbc10     ucrt:api-ms-win-crt-utility-l1-1-0.dll
 0005:00000c18       __imp__lrotl               00000001401bbc18     ucrt:api-ms-win-crt-utility-l1-1-0.dll
 0005:00000c20       \177api-ms-win-crt-utility-l1-1-0_NULL_THUNK_DATA 00000001401bbc20     ucrt:api-ms-win-crt-utility-l1-1-0.dll
 0005:00000c78       __imp_aiGetMaterialColor   00000001401bbc78     assimp-vc142-mt:assimp-vc142-mt.dll
 0005:00000c80       __imp_aiGetMaterialString  00000001401bbc80     assimp-vc142-mt:assimp-vc142-mt.dll
 0005:00000c88       __imp_aiGetMaterialTexture 00000001401bbc88     assimp-vc142-mt:assimp-vc142-mt.dll
 0005:00000c90       __imp_aiGetMaterialFloatArray 00000001401bbc90     assimp-vc142-mt:assimp-vc142-mt.dll
 0005:00000c98       __imp_?GetErrorString@Importer@Assimp@@QEBAPEBDXZ 00000001401bbc98     assimp-vc142-mt:assimp-vc142-mt.dll
 0005:00000ca0       __imp_?ReadFile@Importer@Assimp@@QEAAPEBUaiScene@@PEBDI@Z 00000001401bbca0     assimp-vc142-mt:assimp-vc142-mt.dll
 0005:00000ca8       __imp_??1Importer@Assimp@@QEAA@XZ 00000001401bbca8     assimp-vc142-mt:assimp-vc142-mt.dll
 0005:00000cb0       __imp_??0Importer@Assimp@@QEAA@XZ 00000001401bbcb0     assimp-vc142-mt:assimp-vc142-mt.dll
 0005:00000cb8       __imp_aiGetMaterialIntegerArray 00000001401bbcb8     assimp-vc142-mt:assimp-vc142-mt.dll
 0005:00000cc0       \177assimp-vc142-mt_NULL_THUNK_DATA 00000001401bbcc0     assimp-vc142-mt:assimp-vc142-mt.dll
 0005:00000d20       __IMPORT_DESCRIPTOR_SDL2   00000001401bbd20     SDL2:SDL2.dll
 0005:00000d34       __IMPORT_DESCRIPTOR_assimp-vc142-mt 00000001401bbd34     assimp-vc142-mt:assimp-vc142-mt.dll
 0005:00000d48       __IMPORT_DESCRIPTOR_MSVCP140 00000001401bbd48     msvcprt:MSVCP140.dll
 0005:00000d5c       __IMPORT_DESCRIPTOR_USER32 00000001401bbd5c     user32:USER32.dll
 0005:00000d70       __IMPORT_DESCRIPTOR_KERNEL32 00000001401bbd70     kernel32:KERNEL32.dll
 0005:00000d84       __IMPORT_DESCRIPTOR_IMM32  00000001401bbd84     imm32:IMM32.dll
 0005:00000d98       __IMPORT_DESCRIPTOR_VCRUNTIME140 00000001401bbd98     vcruntime:VCRUNTIME140.dll
 0005:00000dac       __IMPORT_DESCRIPTOR_VCRUNTIME140_1 00000001401bbdac     vcruntime:VCRUNTIME140_1.dll
 0005:00000dc0       __IMPORT_DESCRIPTOR_api-ms-win-crt-runtime-l1-1-0 00000001401bbdc0     ucrt:api-ms-win-crt-runtime-l1-1-0.dll
 0005:00000dd4       __IMPORT_DESCRIPTOR_api-ms-win-crt-stdio-l1-1-0 00000001401bbdd4     ucrt:api-ms-win-crt-stdio-l1-1-0.dll
 0005:00000de8       __IMPORT_DESCRIPTOR_api-ms-win-crt-heap-l1-1-0 00000001401bbde8     ucrt:api-ms-win-crt-heap-l1-1-0.dll
 0005:00000dfc       __IMPORT_DESCRIPTOR_api-ms-win-crt-utility-l1-1-0 00000001401bbdfc     ucrt:api-ms-win-crt-utility-l1-1-0.dll
 0005:00000e10       __IMPORT_DESCRIPTOR_api-ms-win-crt-math-l1-1-0 00000001401bbe10     ucrt:api-ms-win-crt-math-l1-1-0.dll
 0005:00000e24       __IMPORT_DESCRIPTOR_api-ms-win-crt-convert-l1-1-0 00000001401bbe24     ucrt:api-ms-win-crt-convert-l1-1-0.dll
 0005:00000e38       __IMPORT_DESCRIPTOR_api-ms-win-crt-string-l1-1-0 00000001401bbe38     ucrt:api-ms-win-crt-string-l1-1-0.dll
 0005:00000e4c       __IMPORT_DESCRIPTOR_api-ms-win-crt-locale-l1-1-0 00000001401bbe4c     ucrt:api-ms-win-crt-locale-l1-1-0.dll
 0005:00000e60       __IMPORT_DESCRIPTOR_SHELL32 00000001401bbe60     shell32:SHELL32.dll
 0005:00000e74       __NULL_IMPORT_DESCRIPTOR   00000001401bbe74     SDL2:SDL2.dll
 0006:00000000       _tls_start                 00000001401be000     MSVCRT:tlssup.obj
 0006:00000130       _Init_thread_epoch         00000001401be130     MSVCRT:thread_safe_statics.obj
 0006:00000235       _tls_end                   00000001401be235     MSVCRT:tlssup.obj
 0007:00000000       __guard_check_icall_fptr   00000001401bf000     MSVCRT:guard_support.obj
 0007:00000010       __guard_xfg_check_icall_fptr 00000001401bf010     MSVCRT:guard_support.obj
 0007:00000020       __guard_dispatch_icall_fptr 00000001401bf020     MSVCRT:guard_support.obj
 0007:00000030       __guard_xfg_dispatch_icall_fptr 00000001401bf030     MSVCRT:guard_support.obj
 0007:00000040       __guard_xfg_table_dispatch_icall_fptr 00000001401bf040     MSVCRT:guard_support.obj
 0007:00000050       __castguard_check_failure_os_handled_fptr 00000001401bf050     MSVCRT:guard_support.obj
 0007:00000060       __guard_memcpy_fptr        00000001401bf060     vcruntime:softmemtag.obj

 entry point at        0001:00001c8e

 Static symbols

 0000:00000000       _volmd                     0000000140000000     toasty.obj
 0000:00000000       _volmd                     0000000140000000     toasty.obj
 0000:00000000       _volmd                     0000000140000000     toasty.obj
 0000:00000000       _volmd                     0000000140000000     toasty.obj
 0000:00000000       _volmd                     0000000140000000     toasty.obj
 0000:00000000       _volmd                     0000000140000000     toasty.obj
 0000:00000000       _volmd                     0000000140000000     toasty.obj
 0000:00000000       _volmd                     0000000140000000     toasty.obj
 0000:00000000       _volmd                     0000000140000000     toasty.obj
 0000:00000000       _volmd                     0000000140000000     toasty.obj
 0000:00000000       _volmd                     0000000140000000     toasty.obj
 0000:00000000       _volmd                     0000000140000000     toasty.obj
 0000:00000000       _volmd                     0000000140000000     toasty.obj
 0000:00000000       _volmd                     0000000140000000     toasty.obj
 0000:00000000       _volmd                     0000000140000000     toasty.obj
 0000:00000000       _volmd                     0000000140000000     toasty.obj
 0000:00000000       _volmd                     0000000140000000     toasty.obj
 0000:00000000       _volmd                     0000000140000000     toasty.obj
 0000:00000000       _volmd                     0000000140000000     toasty.obj
 0000:00000000       _volmd                     0000000140000000     toasty.obj
 0000:ffe3e000       .debug$S                   0000000140000000     SDL2:SDL2.dll
 0000:ffe3e000       .debug$S                   0000000140000000     SDL2:SDL2.dll
 0000:ffe3e000       .debug$S                   0000000140000000     SDL2:SDL2.dll
 0000:ffe3e000       .debug$S                   0000000140000000     SDL2:SDL2.dll
 0000:ffe3e000       .debug$S                   0000000140000000     SDL2:SDL2.dll
 0000:ffe3e000       .debug$S                   0000000140000000     SDL2:SDL2.dll
 0000:ffe3e000       .debug$S                   0000000140000000     SDL2:SDL2.dll
 0000:ffe3e000       .debug$S                   0000000140000000     SDL2:SDL2.dll
 0000:ffe3e000       .debug$S                   0000000140000000     SDL2:SDL2.dll
 0000:ffe3e000       .debug$S                   0000000140000000     SDL2:SDL2.dll
 0000:ffe3e000       .debug$S                   0000000140000000     SDL2:SDL2.dll
 0000:ffe3e000       .debug$S                   0000000140000000     SDL2:SDL2.dll
 0000:ffe3e000       .debug$S                   0000000140000000     SDL2:SDL2.dll
 0000:ffe3e000       .debug$S                   0000000140000000     SDL2:SDL2.dll
 0000:ffe3e000       .debug$S                   0000000140000000     SDL2:SDL2.dll
 0000:ffe3e000       .debug$S                   0000000140000000     SDL2:SDL2.dll
 0000:ffe3e000       .debug$S                   0000000140000000     SDL2:SDL2.dll
 0000:ffe3e000       .debug$S                   0000000140000000     SDL2:SDL2.dll
 0000:ffe3e000       .debug$S                   0000000140000000     SDL2:SDL2.dll
 0000:ffe3e000       .debug$S                   0000000140000000     SDL2:SDL2.dll
 0000:ffe3e000       .debug$S                   0000000140000000     SDL2:SDL2.dll
 0000:ffe3e000       .debug$S                   0000000140000000     SDL2:SDL2.dll
 0000:ffe3e000       .debug$S                   0000000140000000     SDL2:SDL2.dll
 0000:ffe3e000       .debug$S                   0000000140000000     SDL2:SDL2.dll
 0000:ffe3e000       .debug$S                   0000000140000000     SDL2:SDL2.dll
 0000:ffe3e000       .debug$S                   0000000140000000     SDL2:SDL2.dll
 0000:ffe3e000       .debug$S                   0000000140000000     SDL2:SDL2.dll
 0000:ffe3e000       .debug$S                   0000000140000000     SDL2:SDL2.dll
 0000:ffe3e000       .debug$S                   0000000140000000     SDL2:SDL2.dll
 0000:ffe3e000       .debug$S                   0000000140000000     SDL2:SDL2.dll
 0000:ffe3e000       .debug$S                   0000000140000000     SDL2:SDL2.dll
 0000:ffe3e000       .debug$S                   0000000140000000     SDL2:SDL2.dll
 0000:ffe3e000       .debug$S                   0000000140000000     SDL2:SDL2.dll
 0000:ffe3e000       .debug$S                   0000000140000000     SDL2:SDL2.dll
 0000:ffe3e000       .debug$S                   0000000140000000     SDL2:SDL2.dll
 0000:ffe3e000       .debug$S                   0000000140000000     SDL2:SDL2.dll
 0000:ffe3e000       .debug$S                   0000000140000000     SDL2:SDL2.dll
 0000:ffe3e000       .debug$S                   0000000140000000     SDL2:SDL2.dll
 0000:ffe3e000       .debug$S                   0000000140000000     SDL2:SDL2.dll
 0000:ffe3e000       .debug$S                   0000000140000000     SDL2:SDL2.dll
 0000:ffe3e000       .debug$S                   0000000140000000     SDL2:SDL2.dll
 0000:ffe3e000       .debug$S                   0000000140000000     SDL2:SDL2.dll
 0000:ffe3e000       .debug$S                   0000000140000000     SDL2:SDL2.dll
 0000:ffe3e000       .debug$S                   0000000140000000     SDL2:SDL2.dll
 0000:ffe3e000       .debug$S                   0000000140000000     SDL2:SDL2.dll
 0000:ffe3e000       .debug$S                   0000000140000000     SDL2:SDL2.dll
 0000:ffe3e000       .debug$S                   0000000140000000     SDL2:SDL2.dll
 0000:ffe3e000       .debug$S                   0000000140000000     SDL2:SDL2.dll
 0000:ffe3e000       .debug$S                   0000000140000000     SDL2:SDL2.dll
 0000:ffe3e000       .debug$S                   0000000140000000     assimp-vc142-mt:assimp-vc142-mt.dll
 0000:ffe3e000       .debug$S                   0000000140000000     assimp-vc142-mt:assimp-vc142-mt.dll
 0000:ffe3e000       .debug$S                   0000000140000000     assimp-vc142-mt:assimp-vc142-mt.dll
 0000:ffe3e000       .debug$S                   0000000140000000     assimp-vc142-mt:assimp-vc142-mt.dll
 0000:ffe3e000       .debug$S                   0000000140000000     assimp-vc142-mt:assimp-vc142-mt.dll
 0000:ffe3e000       .debug$S                   0000000140000000     assimp-vc142-mt:assimp-vc142-mt.dll
 0000:ffe3e000       .debug$S                   0000000140000000     assimp-vc142-mt:assimp-vc142-mt.dll
 0000:ffe3e000       .debug$S                   0000000140000000     assimp-vc142-mt:assimp-vc142-mt.dll
 0000:ffe3e000       .debug$S                   0000000140000000     assimp-vc142-mt:assimp-vc142-mt.dll
 0000:ffe3e000       .debug$S                   0000000140000000     imm32:IMM32.dll
 0000:ffe3e000       .debug$S                   0000000140000000     imm32:IMM32.dll
 0000:ffe3e000       .debug$S                   0000000140000000     imm32:IMM32.dll
 0000:ffe3e000       .debug$S                   0000000140000000     imm32:IMM32.dll
 0000:ffe3e000       .debug$S                   0000000140000000     imm32:IMM32.dll
 0000:ffe3e000       .debug$S                   0000000140000000     kernel32:KERNEL32.dll
 0000:ffe3e000       .debug$S                   0000000140000000     kernel32:KERNEL32.dll
 0000:ffe3e000       .debug$S                   0000000140000000     kernel32:KERNEL32.dll
 0000:ffe3e000       .debug$S                   0000000140000000     kernel32:KERNEL32.dll
 0000:ffe3e000       .debug$S                   0000000140000000     kernel32:KERNEL32.dll
 0000:ffe3e000       .debug$S                   0000000140000000     kernel32:KERNEL32.dll
 0000:ffe3e000       .debug$S                   0000000140000000     kernel32:KERNEL32.dll
 0000:ffe3e000       .debug$S                   0000000140000000     kernel32:KERNEL32.dll
 0000:ffe3e000       .debug$S                   0000000140000000     kernel32:KERNEL32.dll
 0000:ffe3e000       .debug$S                   0000000140000000     kernel32:KERNEL32.dll
 0000:ffe3e000       .debug$S                   0000000140000000     kernel32:KERNEL32.dll
 0000:ffe3e000       .debug$S                   0000000140000000     kernel32:KERNEL32.dll
 0000:ffe3e000       .debug$S                   0000000140000000     kernel32:KERNEL32.dll
 0000:ffe3e000       .debug$S                   0000000140000000     kernel32:KERNEL32.dll
 0000:ffe3e000       .debug$S                   0000000140000000     kernel32:KERNEL32.dll
 0000:ffe3e000       .debug$S                   0000000140000000     kernel32:KERNEL32.dll
 0000:ffe3e000       .debug$S                   0000000140000000     kernel32:KERNEL32.dll
 0000:ffe3e000       .debug$S                   0000000140000000     kernel32:KERNEL32.dll
 0000:ffe3e000       .debug$S                   0000000140000000     kernel32:KERNEL32.dll
 0000:ffe3e000       .debug$S                   0000000140000000     kernel32:KERNEL32.dll
 0000:ffe3e000       .debug$S                   0000000140000000     kernel32:KERNEL32.dll
 0000:ffe3e000       .debug$S                   0000000140000000     kernel32:KERNEL32.dll
 0000:ffe3e000       .debug$S                   0000000140000000     kernel32:KERNEL32.dll
 0000:ffe3e000       .debug$S                   0000000140000000     kernel32:KERNEL32.dll
 0000:ffe3e000       .debug$S                   0000000140000000     kernel32:KERNEL32.dll
 0000:ffe3e000       .debug$S                   0000000140000000     kernel32:KERNEL32.dll
 0000:ffe3e000       .debug$S                   0000000140000000     kernel32:KERNEL32.dll
 0000:ffe3e000       .debug$S                   0000000140000000     kernel32:KERNEL32.dll
 0000:ffe3e000       .debug$S                   0000000140000000     kernel32:KERNEL32.dll
 0000:ffe3e000       .debug$S                   0000000140000000     kernel32:KERNEL32.dll
 0000:ffe3e000       .debug$S                   0000000140000000     kernel32:KERNEL32.dll
 0000:ffe3e000       .debug$S                   0000000140000000     kernel32:KERNEL32.dll
 0000:ffe3e000       .debug$S                   0000000140000000     kernel32:KERNEL32.dll
 0000:ffe3e000       .debug$S                   0000000140000000     kernel32:KERNEL32.dll
 0000:ffe3e000       .debug$S                   0000000140000000     kernel32:KERNEL32.dll
 0000:ffe3e000       .debug$S                   0000000140000000     kernel32:KERNEL32.dll
 0000:ffe3e000       .debug$S                   0000000140000000     kernel32:KERNEL32.dll
 0000:ffe3e000       .debug$S                   0000000140000000     kernel32:KERNEL32.dll
 0000:ffe3e000       .debug$S                   0000000140000000     kernel32:KERNEL32.dll
 0000:ffe3e000       .debug$S                   0000000140000000     shell32:SHELL32.dll
 0000:ffe3e000       .debug$S                   0000000140000000     user32:USER32.dll
 0000:ffe3e000       .debug$S                   0000000140000000     user32:USER32.dll
 0000:ffe3e000       .debug$S                   0000000140000000     user32:USER32.dll
 0000:ffe3e000       .debug$S                   0000000140000000     user32:USER32.dll
 0000:ffe3e000       .debug$S                   0000000140000000     user32:USER32.dll
 0000:ffe3e000       .debug$S                   0000000140000000     ucrt:api-ms-win-crt-convert-l1-1-0.dll
 0000:ffe3e000       .debug$S                   0000000140000000     ucrt:api-ms-win-crt-convert-l1-1-0.dll
 0000:ffe3e000       .debug$S                   0000000140000000     ucrt:api-ms-win-crt-heap-l1-1-0.dll
 0000:ffe3e000       .debug$S                   0000000140000000     ucrt:api-ms-win-crt-heap-l1-1-0.dll
 0000:ffe3e000       .debug$S                   0000000140000000     ucrt:api-ms-win-crt-heap-l1-1-0.dll
 0000:ffe3e000       .debug$S                   0000000140000000     ucrt:api-ms-win-crt-heap-l1-1-0.dll
 0000:ffe3e000       .debug$S                   0000000140000000     ucrt:api-ms-win-crt-heap-l1-1-0.dll
 0000:ffe3e000       .debug$S                   0000000140000000     ucrt:api-ms-win-crt-locale-l1-1-0.dll
 0000:ffe3e000       .debug$S                   0000000140000000     ucrt:api-ms-win-crt-math-l1-1-0.dll
 0000:ffe3e000       .debug$S                   0000000140000000     ucrt:api-ms-win-crt-math-l1-1-0.dll
 0000:ffe3e000       .debug$S                   0000000140000000     ucrt:api-ms-win-crt-math-l1-1-0.dll
 0000:ffe3e000       .debug$S                   0000000140000000     ucrt:api-ms-win-crt-math-l1-1-0.dll
 0000:ffe3e000       .debug$S                   0000000140000000     ucrt:api-ms-win-crt-math-l1-1-0.dll
 0000:ffe3e000       .debug$S                   0000000140000000     ucrt:api-ms-win-crt-math-l1-1-0.dll
 0000:ffe3e000       .debug$S                   0000000140000000     ucrt:api-ms-win-crt-math-l1-1-0.dll
 0000:ffe3e000       .debug$S                   0000000140000000     ucrt:api-ms-win-crt-math-l1-1-0.dll
 0000:ffe3e000       .debug$S                   0000000140000000     ucrt:api-ms-win-crt-math-l1-1-0.dll
 0000:ffe3e000       .debug$S                   0000000140000000     ucrt:api-ms-win-crt-math-l1-1-0.dll
 0000:ffe3e000       .debug$S                   0000000140000000     ucrt:api-ms-win-crt-math-l1-1-0.dll
 0000:ffe3e000       .debug$S                   0000000140000000     ucrt:api-ms-win-crt-math-l1-1-0.dll
 0000:ffe3e000       .debug$S                   0000000140000000     ucrt:api-ms-win-crt-math-l1-1-0.dll
 0000:ffe3e000       .debug$S                   0000000140000000     ucrt:api-ms-win-crt-math-l1-1-0.dll
 0000:ffe3e000       .debug$S                   0000000140000000     ucrt:api-ms-win-crt-math-l1-1-0.dll
 0000:ffe3e000       .debug$S                   0000000140000000     ucrt:api-ms-win-crt-math-l1-1-0.dll
 0000:ffe3e000       .debug$S                   0000000140000000     ucrt:api-ms-win-crt-runtime-l1-1-0.dll
 0000:ffe3e000       .debug$S                   0000000140000000     ucrt:api-ms-win-crt-runtime-l1-1-0.dll
 0000:ffe3e000       .debug$S                   0000000140000000     ucrt:api-ms-win-crt-runtime-l1-1-0.dll
 0000:ffe3e000       .debug$S                   0000000140000000     ucrt:api-ms-win-crt-runtime-l1-1-0.dll
 0000:ffe3e000       .debug$S                   0000000140000000     ucrt:api-ms-win-crt-runtime-l1-1-0.dll
 0000:ffe3e000       .debug$S                   0000000140000000     ucrt:api-ms-win-crt-runtime-l1-1-0.dll
 0000:ffe3e000       .debug$S                   0000000140000000     ucrt:api-ms-win-crt-runtime-l1-1-0.dll
 0000:ffe3e000       .debug$S                   0000000140000000     ucrt:api-ms-win-crt-runtime-l1-1-0.dll
 0000:ffe3e000       .debug$S                   0000000140000000     ucrt:api-ms-win-crt-runtime-l1-1-0.dll
 0000:ffe3e000       .debug$S                   0000000140000000     ucrt:api-ms-win-crt-runtime-l1-1-0.dll
 0000:ffe3e000       .debug$S                   0000000140000000     ucrt:api-ms-win-crt-runtime-l1-1-0.dll
 0000:ffe3e000       .debug$S                   0000000140000000     ucrt:api-ms-win-crt-runtime-l1-1-0.dll
 0000:ffe3e000       .debug$S                   0000000140000000     ucrt:api-ms-win-crt-runtime-l1-1-0.dll
 0000:ffe3e000       .debug$S                   0000000140000000     ucrt:api-ms-win-crt-runtime-l1-1-0.dll
 0000:ffe3e000       .debug$S                   0000000140000000     ucrt:api-ms-win-crt-runtime-l1-1-0.dll
 0000:ffe3e000       .debug$S                   0000000140000000     ucrt:api-ms-win-crt-runtime-l1-1-0.dll
 0000:ffe3e000       .debug$S                   0000000140000000     ucrt:api-ms-win-crt-runtime-l1-1-0.dll
 0000:ffe3e000       .debug$S                   0000000140000000     ucrt:api-ms-win-crt-runtime-l1-1-0.dll
 0000:ffe3e000       .debug$S                   0000000140000000     ucrt:api-ms-win-crt-runtime-l1-1-0.dll
 0000:ffe3e000       .debug$S                   0000000140000000     ucrt:api-ms-win-crt-runtime-l1-1-0.dll
 0000:ffe3e000       .debug$S                   0000000140000000     ucrt:api-ms-win-crt-runtime-l1-1-0.dll
 0000:ffe3e000       .debug$S                   0000000140000000     ucrt:api-ms-win-crt-runtime-l1-1-0.dll
 0000:ffe3e000       .debug$S                   0000000140000000     ucrt:api-ms-win-crt-runtime-l1-1-0.dll
 0000:ffe3e000       .debug$S                   0000000140000000     ucrt:api-ms-win-crt-stdio-l1-1-0.dll
 0000:ffe3e000       .debug$S                   0000000140000000     ucrt:api-ms-win-crt-stdio-l1-1-0.dll
 0000:ffe3e000       .debug$S                   0000000140000000     ucrt:api-ms-win-crt-stdio-l1-1-0.dll
 0000:ffe3e000       .debug$S                   0000000140000000     ucrt:api-ms-win-crt-stdio-l1-1-0.dll
 0000:ffe3e000       .debug$S                   0000000140000000     ucrt:api-ms-win-crt-stdio-l1-1-0.dll
 0000:ffe3e000       .debug$S                   0000000140000000     ucrt:api-ms-win-crt-stdio-l1-1-0.dll
 0000:ffe3e000       .debug$S                   0000000140000000     ucrt:api-ms-win-crt-stdio-l1-1-0.dll
 0000:ffe3e000       .debug$S                   0000000140000000     ucrt:api-ms-win-crt-stdio-l1-1-0.dll
 0000:ffe3e000       .debug$S                   0000000140000000     ucrt:api-ms-win-crt-stdio-l1-1-0.dll
 0000:ffe3e000       .debug$S                   0000000140000000     ucrt:api-ms-win-crt-stdio-l1-1-0.dll
 0000:ffe3e000       .debug$S                   0000000140000000     ucrt:api-ms-win-crt-stdio-l1-1-0.dll
 0000:ffe3e000       .debug$S                   0000000140000000     ucrt:api-ms-win-crt-stdio-l1-1-0.dll
 0000:ffe3e000       .debug$S                   0000000140000000     ucrt:api-ms-win-crt-stdio-l1-1-0.dll
 0000:ffe3e000       .debug$S                   0000000140000000     ucrt:api-ms-win-crt-stdio-l1-1-0.dll
 0000:ffe3e000       .debug$S                   0000000140000000     ucrt:api-ms-win-crt-stdio-l1-1-0.dll
 0000:ffe3e000       .debug$S                   0000000140000000     ucrt:api-ms-win-crt-stdio-l1-1-0.dll
 0000:ffe3e000       .debug$S                   0000000140000000     ucrt:api-ms-win-crt-stdio-l1-1-0.dll
 0000:ffe3e000       .debug$S                   0000000140000000     ucrt:api-ms-win-crt-stdio-l1-1-0.dll
 0000:ffe3e000       .debug$S                   0000000140000000     ucrt:api-ms-win-crt-string-l1-1-0.dll
 0000:ffe3e000       .debug$S                   0000000140000000     ucrt:api-ms-win-crt-string-l1-1-0.dll
 0000:ffe3e000       .debug$S                   0000000140000000     ucrt:api-ms-win-crt-string-l1-1-0.dll
 0000:ffe3e000       .debug$S                   0000000140000000     ucrt:api-ms-win-crt-string-l1-1-0.dll
 0000:ffe3e000       .debug$S                   0000000140000000     ucrt:api-ms-win-crt-string-l1-1-0.dll
 0000:ffe3e000       .debug$S                   0000000140000000     ucrt:api-ms-win-crt-string-l1-1-0.dll
 0000:ffe3e000       .debug$S                   0000000140000000     ucrt:api-ms-win-crt-string-l1-1-0.dll
 0000:ffe3e000       .debug$S                   0000000140000000     ucrt:api-ms-win-crt-utility-l1-1-0.dll
 0000:ffe3e000       .debug$S                   0000000140000000     ucrt:api-ms-win-crt-utility-l1-1-0.dll
 0000:ffe3e000       .debug$S                   0000000140000000     ucrt:api-ms-win-crt-utility-l1-1-0.dll
 0000:00000000       _volmd                     0000000140000000     MSVCRT:cpu_disp.obj
 0000:ffe42000       __guard_ehcont_?__ArrayUnwind@@YAXPEAX_K1P6AX0@Z@Z 0000000140000000     MSVCRT:ehvecdtr.obj
 0000:00000000       _volmd                     0000000140000000     MSVCRT:ehvecdtr.obj
 0002:ffebb000       $unwind$?configure_argv@__scrt_narrow_argv_policy@@SAHXZ 0000000140000000     MSVCRT:exe_main.obj
 0000:ffe42000       __guard_ehcont_?__scrt_common_main_seh@@YAHXZ 0000000140000000     MSVCRT:exe_main.obj
 0000:ffe42000       __guard_fids_?pre_c_initialization@@YAHXZ 0000000140000000     MSVCRT:exe_main.obj
 0000:ffe42000       __guard_fids__             0000000140000000     MSVCRT:exe_main.obj
 0000:00000000       _volmd                     0000000140000000     MSVCRT:gs_report.obj
 0000:00000000       _volmd                     0000000140000000     MSVCRT:gs_report.obj
 0000:00000000       _volmd                     0000000140000000     MSVCRT:gs_report.obj
 0000:ffe42000       __guard_fids__             0000000140000000     MSVCRT:guard_support.obj
 0000:ffe42000       __guard_fids__             0000000140000000     MSVCRT:guard_support.obj
 0000:ffe42000       __guard_fids__guard_icall_checks_enforced 0000000140000000     MSVCRT:guard_support.obj
 0000:00000000       _volmd                     0000000140000000     MSVCRT:guard_support.obj
 0000:00000000       _volmd                     0000000140000000     MSVCRT:guard_support.obj
 0000:00000000       _volmd                     0000000140000000     MSVCRT:guard_support.obj
 0000:00000000       _volmd                     0000000140000000     MSVCRT:guard_support.obj
 0000:00000000       _volmd                     0000000140000000     MSVCRT:guard_support.obj
 0000:00000000       _volmd                     0000000140000000     MSVCRT:guard_support.obj
 0000:ffe42000       __guard_fids__             0000000140000000     MSVCRT:std_type_info_static.obj
 0000:ffe42000       __guard_fids_?__scrt_initialize_thread_safe_statics@@YAHXZ 0000000140000000     MSVCRT:thread_safe_statics.obj
 0000:ffe42000       __guard_fids__             0000000140000000     MSVCRT:thread_safe_statics.obj
 0002:ffebb000       $unwind$??0bad_alloc@std@@QEAA@AEBV01@@Z 0000000140000000     MSVCRT:throw_bad_alloc.obj
 0002:ffebb000       $unwind$??0bad_array_new_length@std@@QEAA@AEBV01@@Z 0000000140000000     MSVCRT:throw_bad_alloc.obj
 0002:ffebb000       $unwind$??0exception@std@@QEAA@AEBV01@@Z 0000000140000000     MSVCRT:throw_bad_alloc.obj
 0002:ffebb000       $unwind$??_Gbad_alloc@std@@UEAAPEAXI@Z 0000000140000000     MSVCRT:throw_bad_alloc.obj
 0002:ffebb000       $unwind$??_Gbad_array_new_length@std@@UEAAPEAXI@Z 0000000140000000     MSVCRT:throw_bad_alloc.obj
 0002:ffebb000       $unwind$??_Gexception@std@@UEAAPEAXI@Z 0000000140000000     MSVCRT:throw_bad_alloc.obj
 0000:ffe42000       __guard_fids__             0000000140000000     MSVCRT:throw_bad_alloc.obj
 0000:ffe42000       __guard_fids__             0000000140000000     MSVCRT:throw_bad_alloc.obj
 0000:ffe42000       __guard_fids__             0000000140000000     MSVCRT:throw_bad_alloc.obj
 0000:ffe42000       __guard_ehcont___scrt_is_nonwritable_in_current_image 0000000140000000     MSVCRT:utility.obj
 0000:00000000       _volmd                     0000000140000000     MSVCRT:utility.obj
 0000:00000000       _volmd                     0000000140000000     MSVCRT:utility.obj
 0000:00000000       _volmd                     0000000140000000     MSVCRT:utility.obj
 0000:ffe42000       __guard_fids___scrt_set_unhandled_exception_filter 0000000140000000     MSVCRT:utility_desktop.obj
 0000:00000000       _volmd                     0000000140000000     MSVCRT:utility_desktop.obj
 0000:ffe3e000       .debug$S                   0000000140000000     msvcprt:MSVCP140.dll
 0000:ffe3e000       .debug$S                   0000000140000000     msvcprt:MSVCP140.dll
 0000:ffe3e000       .debug$S                   0000000140000000     vcruntime:VCRUNTIME140.dll
 0000:ffe3e000       .debug$S                   0000000140000000     vcruntime:VCRUNTIME140.dll
 0000:ffe3e000       .debug$S                   0000000140000000     vcruntime:VCRUNTIME140.dll
 0000:ffe3e000       .debug$S                   0000000140000000     vcruntime:VCRUNTIME140.dll
 0000:ffe3e000       .debug$S                   0000000140000000     vcruntime:VCRUNTIME140.dll
 0000:ffe3e000       .debug$S                   0000000140000000     vcruntime:VCRUNTIME140.dll
 0000:ffe3e000       .debug$S                   0000000140000000     vcruntime:VCRUNTIME140.dll
 0000:ffe3e000       .debug$S                   0000000140000000     vcruntime:VCRUNTIME140.dll
 0000:ffe3e000       .debug$S                   0000000140000000     vcruntime:VCRUNTIME140.dll
 0000:ffe3e000       .debug$S                   0000000140000000     vcruntime:VCRUNTIME140.dll
 0000:ffe3e000       .debug$S                   0000000140000000     vcruntime:VCRUNTIME140.dll
 0000:ffe3e000       .debug$S                   0000000140000000     vcruntime:VCRUNTIME140.dll
 0000:ffe3e000       .debug$S                   0000000140000000     vcruntime:VCRUNTIME140.dll
 0000:ffe3e000       .debug$S                   0000000140000000     vcruntime:VCRUNTIME140.dll
 0000:ffe3e000       .debug$S                   0000000140000000     vcruntime:VCRUNTIME140_1.dll
 0000:ffe42000       __guard_fids__             0000000140000000     vcruntime:softmemtag.obj
 0000:ffe42004       __guard_fids__             0000000140000004     MSVCRT:exe_main.obj
 0000:ffe42008       __guard_fids__             0000000140000008     MSVCRT:exe_main.obj
 0000:00000010       _volmd                     0000000140000010     toasty.obj
 0000:00000020       _volmd                     0000000140000020     toasty.obj
 0000:00000030       _volmd                     0000000140000030     toasty.obj
 0000:00000040       _volmd                     0000000140000040     toasty.obj
 0000:00000050       _volmd                     0000000140000050     toasty.obj
 0000:00000060       _volmd                     0000000140000060     toasty.obj
 0000:00000070       _volmd                     0000000140000070     toasty.obj
 0000:00000080       _volmd                     0000000140000080     toasty.obj
 0000:00000090       _volmd                     0000000140000090     toasty.obj
 0000:000000a0       _volmd                     00000001400000a0     toasty.obj
 0000:000000b0       _volmd                     00000001400000b0     toasty.obj
 0000:000000c0       _volmd                     00000001400000c0     toasty.obj
 0000:000000d0       _volmd                     00000001400000d0     toasty.obj
 0000:000000e0       _volmd                     00000001400000e0     toasty.obj
 0000:000000f0       _volmd                     00000001400000f0     toasty.obj
 0000:00000100       _volmd                     0000000140000100     toasty.obj
 0000:00000110       _volmd                     0000000140000110     toasty.obj
 0000:00000120       _volmd                     0000000140000120     toasty.obj
 0000:00000130       _volmd                     0000000140000130     toasty.obj
 0000:00000140       _volmd                     0000000140000140     toasty.obj
 0000:00000150       _volmd                     0000000140000150     toasty.obj
 0000:00000160       _volmd                     0000000140000160     toasty.obj
 0000:00000170       _volmd                     0000000140000170     toasty.obj
 0000:00000180       _volmd                     0000000140000180     toasty.obj
 0000:00000190       _volmd                     0000000140000190     toasty.obj
 0000:000001a0       _volmd                     00000001400001a0     toasty.obj
 0000:000001b0       _volmd                     00000001400001b0     toasty.obj
 0000:000001c0       _volmd                     00000001400001c0     toasty.obj
 0000:000001d0       _volmd                     00000001400001d0     toasty.obj
 0000:000001e0       _volmd                     00000001400001e0     toasty.obj
 0000:000001f0       _volmd                     00000001400001f0     toasty.obj
 0000:00000200       _volmd                     0000000140000200     toasty.obj
 0000:00000210       _volmd                     0000000140000210     toasty.obj
 0000:00000220       _volmd                     0000000140000220     toasty.obj
 0000:00000230       _volmd                     0000000140000230     toasty.obj
 0000:00000240       _volmd                     0000000140000240     toasty.obj
 0000:00000250       _volmd                     0000000140000250     toasty.obj
 0000:00000260       _volmd                     0000000140000260     toasty.obj
 0000:00000270       _volmd                     0000000140000270     toasty.obj
 0000:00000280       _volmd                     0000000140000280     toasty.obj
 0000:00000290       _volmd                     0000000140000290     toasty.obj
 0000:000002a0       _volmd                     00000001400002a0     toasty.obj
 0000:000002b0       _volmd                     00000001400002b0     toasty.obj
 0000:000002c0       _volmd                     00000001400002c0     toasty.obj
 0000:000002d0       _volmd                     00000001400002d0     toasty.obj
 0000:000002e0       _volmd                     00000001400002e0     toasty.obj
 0000:000002f0       _volmd                     00000001400002f0     toasty.obj
 0000:00000300       _volmd                     0000000140000300     toasty.obj
 0000:00000310       _volmd                     0000000140000310     toasty.obj
 0000:00000320       _volmd                     0000000140000320     toasty.obj
 0000:00000330       _volmd                     0000000140000330     toasty.obj
 0000:00000340       _volmd                     0000000140000340     toasty.obj
 0000:00000350       _volmd                     0000000140000350     toasty.obj
 0000:00000360       _volmd                     0000000140000360     toasty.obj
 0000:00000370       _volmd                     0000000140000370     toasty.obj
 0000:00000380       _volmd                     0000000140000380     toasty.obj
 0000:00000390       _volmd                     0000000140000390     toasty.obj
 0000:000003a0       _volmd                     00000001400003a0     toasty.obj
 0000:000003b0       _volmd                     00000001400003b0     toasty.obj
 0000:000003c0       _volmd                     00000001400003c0     toasty.obj
 0000:000003d0       _volmd                     00000001400003d0     toasty.obj
 0000:000003e0       _volmd                     00000001400003e0     toasty.obj
 0000:000003f0       _volmd                     00000001400003f0     toasty.obj
 0000:00000400       _volmd                     0000000140000400     toasty.obj
 0000:00000410       _volmd                     0000000140000410     toasty.obj
 0000:00000420       _volmd                     0000000140000420     toasty.obj
 0000:00000430       _volmd                     0000000140000430     toasty.obj
 0000:00000440       _volmd                     0000000140000440     toasty.obj
 0000:00000450       _volmd                     0000000140000450     toasty.obj
 0000:00000460       _volmd                     0000000140000460     toasty.obj
 0000:00000470       _volmd                     0000000140000470     toasty.obj
 0000:00000480       _volmd                     0000000140000480     toasty.obj
 0000:00000490       _volmd                     0000000140000490     toasty.obj
 0000:000004a0       _volmd                     00000001400004a0     toasty.obj
 0000:000004b0       _volmd                     00000001400004b0     toasty.obj
 0000:000004c0       _volmd                     00000001400004c0     toasty.obj
 0000:000004d0       _volmd                     00000001400004d0     toasty.obj
 0000:000004e0       _volmd                     00000001400004e0     toasty.obj
 0000:000004f0       _volmd                     00000001400004f0     toasty.obj
 0000:00000500       _volmd                     0000000140000500     toasty.obj
 0000:00000510       _volmd                     0000000140000510     toasty.obj
 0000:00000520       _volmd                     0000000140000520     toasty.obj
 0000:00000530       _volmd                     0000000140000530     toasty.obj
 0000:00000540       _volmd                     0000000140000540     toasty.obj
 0000:00000550       _volmd                     0000000140000550     toasty.obj
 0000:00000560       _volmd                     0000000140000560     toasty.obj
 0000:00000570       _volmd                     0000000140000570     toasty.obj
 0000:00000580       _volmd                     0000000140000580     toasty.obj
 0000:00000590       _volmd                     0000000140000590     toasty.obj
 0000:000005a0       _volmd                     00000001400005a0     toasty.obj
 0000:000005b0       _volmd                     00000001400005b0     toasty.obj
 0000:000005c0       _volmd                     00000001400005c0     toasty.obj
 0000:000005d0       _volmd                     00000001400005d0     toasty.obj
 0000:000005e0       _volmd                     00000001400005e0     toasty.obj
 0000:000005f0       _volmd                     00000001400005f0     toasty.obj
 0000:00000600       _volmd                     0000000140000600     toasty.obj
 0000:00000610       _volmd                     0000000140000610     toasty.obj
 0000:00000620       _volmd                     0000000140000620     toasty.obj
 0000:00000630       _volmd                     0000000140000630     toasty.obj
 0000:00000640       _volmd                     0000000140000640     toasty.obj
 0000:00000650       _volmd                     0000000140000650     toasty.obj
 0000:00000660       _volmd                     0000000140000660     toasty.obj
 0000:00000670       _volmd                     0000000140000670     toasty.obj
 0000:00000680       _volmd                     0000000140000680     toasty.obj
 0000:00000690       _volmd                     0000000140000690     toasty.obj
 0000:000006a0       _volmd                     00000001400006a0     toasty.obj
 0000:000006b0       _volmd                     00000001400006b0     toasty.obj
 0000:000006c0       _volmd                     00000001400006c0     toasty.obj
 0000:000006d0       _volmd                     00000001400006d0     toasty.obj
 0000:000006e0       _volmd                     00000001400006e0     toasty.obj
 0000:000006f0       _volmd                     00000001400006f0     toasty.obj
 0000:00000700       _volmd                     0000000140000700     toasty.obj
 0000:00000710       _volmd                     0000000140000710     toasty.obj
 0000:00000720       _volmd                     0000000140000720     toasty.obj
 0000:00000730       _volmd                     0000000140000730     toasty.obj
 0000:00000740       _volmd                     0000000140000740     toasty.obj
 0000:00000750       _volmd                     0000000140000750     toasty.obj
 0000:00000760       _volmd                     0000000140000760     toasty.obj
 0000:00000770       _volmd                     0000000140000770     toasty.obj
 0000:00000780       _volmd                     0000000140000780     toasty.obj
 0000:00000790       _volmd                     0000000140000790     toasty.obj
 0000:000007a0       _volmd                     00000001400007a0     toasty.obj
 0000:000007b0       _volmd                     00000001400007b0     toasty.obj
 0000:000007c0       _volmd                     00000001400007c0     toasty.obj
 0000:000007d0       _volmd                     00000001400007d0     toasty.obj
 0000:000007e0       _volmd                     00000001400007e0     toasty.obj
 0000:000007f0       _volmd                     00000001400007f0     toasty.obj
 0000:00000800       _volmd                     0000000140000800     toasty.obj
 0000:00000810       _volmd                     0000000140000810     toasty.obj
 0001:00006540       ?get_proc@@YAPEAXPEBD@Z    0000000140007540 f   toasty.obj
 0001:000065b0       ?open_gl@@YAHXZ            00000001400075b0 f   toasty.obj
 0001:00006630       ?close_gl@@YAXXZ           0000000140007630 f   toasty.obj
 0001:00006670       ?get_exts@@YAHXZ           0000000140007670 f   toasty.obj
 0001:00006790       ?free_exts@@YAXXZ          0000000140007790 f   toasty.obj
 0001:00006800       ?load_GL_VERSION_1_0@@YAXP6APEAXPEBD@Z@Z 0000000140007800 f   toasty.obj
 0001:00006b90       ?load_GL_VERSION_1_1@@YAXP6APEAXPEBD@Z@Z 0000000140007b90 f   toasty.obj
 0001:00006ca0       ?load_GL_VERSION_1_2@@YAXP6APEAXPEBD@Z@Z 0000000140007ca0 f   toasty.obj
 0001:00006d10       ?load_GL_VERSION_1_3@@YAXP6APEAXPEBD@Z@Z 0000000140007d10 f   toasty.obj
 0001:00006de0       ?load_GL_VERSION_1_4@@YAXP6APEAXPEBD@Z@Z 0000000140007de0 f   toasty.obj
 0001:00006eb0       ?load_GL_VERSION_1_5@@YAXP6APEAXPEBD@Z@Z 0000000140007eb0 f   toasty.obj
 0001:00007030       ?load_GL_VERSION_2_0@@YAXP6APEAXPEBD@Z@Z 0000000140008030 f   toasty.obj
 0001:000076e0       ?load_GL_VERSION_2_1@@YAXP6APEAXPEBD@Z@Z 00000001400086e0 f   toasty.obj
 0001:00007770       ?load_GL_VERSION_3_0@@YAXP6APEAXPEBD@Z@Z 0000000140008770 f   toasty.obj
 0001:00007d80       ?load_GL_VERSION_3_1@@YAXP6APEAXPEBD@Z@Z 0000000140008d80 f   toasty.obj
 0001:00007eb0       ?load_GL_VERSION_3_2@@YAXP6APEAXPEBD@Z@Z 0000000140008eb0 f   toasty.obj
 0001:00008030       ?load_GL_VERSION_3_3@@YAXP6APEAXPEBD@Z@Z 0000000140009030 f   toasty.obj
 0001:00008470       ?load_GL_VERSION_4_0@@YAXP6APEAXPEBD@Z@Z 0000000140009470 f   toasty.obj
 0001:000087d0       ?load_GL_VERSION_4_1@@YAXP6APEAXPEBD@Z@Z 00000001400097d0 f   toasty.obj
 0001:00008e40       ?load_GL_VERSION_4_2@@YAXP6APEAXPEBD@Z@Z 0000000140009e40 f   toasty.obj
 0001:00008f40       ?load_GL_VERSION_4_3@@YAXP6APEAXPEBD@Z@Z 0000000140009f40 f   toasty.obj
 0001:00009280       ?load_GL_VERSION_4_4@@YAXP6APEAXPEBD@Z@Z 000000014000a280 f   toasty.obj
 0001:00009350       ?find_extensionsGL@@YAHXZ  000000014000a350 f   toasty.obj
 0001:00009380       ?find_coreGL@@YAXXZ        000000014000a380 f   toasty.obj
 0001:0002da80       $LN59                      000000014002ea80     toasty.obj
 0001:0002e380       $LN13                      000000014002f380     toasty.obj
 0001:0003eb50       ?ImQsort@@YAXPEAX_K1P6AHPEBX2@Z@Z 000000014003fb50 f   toasty.obj
 0001:0003ec70       ?ImIsPowerOfTwo@@YA_NH@Z   000000014003fc70 f   toasty.obj
 0001:0003ecb0       ?ImUpperPowerOfTwo@@YAHH@Z 000000014003fcb0 f   toasty.obj
 0001:0003f3e0       ?ImCharIsBlankA@@YA_ND@Z   00000001400403e0 f   toasty.obj
 0001:0003f420       ?ImCharIsBlankW@@YA_NI@Z   0000000140040420 f   toasty.obj
 0001:00040350       ??D@YA?AUImVec2@@AEBU0@M@Z 0000000140041350 f   toasty.obj
 0001:000403a0       ??K@YA?AUImVec2@@AEBU0@M@Z 00000001400413a0 f   toasty.obj
 0001:000403f0       ??H@YA?AUImVec2@@AEBU0@0@Z 00000001400413f0 f   toasty.obj
 0001:00040450       ??G@YA?AUImVec2@@AEBU0@0@Z 0000000140041450 f   toasty.obj
 0001:000404b0       ??D@YA?AUImVec2@@AEBU0@0@Z 00000001400414b0 f   toasty.obj
 0001:00040510       ??K@YA?AUImVec2@@AEBU0@0@Z 0000000140041510 f   toasty.obj
 0001:00040570       ??X@YAAEAUImVec2@@AEAU0@M@Z 0000000140041570 f   toasty.obj
 0001:000405c0       ??Y@YAAEAUImVec2@@AEAU0@AEBU0@@Z 00000001400415c0 f   toasty.obj
 0001:00040610       ??Z@YAAEAUImVec2@@AEAU0@AEBU0@@Z 0000000140041610 f   toasty.obj
 0001:00040a70       ?ImPow@@YAMMM@Z            0000000140041a70 f   toasty.obj
 0001:00040aa0       ?ImPow@@YANNN@Z            0000000140041aa0 f   toasty.obj
 0001:00040ad0       ?ImLog@@YAMM@Z             0000000140041ad0 f   toasty.obj
 0001:00040b00       ?ImLog@@YANN@Z             0000000140041b00 f   toasty.obj
 0001:00040b20       ?ImAbs@@YAHH@Z             0000000140041b20 f   toasty.obj
 0001:00040b50       ?ImAbs@@YAMM@Z             0000000140041b50 f   toasty.obj
 0001:00040b70       ?ImAbs@@YANN@Z             0000000140041b70 f   toasty.obj
 0001:00040b90       ?ImRsqrt@@YAMM@Z           0000000140041b90 f   toasty.obj
 0001:00040be0       ?ImMin@@YA?AUImVec2@@AEBU1@0@Z 0000000140041be0 f   toasty.obj
 0001:00040c90       ?ImMax@@YA?AUImVec2@@AEBU1@0@Z 0000000140041c90 f   toasty.obj
 0001:00040d40       ?ImClamp@@YA?AUImVec2@@AEBU1@0U1@@Z 0000000140041d40 f   toasty.obj
 0001:00040e40       ?ImLerp@@YA?AUImVec2@@AEBU1@0M@Z 0000000140041e40 f   toasty.obj
 0001:00040ed0       ?ImLerp@@YA?AUImVec2@@AEBU1@00@Z 0000000140041ed0 f   toasty.obj
 0001:00040f60       ?ImLerp@@YA?AUImVec4@@AEBU1@0M@Z 0000000140041f60 f   toasty.obj
 0001:00041060       ?ImSaturate@@YAMM@Z        0000000140042060 f   toasty.obj
 0001:000410d0       ?ImLengthSqr@@YAMAEBUImVec2@@@Z 00000001400420d0 f   toasty.obj
 0001:00041110       ?ImFloor@@YAMM@Z           0000000140042110 f   toasty.obj
 0001:00041130       ?ImFloorSigned@@YAMM@Z     0000000140042130 f   toasty.obj
 0001:00041190       ?ImFloor@@YA?AUImVec2@@AEBU1@@Z 0000000140042190 f   toasty.obj
 0001:000411e0       ?ImFloorSigned@@YA?AUImVec2@@AEBU1@@Z 00000001400421e0 f   toasty.obj
 0001:00041240       ?ImDot@@YAMAEBUImVec2@@0@Z 0000000140042240 f   toasty.obj
 0001:00041280       ?ImRotate@@YA?AUImVec2@@AEBU1@MM@Z 0000000140042280 f   toasty.obj
 0001:00041300       ?ImLinearSweep@@YAMMMM@Z   0000000140042300 f   toasty.obj
 0001:00041380       ??$ImMin@M@@YAMMM@Z        0000000140042380 f   toasty.obj
 0001:000413d0       ??$ImMax@M@@YAMMM@Z        00000001400423d0 f   toasty.obj
 0001:00041420       ?ImMul@@YA?AUImVec2@@AEBU1@0@Z 0000000140042420 f   toasty.obj
 0001:00041480       ?ImIsFloatAboveGuaranteedIntegerPrecision@@YA_NM@Z 0000000140042480 f   toasty.obj
 0001:00042770       ??$ImMin@H@@YAHHH@Z        0000000140043770 f   toasty.obj
 0001:0005bcb0       $LN14                      000000014005ccb0     toasty.obj
 0001:00060c74       $LN71                      0000000140061c74     toasty.obj
 0001:000613fc       $LN36                      00000001400623fc     toasty.obj
 0001:00063088       $LN38                      0000000140064088     toasty.obj
 0001:0006343c       $LN17                      000000014006443c     toasty.obj
 0001:000635c8       $LN17                      00000001400645c8     toasty.obj
 0001:0006f860       ?SetCurrentWindow@@YAXPEAUImGuiWindow@@@Z 0000000140070860 f   toasty.obj
 0001:0006f930       ?FindHoveredWindow@@YAXXZ  0000000140070930 f   toasty.obj
 0001:0006fc60       ?CreateNewWindow@@YAPEAUImGuiWindow@@PEBDH@Z 0000000140070c60 f   toasty.obj
 0001:0006ff40       ?CalcNextScrollFromScrollTargetAndClamp@@YA?AUImVec2@@PEAUImGuiWindow@@@Z 0000000140070f40 f   toasty.obj
 0001:00070260       ?AddDrawListToDrawData@@YAXPEAU?$ImVector@PEAUImDrawList@@@@PEAUImDrawList@@@Z 0000000140071260 f   toasty.obj
 0001:000703e0       ?AddWindowToSortBuffer@@YAXPEAU?$ImVector@PEAUImGuiWindow@@@@PEAUImGuiWindow@@@Z 00000001400713e0 f   toasty.obj
 0001:000704b0       ?WindowSettingsHandler_ClearAll@@YAXPEAUImGuiContext@@PEAUImGuiSettingsHandler@@@Z 00000001400714b0 f   toasty.obj
 0001:00070540       ?WindowSettingsHandler_ReadOpen@@YAPEAXPEAUImGuiContext@@PEAUImGuiSettingsHandler@@PEBD@Z 0000000140071540 f   toasty.obj
 0001:000705b0       ?WindowSettingsHandler_ReadLine@@YAXPEAUImGuiContext@@PEAUImGuiSettingsHandler@@PEAXPEBD@Z 00000001400715b0 f   toasty.obj
 0001:000706b0       ?WindowSettingsHandler_ApplyAll@@YAXPEAUImGuiContext@@PEAUImGuiSettingsHandler@@@Z 00000001400716b0 f   toasty.obj
 0001:00070760       ?WindowSettingsHandler_WriteAll@@YAXPEAUImGuiContext@@PEAUImGuiSettingsHandler@@PEAUImGuiTextBuffer@@@Z 0000000140071760 f   toasty.obj
 0001:00070a40       ?GetClipboardTextFn_DefaultImpl@@YAPEBDPEAX@Z 0000000140071a40 f   toasty.obj
 0001:00070b80       ?SetClipboardTextFn_DefaultImpl@@YAXPEAXPEBD@Z 0000000140071b80 f   toasty.obj
 0001:00070c80       ?SetPlatformImeDataFn_DefaultImpl@@YAXPEAUImGuiViewport@@PEAUImGuiPlatformImeData@@@Z 0000000140071c80 f   toasty.obj
 0001:00070df0       ?NavUpdate@ImGui@@YAXXZ    0000000140071df0 f   toasty.obj
 0001:00072100       ?NavUpdateWindowing@ImGui@@YAXXZ 0000000140073100 f   toasty.obj
 0001:00072b80       ?NavUpdateWindowingOverlay@ImGui@@YAXXZ 0000000140073b80 f   toasty.obj
 0001:00072e10       ?NavUpdateCancelRequest@ImGui@@YAXXZ 0000000140073e10 f   toasty.obj
 0001:00073060       ?NavUpdateCreateMoveRequest@ImGui@@YAXXZ 0000000140074060 f   toasty.obj
 0001:00073950       ?NavUpdateCreateTabbingRequest@ImGui@@YAXXZ 0000000140074950 f   toasty.obj
 0001:00073b20       ?NavUpdatePageUpPageDown@ImGui@@YAMXZ 0000000140074b20 f   toasty.obj
 0001:00073fb0       ?NavUpdateAnyRequestFlag@ImGui@@YAXXZ 0000000140074fb0 f   toasty.obj
 0001:00074050       ?NavUpdateCreateWrappingRequest@ImGui@@YAXXZ 0000000140075050 f   toasty.obj
 0001:000742f0       ?NavEndFrame@ImGui@@YAXXZ  00000001400752f0 f   toasty.obj
 0001:00074370       ?NavScoreItem@ImGui@@YA_NPEAUImGuiNavItemData@@@Z 0000000140075370 f   toasty.obj
 0001:000749c0       ?NavApplyItemToResult@ImGui@@YAXPEAUImGuiNavItemData@@@Z 00000001400759c0 f   toasty.obj
 0001:00074a70       ?NavProcessItem@ImGui@@YAXXZ 0000000140075a70 f   toasty.obj
 0001:00074e70       ?NavProcessItemForTabbingRequest@ImGui@@YAXI@Z 0000000140075e70 f   toasty.obj
 0001:00074fa0       ?NavCalcPreferredRefPos@ImGui@@YA?AUImVec2@@XZ 0000000140075fa0 f   toasty.obj
 0001:00075230       ?NavSaveLastChildNavWindowIntoParent@ImGui@@YAXPEAUImGuiWindow@@@Z 0000000140076230 f   toasty.obj
 0001:000752b0       ?NavRestoreLastChildNavWindow@ImGui@@YAPEAUImGuiWindow@@PEAU2@@Z 00000001400762b0 f   toasty.obj
 0001:00075300       ?NavRestoreLayer@ImGui@@YAXW4ImGuiNavLayer@@@Z 0000000140076300 f   toasty.obj
 0001:000753c0       ?NavRestoreHighlightAfterMove@ImGui@@YAXXZ 00000001400763c0 f   toasty.obj
 0001:00075400       ?FindWindowFocusIndex@ImGui@@YAHPEAUImGuiWindow@@@Z 0000000140076400 f   toasty.obj
 0001:000754a0       ?ErrorCheckNewFrameSanityChecks@ImGui@@YAXXZ 00000001400764a0 f   toasty.obj
 0001:000758d0       ?ErrorCheckEndFrameSanityChecks@ImGui@@YAXXZ 00000001400768d0 f   toasty.obj
 0001:00075a10       ?UpdateDebugToolItemPicker@ImGui@@YAXXZ 0000000140076a10 f   toasty.obj
 0001:00075b20       ?UpdateDebugToolStackQueries@ImGui@@YAXXZ 0000000140076b20 f   toasty.obj
 0001:00075cf0       ?UpdateSettings@ImGui@@YAXXZ 0000000140076cf0 f   toasty.obj
 0001:00075e00       ?UpdateKeyboardInputs@ImGui@@YAXXZ 0000000140076e00 f   toasty.obj
 0001:000762b0       ?UpdateMouseInputs@ImGui@@YAXXZ 00000001400772b0 f   toasty.obj
 0001:000768a0       ?UpdateMouseWheel@ImGui@@YAXXZ 00000001400778a0 f   toasty.obj
 0001:00076f50       ?UpdateWindowManualResize@ImGui@@YA_NPEAUImGuiWindow@@AEBUImVec2@@PEAHHQEAIAEBUImRect@@@Z 0000000140077f50 f   toasty.obj
 0001:00077d20       ?RenderWindowOuterBorders@ImGui@@YAXPEAUImGuiWindow@@@Z 0000000140078d20 f   toasty.obj
 0001:000781e0       ?RenderWindowDecorations@ImGui@@YAXPEAUImGuiWindow@@AEBUImRect@@_NHQEBIM@Z 00000001400791e0 f   toasty.obj
 0001:00078a90       ?RenderWindowTitleBarContents@ImGui@@YAXPEAUImGuiWindow@@AEBUImRect@@PEBDPEA_N@Z 0000000140079a90 f   toasty.obj
 0001:00079190       ?RenderDimmedBackgroundBehindWindow@ImGui@@YAXPEAUImGuiWindow@@I@Z 000000014007a190 f   toasty.obj
 0001:00079330       ?RenderDimmedBackgrounds@ImGui@@YAXXZ 000000014007a330 f   toasty.obj
 0001:000795e0       ?FindBlockingModal@ImGui@@YAPEAUImGuiWindow@@PEAU2@@Z 000000014007a5e0 f   toasty.obj
 0001:00079720       ?UpdateViewportsNewFrame@ImGui@@YAXXZ 000000014007a720 f   toasty.obj
 0001:00079880       ?MallocWrapper@@YAPEAX_KPEAX@Z 000000014007a880 f   toasty.obj
 0001:000798b0       ?FreeWrapper@@YAXPEAX0@Z   000000014007a8b0 f   toasty.obj
 0001:000798e0       ?ImBezierCubicClosestPointCasteljauStep@@YAXAEBUImVec2@@AEAU1@1AEAMMMMMMMMMMH@Z 000000014007a8e0 f   toasty.obj
 0001:00079e80       ?ImTextCharToUtf8_inline@@YAHPEADHI@Z 000000014007ae80 f   toasty.obj
 0001:0007a040       ?ImTextCountUtf8BytesFromChar@@YAHI@Z 000000014007b040 f   toasty.obj
 0001:0007a0a0       ??$ImLerp@H@@YAHHHM@Z      000000014007b0a0 f   toasty.obj
 0001:0007a0e0       ??$ImSwap@M@@YAXAEAM0@Z    000000014007b0e0 f   toasty.obj
 0001:0007a130       ?LowerBound@@YAPEAUImGuiStoragePair@ImGuiStorage@@AEAU?$ImVector@UImGuiStoragePair@ImGuiStorage@@@@I@Z 000000014007b130 f   toasty.obj
 0001:0007a200       ?PairComparerByID@StaticFunc@?1??BuildSortByKey@ImGuiStorage@@QEAAXXZ@SAHPEBX0@Z 000000014007b200 f   toasty.obj
 0001:0007a250       ?GetSkipItemForListClipping@@YA_NXZ 000000014007b250 f   toasty.obj
 0001:0007a2b0       ??$ImClamp@H@@YAHHHH@Z     000000014007b2b0 f   toasty.obj
 0001:0007a310       ?ImGuiListClipper_SortAndFuseRanges@@YAXAEAU?$ImVector@UImGuiListClipperRange@@@@H@Z 000000014007b310 f   toasty.obj
 0001:0007a580       ??$ImSwap@UImGuiListClipperRange@@@@YAXAEAUImGuiListClipperRange@@0@Z 000000014007b580 f   toasty.obj
 0001:0007a5f0       ??$ImMax@H@@YAHHH@Z        000000014007b5f0 f   toasty.obj
 0001:0007a630       ?ImGuiListClipper_SeekCursorAndSetupPrevLine@@YAXMM@Z 000000014007b630 f   toasty.obj
 0001:0007a7c0       ?ImGuiListClipper_SeekCursorForItem@@YAXPEAUImGuiListClipper@@H@Z 000000014007b7c0 f   toasty.obj
 0001:0007a850       ?GetStyleVarInfo@@YAPEBUImGuiStyleVarInfo@@H@Z 000000014007b850 f   toasty.obj
 0001:0007a8b0       ?IsWindowContentHoverable@@YA_NPEAUImGuiWindow@@H@Z 000000014007b8b0 f   toasty.obj
 0001:0007a960       ?GetViewportDrawList@@YAPEAUImDrawList@@PEAUImGuiViewportP@@_KPEBD@Z 000000014007b960 f   toasty.obj
 0001:0007ab30       ?IsWindowActiveAndVisible@@YA_NPEAUImGuiWindow@@@Z 000000014007bb30 f   toasty.obj
 0001:0007ab80       ?StartLockWheelingWindow@@YAXPEAUImGuiWindow@@@Z 000000014007bb80 f   toasty.obj
 0001:0007abf0       ??$ImClamp@M@@YAMMMM@Z     000000014007bbf0 f   toasty.obj
 0001:0007ac70       ?ChildWindowComparer@@YAHPEBX0@Z 000000014007bc70 f   toasty.obj
 0001:0007ad20       ?AddWindowToDrawData@@YAXPEAUImGuiWindow@@H@Z 000000014007bd20 f   toasty.obj
 0001:0007ae10       ?GetWindowDisplayLayer@@YAHPEAUImGuiWindow@@@Z 000000014007be10 f   toasty.obj
 0001:0007ae50       ?AddRootWindowToDrawData@@YAXPEAUImGuiWindow@@@Z 000000014007be50 f   toasty.obj
 0001:0007ae80       ?SetupViewportDrawData@@YAXPEAUImGuiViewportP@@PEAU?$ImVector@PEAUImDrawList@@@@@Z 000000014007be80 f   toasty.obj
 0001:0007afc0       ?SetWindowConditionAllowFlags@@YAXPEAUImGuiWindow@@H_N@Z 000000014007bfc0 f   toasty.obj
 0001:0007b120       ?ApplyWindowSettings@@YAXPEAUImGuiWindow@@PEAUImGuiWindowSettings@@@Z 000000014007c120 f   toasty.obj
 0001:0007b200       ?UpdateWindowInFocusOrderList@@YAXPEAUImGuiWindow@@_NH@Z 000000014007c200 f   toasty.obj
 0001:0007b430       ?CalcWindowSizeAfterConstraint@@YA?AUImVec2@@PEAUImGuiWindow@@AEBU1@@Z 000000014007c430 f   toasty.obj
 0001:0007b6c0       ?CalcWindowContentSizes@@YAXPEAUImGuiWindow@@PEAUImVec2@@1@Z 000000014007c6c0 f   toasty.obj
 0001:0007b920       ?CalcWindowAutoFitSize@@YA?AUImVec2@@PEAUImGuiWindow@@AEBU1@@Z 000000014007c920 f   toasty.obj
 0001:0007bcb0       ?GetWindowBgColorIdx@@YAHPEAUImGuiWindow@@@Z 000000014007ccb0 f   toasty.obj
 0001:0007bd00       ?CalcResizePosSizeFromAnyCorner@@YAXPEAUImGuiWindow@@AEBUImVec2@@1PEAU2@2@Z 000000014007cd00 f   toasty.obj
 0001:0007be40       ?GetResizeBorderRect@@YA?AUImRect@@PEAUImGuiWindow@@HMM@Z 000000014007ce40 f   toasty.obj
 0001:0007c0b0       ?ClampWindowRect@@YAXPEAUImGuiWindow@@AEBUImRect@@@Z 000000014007d0b0 f   toasty.obj
 0001:0007c160       ?GetCombinedRootWindow@@YAPEAUImGuiWindow@@PEAU1@_N@Z 000000014007d160 f   toasty.obj
 0001:0007c1d0       ?GetInputSourceName@@YAPEBDW4ImGuiInputSource@@@Z 000000014007d1d0 f   toasty.obj
 0001:0007c290       ?CalcScrollEdgeSnap@@YAMMMMMM@Z 000000014007d290 f   toasty.obj
 0001:0007c320       ??$ImLerp@M@@YAMMMM@Z      000000014007d320 f   toasty.obj
 0001:0007c360       ?NavScoreItemDistInterval@@YAMMMMM@Z 000000014007d360 f   toasty.obj
 0001:0007c3c0       ?NavClampRectToVisibleAreaForMoveDir@@YAXHAEAUImRect@@AEBU1@@Z 000000014007d3c0 f   toasty.obj
 0001:0007c4a0       ?FindWindowNavFocusable@@YAPEAUImGuiWindow@@HHH@Z 000000014007d4a0 f   toasty.obj
 0001:0007c550       ?NavUpdateWindowingHighlightWindow@@YAXH@Z 000000014007d550 f   toasty.obj
 0001:0007c670       ?GetFallbackWindowNameForWindowingList@@YAPEBDPEAUImGuiWindow@@@Z 000000014007d670 f   toasty.obj
 0001:0007c6e0       ?LogTextV@@YAXAEAUImGuiContext@@PEBDPEAD@Z 000000014007d6e0 f   toasty.obj
 0001:0007c7b0       ?RenderViewportsThumbnails@@YAXXZ 000000014007d7b0 f   toasty.obj
 0001:0007ca00       ?MetricsHelpMarker@@YAXPEBD@Z 000000014007da00 f   toasty.obj
 0001:0007ca60       ?GetTableRect@Funcs@?1??ShowMetricsWindow@ImGui@@YAXPEA_N@Z@SA?AUImRect@@PEAUImGuiTable@@HH@Z 000000014007da60 f   toasty.obj
 0001:0007cfe0       ?GetWindowRect@Funcs@?1??ShowMetricsWindow@ImGui@@YAXPEA_N@Z@SA?AUImRect@@PEAUImGuiWindow@@H@Z 000000014007dfe0 f   toasty.obj
 0001:0007d2c0       ?WindowComparerByBeginOrder@Func@?DD@??ShowMetricsWindow@ImGui@@YAXPEA_N@Z@SAHPEBX1@Z 000000014007e2c0 f   toasty.obj
 0001:0007d300       ?StackToolFormatLevelInfo@@YAHPEAUImGuiStackTool@@H_NPEAD_K@Z 000000014007e300 f   toasty.obj
 0001:0007d470       ?TableSetupColumnFlags@@YAXPEAUImGuiTable@@PEAUImGuiTableColumn@@H@Z 000000014007e470 f   toasty.obj
 0001:0007d7f0       ??$ImSwap@C@@YAXAEAC0@Z    000000014007e7f0 f   toasty.obj
 0001:0007d830       ??0MergeGroup@?1??TableMergeDrawChannels@ImGui@@YAXPEAUImGuiTable@@@Z@QEAA@XZ 000000014007e830 f   toasty.obj
 0001:0007d880       ?TableGetColumnAvailSortDirection@@YAHPEAUImGuiTableColumn@@H@Z 000000014007e880 f   toasty.obj
 0001:0007d8e0       ??$ImMax@C@@YACCC@Z        000000014007e8e0 f   toasty.obj
 0001:0007d920       ?TableSettingsInit@@YAXPEAUImGuiTableSettings@@IHH@Z 000000014007e920 f   toasty.obj
 0001:0007da70       ?TableSettingsCalcChunkSize@@YA_KH@Z 000000014007ea70 f   toasty.obj
 0001:0007da90       ?TableSettingsHandler_ClearAll@@YAXPEAUImGuiContext@@PEAUImGuiSettingsHandler@@@Z 000000014007ea90 f   toasty.obj
 0001:0007db30       ?TableSettingsHandler_ApplyAll@@YAXPEAUImGuiContext@@PEAUImGuiSettingsHandler@@@Z 000000014007eb30 f   toasty.obj
 0001:0007dbc0       ?TableSettingsHandler_ReadOpen@@YAPEAXPEAUImGuiContext@@PEAUImGuiSettingsHandler@@PEBD@Z 000000014007ebc0 f   toasty.obj
 0001:0007dc80       ?TableSettingsHandler_ReadLine@@YAXPEAUImGuiContext@@PEAUImGuiSettingsHandler@@PEAXPEBD@Z 000000014007ec80 f   toasty.obj
 0001:0007e070       ?TableSettingsHandler_WriteAll@@YAXPEAUImGuiContext@@PEAUImGuiSettingsHandler@@PEAUImGuiTextBuffer@@@Z 000000014007f070 f   toasty.obj
 0001:0007e4a0       ?DebugNodeTableGetSizingPolicyDesc@@YAPEBDH@Z 000000014007f4a0 f   toasty.obj
 0001:0007e510       ?GetDraggedColumnOffset@@YAMPEAUImGuiOldColumns@@H@Z 000000014007f510 f   toasty.obj
 0001:0007e640       ?GetColumnWidthEx@@YAMPEAUImGuiOldColumns@@H_N@Z 000000014007f640 f   toasty.obj
 0001:0007e710       ?InputTextFilterCharacter@@YA_NPEAIHP6AHPEAUImGuiInputTextCallbackData@@@ZPEAXW4ImGuiInputSource@@@Z 000000014007f710 f   toasty.obj
 0001:0007ea50       ?InputTextCalcTextLenAndLineCount@@YAHPEBDPEAPEBD@Z 000000014007fa50 f   toasty.obj
 0001:0007eb10       ?InputTextCalcTextSizeW@@YA?AUImVec2@@PEBG0PEAPEBGPEAU1@_N@Z 000000014007fb10 f   toasty.obj
 0001:0007ed00       ??$ImMax@_J@@YA_J_J0@Z     000000014007fd00 f   toasty.obj
 0001:0007ed40       ?ShrinkWidthItemComparer@@YAHPEBX0@Z 000000014007fd40 f   toasty.obj
 0001:0007edb0       ?CalcMaxPopupHeightFromItemCount@@YAMH@Z 000000014007fdb0 f   toasty.obj
 0001:0007ee30       ?Items_ArrayGetter@@YA_NPEAXHPEAPEBD@Z 000000014007fe30 f   toasty.obj
 0001:0007ee80       ?Items_SingleStringGetter@@YA_NPEAXHPEAPEBD@Z 000000014007fe80 f   toasty.obj
 0001:0007ef20       ?PatchFormatStringFloatToInt@@YAPEBDPEBD@Z 000000014007ff20 f   toasty.obj
 0001:0007f090       ??$ImAddClampOverflow@C@@YACCCCC@Z 0000000140080090 f   toasty.obj
 0001:0007f100       ??$ImSubClampOverflow@C@@YACCCCC@Z 0000000140080100 f   toasty.obj
 0001:0007f170       ??$ImAddClampOverflow@E@@YAEEEEE@Z 0000000140080170 f   toasty.obj
 0001:0007f1e0       ??$ImSubClampOverflow@E@@YAEEEEE@Z 00000001400801e0 f   toasty.obj
 0001:0007f250       ??$ImAddClampOverflow@F@@YAFFFFF@Z 0000000140080250 f   toasty.obj
 0001:0007f2d0       ??$ImSubClampOverflow@F@@YAFFFFF@Z 00000001400802d0 f   toasty.obj
 0001:0007f350       ??$ImAddClampOverflow@G@@YAGGGGG@Z 0000000140080350 f   toasty.obj
 0001:0007f3d0       ??$ImSubClampOverflow@G@@YAGGGGG@Z 00000001400803d0 f   toasty.obj
 0001:0007f450       ??$ImAddClampOverflow@H@@YAHHHHH@Z 0000000140080450 f   toasty.obj
 0001:0007f4c0       ??$ImSubClampOverflow@H@@YAHHHHH@Z 00000001400804c0 f   toasty.obj
 0001:0007f530       ??$ImAddClampOverflow@I@@YAIIIII@Z 0000000140080530 f   toasty.obj
 0001:0007f5a0       ??$ImSubClampOverflow@I@@YAIIIII@Z 00000001400805a0 f   toasty.obj
 0001:0007f610       ??$ImAddClampOverflow@_J@@YA_J_J000@Z 0000000140080610 f   toasty.obj
 0001:0007f690       ??$ImSubClampOverflow@_J@@YA_J_J000@Z 0000000140080690 f   toasty.obj
 0001:0007f710       ??$ImAddClampOverflow@_K@@YA_K_K000@Z 0000000140080710 f   toasty.obj
 0001:0007f790       ??$ImSubClampOverflow@_K@@YA_K_K000@Z 0000000140080790 f   toasty.obj
 0001:0007f810       ??$DataTypeCompareT@C@@YAHPEBC0@Z 0000000140080810 f   toasty.obj
 0001:0007f860       ??$DataTypeCompareT@E@@YAHPEBE0@Z 0000000140080860 f   toasty.obj
 0001:0007f8b0       ??$DataTypeCompareT@F@@YAHPEBF0@Z 00000001400808b0 f   toasty.obj
 0001:0007f900       ??$DataTypeCompareT@G@@YAHPEBG0@Z 0000000140080900 f   toasty.obj
 0001:0007f950       ??$DataTypeCompareT@H@@YAHPEBH0@Z 0000000140080950 f   toasty.obj
 0001:0007f9a0       ??$DataTypeCompareT@I@@YAHPEBI0@Z 00000001400809a0 f   toasty.obj
 0001:0007f9f0       ??$DataTypeCompareT@_J@@YAHPEB_J0@Z 00000001400809f0 f   toasty.obj
 0001:0007fa40       ??$DataTypeCompareT@_K@@YAHPEB_K0@Z 0000000140080a40 f   toasty.obj
 0001:0007fa90       ??$DataTypeCompareT@M@@YAHPEBM0@Z 0000000140080a90 f   toasty.obj
 0001:0007fae0       ??$DataTypeCompareT@N@@YAHPEBN0@Z 0000000140080ae0 f   toasty.obj
 0001:0007fb30       ??$DataTypeClampT@C@@YA_NPEACPEBC1@Z 0000000140080b30 f   toasty.obj
 0001:0007fbb0       ??$DataTypeClampT@E@@YA_NPEAEPEBE1@Z 0000000140080bb0 f   toasty.obj
 0001:0007fc30       ??$DataTypeClampT@F@@YA_NPEAFPEBF1@Z 0000000140080c30 f   toasty.obj
 0001:0007fcb0       ??$DataTypeClampT@G@@YA_NPEAGPEBG1@Z 0000000140080cb0 f   toasty.obj
 0001:0007fd30       ??$DataTypeClampT@H@@YA_NPEAHPEBH1@Z 0000000140080d30 f   toasty.obj
 0001:0007fda0       ??$DataTypeClampT@I@@YA_NPEAIPEBI1@Z 0000000140080da0 f   toasty.obj
 0001:0007fe10       ??$DataTypeClampT@_J@@YA_NPEA_JPEB_J1@Z 0000000140080e10 f   toasty.obj
 0001:0007fe90       ??$DataTypeClampT@_K@@YA_NPEA_KPEB_K1@Z 0000000140080e90 f   toasty.obj
 0001:0007ff10       ??$DataTypeClampT@M@@YA_NPEAMPEBM1@Z 0000000140080f10 f   toasty.obj
 0001:0007ff90       ??$DataTypeClampT@N@@YA_NPEANPEBN1@Z 0000000140080f90 f   toasty.obj
 0001:00080010       ?GetMinimumStepAtDecimalPrecision@@YAMH@Z 0000000140081010 f   toasty.obj
 0001:00080080       ??$ImMin@_K@@YA_K_K0@Z     0000000140081080 f   toasty.obj
 0001:000800c0       ??$ImAtoi@H@@YAPEBDPEBDPEAH@Z 00000001400810c0 f   toasty.obj
 0001:00080190       ?InputScalar_DefaultCharsFilter@@YAHHPEBD@Z 0000000140081190 f   toasty.obj
 0001:00080230       ??$ImSwap@PEBX@@YAXAEAPEBX0@Z 0000000140081230 f   toasty.obj
 0001:00080280       ?STB_TEXTEDIT_STRINGLEN@ImStb@@YAHPEBUImGuiInputTextState@@@Z 0000000140081280 f   toasty.obj
 0001:000802a0       ?STB_TEXTEDIT_GETCHAR@ImStb@@YAGPEBUImGuiInputTextState@@H@Z 00000001400812a0 f   toasty.obj
 0001:000802d0       ?STB_TEXTEDIT_GETWIDTH@ImStb@@YAMPEAUImGuiInputTextState@@HH@Z 00000001400812d0 f   toasty.obj
 0001:00080370       ?STB_TEXTEDIT_KEYTOTEXT@ImStb@@YAHH@Z 0000000140081370 f   toasty.obj
 0001:000803a0       ?STB_TEXTEDIT_LAYOUTROW@ImStb@@YAXPEAUStbTexteditRow@1@PEAUImGuiInputTextState@@H@Z 00000001400813a0 f   toasty.obj
 0001:00080490       ?is_separator@ImStb@@YA_NI@Z 0000000140081490 f   toasty.obj
 0001:00080520       ?is_word_boundary_from_right@ImStb@@YAHPEAUImGuiInputTextState@@H@Z 0000000140081520 f   toasty.obj
 0001:000805d0       ?is_word_boundary_from_left@ImStb@@YAHPEAUImGuiInputTextState@@H@Z 00000001400815d0 f   toasty.obj
 0001:00080680       ?STB_TEXTEDIT_MOVEWORDLEFT_IMPL@ImStb@@YAHPEAUImGuiInputTextState@@H@Z 0000000140081680 f   toasty.obj
 0001:000806f0       ?STB_TEXTEDIT_MOVEWORDRIGHT_MAC@ImStb@@YAHPEAUImGuiInputTextState@@H@Z 00000001400816f0 f   toasty.obj
 0001:00080770       ?STB_TEXTEDIT_MOVEWORDRIGHT_WIN@ImStb@@YAHPEAUImGuiInputTextState@@H@Z 0000000140081770 f   toasty.obj
 0001:000807f0       ?STB_TEXTEDIT_DELETECHARS@ImStb@@YAXPEAUImGuiInputTextState@@HH@Z 00000001400817f0 f   toasty.obj
 0001:000808e0       ?STB_TEXTEDIT_INSERTCHARS@ImStb@@YA_NPEAUImGuiInputTextState@@HPEBGH@Z 00000001400818e0 f   toasty.obj
 0001:00080b10       ?stb_text_locate_coord@ImStb@@YAHPEAUImGuiInputTextState@@MM@Z 0000000140081b10 f   toasty.obj
 0001:00080d60       ?stb_textedit_click@ImStb@@YAXPEAUImGuiInputTextState@@PEAUSTB_TexteditState@1@MM@Z 0000000140081d60 f   toasty.obj
 0001:00080e10       ?stb_textedit_drag@ImStb@@YAXPEAUImGuiInputTextState@@PEAUSTB_TexteditState@1@MM@Z 0000000140081e10 f   toasty.obj
 0001:00080ee0       ?stb_text_undo@ImStb@@YAXPEAUImGuiInputTextState@@PEAUSTB_TexteditState@1@@Z 0000000140081ee0 f   toasty.obj
 0001:00081180       ?stb_text_redo@ImStb@@YAXPEAUImGuiInputTextState@@PEAUSTB_TexteditState@1@@Z 0000000140082180 f   toasty.obj
 0001:000813d0       ?stb_text_makeundo_delete@ImStb@@YAXPEAUImGuiInputTextState@@PEAUSTB_TexteditState@1@HH@Z 00000001400823d0 f   toasty.obj
 0001:00081470       ?stb_text_makeundo_insert@ImStb@@YAXPEAUSTB_TexteditState@1@HH@Z 0000000140082470 f   toasty.obj
 0001:000814b0       ?stb_text_makeundo_replace@ImStb@@YAXPEAUImGuiInputTextState@@PEAUSTB_TexteditState@1@HHH@Z 00000001400824b0 f   toasty.obj
 0001:00081550       ?stb_textedit_find_charpos@ImStb@@YAXPEAUStbFindState@1@PEAUImGuiInputTextState@@HH@Z 0000000140082550 f   toasty.obj
 0001:000817c0       ?stb_textedit_clamp@ImStb@@YAXPEAUImGuiInputTextState@@PEAUSTB_TexteditState@1@@Z 00000001400827c0 f   toasty.obj
 0001:00081870       ?stb_textedit_delete@ImStb@@YAXPEAUImGuiInputTextState@@PEAUSTB_TexteditState@1@HH@Z 0000000140082870 f   toasty.obj
 0001:000818d0       ?stb_textedit_delete_selection@ImStb@@YAXPEAUImGuiInputTextState@@PEAUSTB_TexteditState@1@@Z 00000001400828d0 f   toasty.obj
 0001:000819d0       ?stb_textedit_sortselection@ImStb@@YAXPEAUSTB_TexteditState@1@@Z 00000001400829d0 f   toasty.obj
 0001:00081a20       ?stb_textedit_move_to_first@ImStb@@YAXPEAUSTB_TexteditState@1@@Z 0000000140082a20 f   toasty.obj
 0001:00081a80       ?stb_textedit_move_to_last@ImStb@@YAXPEAUImGuiInputTextState@@PEAUSTB_TexteditState@1@@Z 0000000140082a80 f   toasty.obj
 0001:00081af0       ?stb_textedit_prep_selection_at_cursor@ImStb@@YAXPEAUSTB_TexteditState@1@@Z 0000000140082af0 f   toasty.obj
 0001:00081b40       ?stb_textedit_cut@ImStb@@YAHPEAUImGuiInputTextState@@PEAUSTB_TexteditState@1@@Z 0000000140082b40 f   toasty.obj
 0001:00081b90       ?stb_textedit_paste_internal@ImStb@@YAHPEAUImGuiInputTextState@@PEAUSTB_TexteditState@1@PEAGH@Z 0000000140082b90 f   toasty.obj
 0001:00081c30       ?stb_textedit_key@ImStb@@YAXPEAUImGuiInputTextState@@PEAUSTB_TexteditState@1@H@Z 0000000140082c30 f   toasty.obj
 0001:00082e20       $LN128                     0000000140083e20     toasty.obj
 0001:00082e60       $LN127                     0000000140083e60     toasty.obj
 0001:00082eb0       ?stb_textedit_flush_redo@ImStb@@YAXPEAUStbUndoState@1@@Z 0000000140083eb0 f   toasty.obj
 0001:00082ee0       ?stb_textedit_discard_undo@ImStb@@YAXPEAUStbUndoState@1@@Z 0000000140083ee0 f   toasty.obj
 0001:00083060       ?stb_textedit_discard_redo@ImStb@@YAXPEAUStbUndoState@1@@Z 0000000140084060 f   toasty.obj
 0001:000832d0       ?stb_text_create_undo_record@ImStb@@YAPEAUStbUndoRecord@1@PEAUStbUndoState@1@H@Z 00000001400842d0 f   toasty.obj
 0001:000833a0       ?stb_text_createundo@ImStb@@YAPEAGPEAUStbUndoState@1@HHH@Z 00000001400843a0 f   toasty.obj
 0001:00083460       ?stb_textedit_clear_state@ImStb@@YAXPEAUSTB_TexteditState@1@H@Z 0000000140084460 f   toasty.obj
 0001:00083520       ?stb_textedit_initialize_state@ImStb@@YAXPEAUSTB_TexteditState@1@H@Z 0000000140084520 f   toasty.obj
 0001:00083550       ?stb_textedit_paste@ImStb@@YAHPEAUImGuiInputTextState@@PEAUSTB_TexteditState@1@PEBGH@Z 0000000140084550 f   toasty.obj
 0001:00083590       ?stb_textedit_replace@ImStb@@YAXPEAUImGuiInputTextState@@PEAUSTB_TexteditState@1@PEBGH@Z 0000000140084590 f   toasty.obj
 0001:00083650       ??$ImSwap@H@@YAXAEAH0@Z    0000000140084650 f   toasty.obj
 0001:00083690       ?ColorEditRestoreHS@@YAXPEBMPEAM11@Z 0000000140084690 f   toasty.obj
 0001:000837b0       ?RenderArrowsForVerticalBar@@YAXPEAUImDrawList@@UImVec2@@1MM@Z 00000001400847b0 f   toasty.obj
 0001:00083a10       ?Plot_ArrayGetter@@YAMPEAXH@Z 0000000140084a10 f   toasty.obj
 0001:00083a60       ??$ImMax@G@@YAGGG@Z        0000000140084a60 f   toasty.obj
 0001:00083aa0       ??$ImMax@I@@YAIII@Z        0000000140084aa0 f   toasty.obj
 0001:00083ae0       ?IsRootOfOpenMenuSet@@YA_NXZ 0000000140084ae0 f   toasty.obj
 0001:00083ba0       ?TabBarLayout@ImGui@@YAXPEAUImGuiTabBar@@@Z 0000000140084ba0 f   toasty.obj
 0001:00084dd0       ?TabBarCalcTabID@ImGui@@YAIPEAUImGuiTabBar@@PEBD@Z 0000000140085dd0 f   toasty.obj
 0001:00084e50       ?TabBarCalcMaxTabWidth@ImGui@@YAMXZ 0000000140085e50 f   toasty.obj
 0001:00084e80       ?TabBarScrollClamp@ImGui@@YAMPEAUImGuiTabBar@@M@Z 0000000140085e80 f   toasty.obj
 0001:00084ee0       ?TabBarScrollToTab@ImGui@@YAXPEAUImGuiTabBar@@IPEAUImGuiTabBarSection@@@Z 0000000140085ee0 f   toasty.obj
 0001:00085160       ?TabBarScrollingButtons@ImGui@@YAPEAUImGuiTabItem@@PEAUImGuiTabBar@@@Z 0000000140086160 f   toasty.obj
 0001:00085560       ?TabBarTabListPopupButton@ImGui@@YAPEAUImGuiTabItem@@PEAUImGuiTabBar@@@Z 0000000140086560 f   toasty.obj
 0001:000857c0       ?TabItemGetSectionIdx@@YAHPEBUImGuiTabItem@@@Z 00000001400867c0 f   toasty.obj
 0001:00085820       ?TabItemComparerBySection@@YAHPEBX0@Z 0000000140086820 f   toasty.obj
 0001:000858a0       ?TabItemComparerByBeginOrder@@YAHPEBX0@Z 00000001400868a0 f   toasty.obj
 0001:000858e0       ?GetTabBarFromTabBarRef@@YAPEAUImGuiTabBar@@AEBUImGuiPtrOrIndex@@@Z 00000001400868e0 f   toasty.obj
 0001:00085940       ?GetTabBarRefFromTabBar@@YA?AUImGuiPtrOrIndex@@PEAUImGuiTabBar@@@Z 0000000140086940 f   toasty.obj
 0001:000859d0       stbrp_pack_rects           00000001400869d0 f   toasty.obj
 0001:00085ca0       stbrp_init_target          0000000140086ca0 f   toasty.obj
 0001:00085e40       stbrp_setup_allow_out_of_mem 0000000140086e40 f   toasty.obj
 0001:00085e90       ?stbrp__skyline_find_min_y@@YAHPEAUstbrp_context@@PEAUstbrp_node@@HHPEAH@Z 0000000140086e90 f   toasty.obj
 0001:000860b0       ?stbrp__skyline_find_best_pos@@YA?AUstbrp__findresult@@PEAUstbrp_context@@HH@Z 00000001400870b0 f   toasty.obj
 0001:00086520       ?stbrp__skyline_pack_rectangle@@YA?AUstbrp__findresult@@PEAUstbrp_context@@HH@Z 0000000140087520 f   toasty.obj
 0001:00086750       ?rect_height_compare@@YAHPEBX0@Z 0000000140087750 f   toasty.obj
 0001:00086800       ?rect_original_order@@YAHPEBX0@Z 0000000140087800 f   toasty.obj
 0001:00086880       stbtt_PackBegin            0000000140087880 f   toasty.obj
 0001:00086a30       stbtt_PackEnd              0000000140087a30 f   toasty.obj
 0001:00086a60       stbtt_GetPackedQuad        0000000140087a60 f   toasty.obj
 0001:00086cd0       stbtt_PackFontRangesRenderIntoRects 0000000140087cd0 f   toasty.obj
 0001:000874e0       stbtt_GetFontOffsetForIndex 00000001400884e0 f   toasty.obj
 0001:00087510       stbtt_InitFont             0000000140088510 f   toasty.obj
 0001:00087550       stbtt_FindGlyphIndex       0000000140088550 f   toasty.obj
 0001:00087b70       stbtt_ScaleForPixelHeight  0000000140088b70 f   toasty.obj
 0001:00087bf0       stbtt_ScaleForMappingEmToPixels 0000000140088bf0 f   toasty.obj
 0001:00087c50       stbtt_GetFontVMetrics      0000000140088c50 f   toasty.obj
 0001:00087d00       stbtt_GetGlyphHMetrics     0000000140088d00 f   toasty.obj
 0001:00087e70       stbtt_GetGlyphBox          0000000140088e70 f   toasty.obj
 0001:00087fa0       stbtt_GetGlyphShape        0000000140088fa0 f   toasty.obj
 0001:00088000       stbtt_MakeGlyphBitmapSubpixel 0000000140089000 f   toasty.obj
 0001:00088190       stbtt_GetGlyphBitmapBox    0000000140089190 f   toasty.obj
 0001:00088220       stbtt_GetGlyphBitmapBoxSubpixel 0000000140089220 f   toasty.obj
 0001:000883c0       stbtt_Rasterize            00000001400893c0 f   toasty.obj
 0001:00088530       ?stbtt__buf_get8@@YAEPEAUstbtt__buf@@@Z 0000000140089530 f   toasty.obj
 0001:00088590       ?stbtt__buf_peek8@@YAEPEAUstbtt__buf@@@Z 0000000140089590 f   toasty.obj
 0001:000885d0       ?stbtt__buf_seek@@YAXPEAUstbtt__buf@@H@Z 00000001400895d0 f   toasty.obj
 0001:00088660       ?stbtt__buf_skip@@YAXPEAUstbtt__buf@@H@Z 0000000140089660 f   toasty.obj
 0001:00088690       ?stbtt__buf_get@@YAIPEAUstbtt__buf@@H@Z 0000000140089690 f   toasty.obj
 0001:00088730       ?stbtt__new_buf@@YA?AUstbtt__buf@@PEBX_K@Z 0000000140089730 f   toasty.obj
 0001:000887c0       ?stbtt__buf_range@@YA?AUstbtt__buf@@PEBU1@HH@Z 00000001400897c0 f   toasty.obj
 0001:000888c0       ?stbtt__cff_get_index@@YA?AUstbtt__buf@@PEAU1@@Z 00000001400898c0 f   toasty.obj
 0001:000889d0       ?stbtt__cff_int@@YAIPEAUstbtt__buf@@@Z 00000001400899d0 f   toasty.obj
 0001:00088b00       ?stbtt__cff_skip_operand@@YAXPEAUstbtt__buf@@@Z 0000000140089b00 f   toasty.obj
 0001:00088bb0       ?stbtt__dict_get@@YA?AUstbtt__buf@@PEAU1@H@Z 0000000140089bb0 f   toasty.obj
 0001:00088d30       ?stbtt__dict_get_ints@@YAXPEAUstbtt__buf@@HHPEAI@Z 0000000140089d30 f   toasty.obj
 0001:00088de0       ?stbtt__cff_index_count@@YAHPEAUstbtt__buf@@@Z 0000000140089de0 f   toasty.obj
 0001:00088e10       ?stbtt__cff_index_get@@YA?AUstbtt__buf@@U1@H@Z 0000000140089e10 f   toasty.obj
 0001:00088f70       ?ttUSHORT@@YAGPEAE@Z       0000000140089f70 f   toasty.obj
 0001:00088fb0       ?ttSHORT@@YAFPEAE@Z        0000000140089fb0 f   toasty.obj
 0001:00088ff0       ?ttULONG@@YAIPEAE@Z        0000000140089ff0 f   toasty.obj
 0001:00089060       ?ttLONG@@YAHPEAE@Z         000000014008a060 f   toasty.obj
 0001:000890d0       ?stbtt__isfont@@YAHPEAE@Z  000000014008a0d0 f   toasty.obj
 0001:000893d0       ?stbtt__find_table@@YAIPEAEIPEBD@Z 000000014008a3d0 f   toasty.obj
 0001:00089540       ?stbtt_GetFontOffsetForIndex_internal@@YAHPEAEH@Z 000000014008a540 f   toasty.obj
 0001:000896c0       ?stbtt__get_subrs@@YA?AUstbtt__buf@@U1@0@Z 000000014008a6c0 f   toasty.obj
 0001:000898b0       ?stbtt_InitFont_internal@@YAHPEAUstbtt_fontinfo@@PEAEH@Z 000000014008a8b0 f   toasty.obj
 0001:0008a180       ?stbtt_setvertex@@YAXPEAUstbtt_vertex@@EHHHH@Z 000000014008b180 f   toasty.obj
 0001:0008a1e0       ?stbtt__GetGlyfOffset@@YAHPEBUstbtt_fontinfo@@H@Z 000000014008b1e0 f   toasty.obj
 0001:0008a380       ?stbtt__GetGlyphInfoT2@@YAHPEBUstbtt_fontinfo@@HPEAH111@Z 000000014008b380 f   toasty.obj
 0001:0008a510       ?stbtt__close_shape@@YAHPEAUstbtt_vertex@@HHHHHHHHH@Z 000000014008b510 f   toasty.obj
 0001:0008a6c0       ?stbtt__GetGlyphShapeTT@@YAHPEBUstbtt_fontinfo@@HPEAPEAUstbtt_vertex@@@Z 000000014008b6c0 f   toasty.obj
 0001:0008ba40       ?stbtt__track_vertex@@YAXPEAUstbtt__csctx@@HH@Z 000000014008ca40 f   toasty.obj
 0001:0008bb00       ?stbtt__csctx_v@@YAXPEAUstbtt__csctx@@EHHHHHH@Z 000000014008cb00 f   toasty.obj
 0001:0008bc00       ?stbtt__csctx_close_shape@@YAXPEAUstbtt__csctx@@@Z 000000014008cc00 f   toasty.obj
 0001:0008bc90       ?stbtt__csctx_rmove_to@@YAXPEAUstbtt__csctx@@MM@Z 000000014008cc90 f   toasty.obj
 0001:0008bd70       ?stbtt__csctx_rline_to@@YAXPEAUstbtt__csctx@@MM@Z 000000014008cd70 f   toasty.obj
 0001:0008be10       ?stbtt__csctx_rccurve_to@@YAXPEAUstbtt__csctx@@MMMMMM@Z 000000014008ce10 f   toasty.obj
 0001:0008bf10       ?stbtt__get_subr@@YA?AUstbtt__buf@@U1@H@Z 000000014008cf10 f   toasty.obj
 0001:0008c050       ?stbtt__cid_get_glyph_subrs@@YA?AUstbtt__buf@@PEBUstbtt_fontinfo@@H@Z 000000014008d050 f   toasty.obj
 0001:0008c290       ?stbtt__run_charstring@@YAHPEBUstbtt_fontinfo@@HPEAUstbtt__csctx@@@Z 000000014008d290 f   toasty.obj
 0001:0008d61c       $LN107                     000000014008e61c     toasty.obj
 0001:0008d6a0       ?stbtt__GetGlyphShapeT2@@YAHPEBUstbtt_fontinfo@@HPEAPEAUstbtt_vertex@@@Z 000000014008e6a0 f   toasty.obj
 0001:0008d850       ?stbtt__hheap_alloc@@YAPEAXPEAUstbtt__hheap@@_KPEAX@Z 000000014008e850 f   toasty.obj
 0001:0008d990       ?stbtt__hheap_free@@YAXPEAUstbtt__hheap@@PEAX@Z 000000014008e990 f   toasty.obj
 0001:0008d9c0       ?stbtt__hheap_cleanup@@YAXPEAUstbtt__hheap@@PEAX@Z 000000014008e9c0 f   toasty.obj
 0001:0008da20       ?stbtt__new_active@@YAPEAUstbtt__active_edge@@PEAUstbtt__hheap@@PEAUstbtt__edge@@HMPEAX@Z 000000014008ea20 f   toasty.obj
 0001:0008dbf0       ?stbtt__handle_clipped_edge@@YAXPEAMHPEAUstbtt__active_edge@@MMMM@Z 000000014008ebf0 f   toasty.obj
 0001:0008e070       ?stbtt__sized_trapezoid_area@@YAMMMM@Z 000000014008f070 f   toasty.obj
 0001:0008e110       ?stbtt__position_trapezoid_area@@YAMMMMMM@Z 000000014008f110 f   toasty.obj
 0001:0008e160       ?stbtt__sized_triangle_area@@YAMMM@Z 000000014008f160 f   toasty.obj
 0001:0008e190       ?stbtt__fill_active_edges_new@@YAXPEAM0HPEAUstbtt__active_edge@@M@Z 000000014008f190 f   toasty.obj
 0001:0008f1b0       ?stbtt__rasterize_sorted_edges@@YAXPEAUstbtt__bitmap@@PEAUstbtt__edge@@HHHHPEAX@Z 00000001400901b0 f   toasty.obj
 0001:0008f6d0       ?stbtt__sort_edges_ins_sort@@YAXPEAUstbtt__edge@@H@Z 00000001400906d0 f   toasty.obj
 0001:0008f830       ?stbtt__sort_edges_quicksort@@YAXPEAUstbtt__edge@@H@Z 0000000140090830 f   toasty.obj
 0001:0008fc90       ?stbtt__sort_edges@@YAXPEAUstbtt__edge@@H@Z 0000000140090c90 f   toasty.obj
 0001:0008fcd0       ?stbtt__rasterize@@YAXPEAUstbtt__bitmap@@PEAUstbtt__point@@PEAHHMMMMHHHPEAX@Z 0000000140090cd0 f   toasty.obj
 0001:000900c0       ?stbtt__add_point@@YAXPEAUstbtt__point@@HMM@Z 00000001400910c0 f   toasty.obj
 0001:00090120       ?stbtt__tesselate_curve@@YAHPEAUstbtt__point@@PEAHMMMMMMMH@Z 0000000140091120 f   toasty.obj
 0001:000903b0       ?stbtt__tesselate_cubic@@YAXPEAUstbtt__point@@PEAHMMMMMMMMMH@Z 00000001400913b0 f   toasty.obj
 0001:000908f0       ?stbtt_FlattenCurves@@YAPEAUstbtt__point@@PEAUstbtt_vertex@@HMPEAPEAHPEAHPEAX@Z 00000001400918f0 f   toasty.obj
 0001:00090ec0       ?stbtt__h_prefilter@@YAXPEAEHHHI@Z 0000000140091ec0 f   toasty.obj
 0001:00091310       ?stbtt__v_prefilter@@YAXPEAEHHHI@Z 0000000140092310 f   toasty.obj
 0001:000917e0       ?stbtt__oversample_shift@@YAMH@Z 00000001400927e0 f   toasty.obj
 0001:00091820       ?PathBezierCubicCurveToCasteljau@@YAXPEAU?$ImVector@UImVec2@@@@MMMMMMMMMH@Z 0000000140092820 f   toasty.obj
 0001:00091cb0       ?PathBezierQuadraticCurveToCasteljau@@YAXPEAU?$ImVector@UImVec2@@@@MMMMMMMH@Z 0000000140092cb0 f   toasty.obj
 0001:00091f50       ?FixRectCornerFlags@@YAHH@Z 0000000140092f50 f   toasty.obj
 0001:00091fe0       ?stb_decompress_length@@YAIPEBE@Z 0000000140092fe0 f   toasty.obj
 0001:00092050       ?stb_decompress@@YAIPEAEPEBEI@Z 0000000140093050 f   toasty.obj
 0001:00092340       ?GetDefaultCompressedFontDataTTFBase85@@YAPEBDXZ 0000000140093340 f   toasty.obj
 0001:00092350       ?Decode85Byte@@YAID@Z      0000000140093350 f   toasty.obj
 0001:00092390       ?Decode85@@YAXPEBEPEAE@Z   0000000140093390 f   toasty.obj
 0001:00092500       ?UnpackBitVectorToFlatIndexList@@YAXPEBUImBitVector@@PEAU?$ImVector@H@@@Z 0000000140093500 f   toasty.obj
 0001:000925f0       ?ImFontAtlasBuildWithStbTruetype@@YA_NPEAUImFontAtlas@@@Z 00000001400935f0 f   toasty.obj
 0001:00093d70       ?ImFontAtlasBuildRenderDefaultTexData@@YAXPEAUImFontAtlas@@@Z 0000000140094d70 f   toasty.obj
 0001:000940e0       ?ImFontAtlasBuildRenderLinesTexData@@YAXPEAUImFontAtlas@@@Z 00000001400950e0 f   toasty.obj
 0001:00094540       ?UnpackAccumulativeOffsetsIntoRanges@@YAXHPEBFHPEAG@Z 0000000140095540 f   toasty.obj
 0001:00094600       ?FindFirstExistingGlyph@@YAGPEAUImFont@@PEBGH@Z 0000000140095600 f   toasty.obj
 0001:00094670       ?ImAcos01@@YAMM@Z          0000000140095670 f   toasty.obj
 0001:000946c0       ?stb__match@@YAXPEBEI@Z    00000001400956c0 f   toasty.obj
 0001:000947b0       ?stb__lit@@YAXPEBEI@Z      00000001400957b0 f   toasty.obj
 0001:00094890       ?stb_decompress_token@@YAPEBEPEBE@Z 0000000140095890 f   toasty.obj
 0001:00094d90       ?stb_adler32@@YAIIPEAEI@Z  0000000140095d90 f   toasty.obj
 0001:00095010       ?ShowExampleAppDocuments@@YAXPEA_N@Z 0000000140096010 f   toasty.obj
 0001:00095890       ?ShowExampleAppMainMenuBar@@YAXXZ 0000000140096890 f   toasty.obj
 0001:00095990       ?ShowExampleAppConsole@@YAXPEA_N@Z 0000000140096990 f   toasty.obj
 0001:00095a20       ?ShowExampleAppLog@@YAXPEA_N@Z 0000000140096a20 f   toasty.obj
 0001:00095ca0       ?ShowExampleAppLayout@@YAXPEA_N@Z 0000000140096ca0 f   toasty.obj
 0001:00095f90       ?ShowExampleAppPropertyEditor@@YAXPEA_N@Z 0000000140096f90 f   toasty.obj
 0001:000960d0       ?ShowExampleAppLongText@@YAXPEA_N@Z 00000001400970d0 f   toasty.obj
 0001:00096470       ?ShowExampleAppAutoResize@@YAXPEA_N@Z 0000000140097470 f   toasty.obj
 0001:00096570       ?ShowExampleAppConstrainedResize@@YAXPEA_N@Z 0000000140097570 f   toasty.obj
 0001:00096b00       ?ShowExampleAppSimpleOverlay@@YAXPEA_N@Z 0000000140097b00 f   toasty.obj
 0001:00096ee0       ?ShowExampleAppFullscreen@@YAXPEA_N@Z 0000000140097ee0 f   toasty.obj
 0001:000970b0       ?ShowExampleAppWindowTitles@@YAXPEA_N@Z 00000001400980b0 f   toasty.obj
 0001:000972e0       ?ShowExampleAppCustomRendering@@YAXPEA_N@Z 00000001400982e0 f   toasty.obj
 0001:00099240       ?ShowExampleMenuFile@@YAXXZ 000000014009a240 f   toasty.obj
 0001:00099720       ?HelpMarker@@YAXPEBD@Z     000000014009a720 f   toasty.obj
 0001:00099780       ?ShowDemoWindowWidgets@@YAXXZ 000000014009a780 f   toasty.obj
 0001:000a2490       ?ShowDemoWindowLayout@@YAXXZ 00000001400a3490 f   toasty.obj
 0001:000a5770       ?ShowDemoWindowPopups@@YAXXZ 00000001400a6770 f   toasty.obj
 0001:000a6460       ?ShowDemoWindowTables@@YAXXZ 00000001400a7460 f   toasty.obj
 0001:000abf0c       $LN550                     00000001400acf0c     toasty.obj
 0001:000abf30       ?ShowDemoWindowColumns@@YAXXZ 00000001400acf30 f   toasty.obj
 0001:000aca40       ?ShowDemoWindowMisc@@YAXXZ 00000001400ada40 f   toasty.obj
 0001:000ae5d0       ?ItemGetter@Funcs@?BAI@??ShowDemoWindowWidgets@@YAXXZ@SA_NPEAXHPEAPEBD@Z 00000001400af5d0 f   toasty.obj
 0001:000ae600       ?FilterImGuiLetters@TextFilters@?BLC@??ShowDemoWindowWidgets@@YAXXZ@SAHPEAUImGuiInputTextCallbackData@@@Z 00000001400af600 f   toasty.obj
 0001:000ae650       ?MyCallback@Funcs@?BLM@??ShowDemoWindowWidgets@@YAXXZ@SAHPEAUImGuiInputTextCallbackData@@@Z 00000001400af650 f   toasty.obj
 0001:000ae7e0       ?MyResizeCallback@Funcs@?BMD@??ShowDemoWindowWidgets@@YAXXZ@SAHPEAUImGuiInputTextCallbackData@@@Z 00000001400af7e0 f   toasty.obj
 0001:000ae870       ?MyInputTextMultiline@Funcs@?BMD@??ShowDemoWindowWidgets@@YAXXZ@SA_NPEBDPEAU?$ImVector@D@@AEBUImVec2@@H@Z 00000001400af870 f   toasty.obj
 0001:000ae920       ?Sin@Funcs@?CCF@??ShowDemoWindowWidgets@@YAXXZ@SAMPEAXH@Z 00000001400af920 f   toasty.obj
 0001:000ae950       ?Saw@Funcs@?CCF@??ShowDemoWindowWidgets@@YAXXZ@SAMPEAXH@Z 00000001400af950 f   toasty.obj
 0001:000ae9a0       ?CompareWithSortSpecs@MyItem@?A0xe8b3fa04@@SAHPEBX0@Z 00000001400af9a0 f   toasty.obj
 0001:000aeb50       ?PushStyleCompact@@YAXXZ   00000001400afb50 f   toasty.obj
 0001:000aebf0       ?PopStyleCompact@@YAXXZ    00000001400afbf0 f   toasty.obj
 0001:000aec10       ?EditTableSizingFlags@@YAXPEAH@Z 00000001400afc10 f   toasty.obj
 0001:000aee80       ?EditTableColumnsFlags@@YAXPEAH@Z 00000001400afe80 f   toasty.obj
 0001:000af0c0       ?ShowTableColumnsStatusFlags@@YAXH@Z 00000001400b00c0 f   toasty.obj
 0001:000af130       ?DisplayNode@MyTreeNode@?BIO@??ShowDemoWindowTables@@YAXXZ@SAXPEBU1?BIO@??2@YAXXZ@0@Z 00000001400b0130 f   toasty.obj
 0001:000af260       ??0?$ImVector@UMyItem@?A0xe8b3fa04@@@@QEAA@XZ 00000001400b0260 f   toasty.obj
 0001:000af2a0       ??1?$ImVector@UMyItem@?A0xe8b3fa04@@@@QEAA@XZ 00000001400b02a0 f   toasty.obj
 0001:000af2d0       ??A?$ImVector@UMyItem@?A0xe8b3fa04@@@@QEAAAEAUMyItem@?A0xe8b3fa04@@H@Z 00000001400b02d0 f   toasty.obj
 0001:000af330       ?_grow_capacity@?$ImVector@UMyItem@?A0xe8b3fa04@@@@QEBAHH@Z 00000001400b0330 f   toasty.obj
 0001:000af3a0       ?resize@?$ImVector@UMyItem@?A0xe8b3fa04@@@@QEAAXHAEBUMyItem@?A0xe8b3fa04@@@Z 00000001400b03a0 f   toasty.obj
 0001:000af450       ?reserve@?$ImVector@UMyItem@?A0xe8b3fa04@@@@QEAAXH@Z 00000001400b0450 f   toasty.obj
 0001:000af4f0       ?IsLegacyNativeDupe@funcs@?DH@??ShowDemoWindowMisc@@YAXXZ@SA_NH@Z 00000001400b04f0 f   toasty.obj
 0001:000af540       ?ShowPlaceholderObject@@YAXPEBDH@Z 00000001400b0540 f   toasty.obj
 0001:000af700       ?Square@CustomConstraints@?1??ShowExampleAppConstrainedResize@@YAXPEA_N@Z@SAXPEAUImGuiSizeCallbackData@@@Z 00000001400b0700 f   toasty.obj
 0001:000af770       ?Step@CustomConstraints@?1??ShowExampleAppConstrainedResize@@YAXPEA_N@Z@SAXPEAUImGuiSizeCallbackData@@@Z 00000001400b0770 f   toasty.obj
 0001:000af800       ?NotifyOfDocumentsClosedElsewhere@@YAXAEAUExampleAppDocuments@@@Z 00000001400b0800 f   toasty.obj
 0001:000b0a70       ?ImGui_ImplOpenGL3_GetBackendData@@YAPEAUImGui_ImplOpenGL3_Data@@XZ 00000001400b1a70 f   toasty.obj
 0001:000b0ab0       ?ImGui_ImplOpenGL3_SetupRenderState@@YAXPEAUImDrawData@@HHI@Z 00000001400b1ab0 f   toasty.obj
 0001:000b0e60       ?CheckShader@@YA_NIPEBD@Z  00000001400b1e60 f   toasty.obj
 0001:000b0fa0       ?CheckProgram@@YA_NIPEBD@Z 00000001400b1fa0 f   toasty.obj
 0001:000b1930       ?ImGui_ImplSDL2_GetBackendData@@YAPEAUImGui_ImplSDL2_Data@@XZ 00000001400b2930 f   toasty.obj
 0001:000b1970       ?ImGui_ImplSDL2_GetClipboardText@@YAPEBDPEAX@Z 00000001400b2970 f   toasty.obj
 0001:000b19c0       ?ImGui_ImplSDL2_SetClipboardText@@YAXPEAXPEBD@Z 00000001400b29c0 f   toasty.obj
 0001:000b19f0       ?ImGui_ImplSDL2_KeycodeToImGuiKey@@YAHH@Z 00000001400b29f0 f   toasty.obj
 0001:000b1e6c       $LN114                     00000001400b2e6c     toasty.obj
 0001:000b1f44       $LN113                     00000001400b2f44     toasty.obj
 0001:000b1fbc       $LN112                     00000001400b2fbc     toasty.obj
 0001:000b208c       $LN111                     00000001400b308c     toasty.obj
 0001:000b2140       ?ImGui_ImplSDL2_UpdateKeyModifiers@@YAXW4SDL_Keymod@@@Z 00000001400b3140 f   toasty.obj
 0001:000b2220       ?ImGui_ImplSDL2_Init@@YA_NPEAUSDL_Window@@PEAUSDL_Renderer@@@Z 00000001400b3220 f   toasty.obj
 0001:000b25c0       ?ImGui_ImplSDL2_UpdateMouseData@@YAXXZ 00000001400b35c0 f   toasty.obj
 0001:000b26f0       ?ImGui_ImplSDL2_UpdateMouseCursor@@YAXXZ 00000001400b36f0 f   toasty.obj
 0001:000b27a0       ?ImGui_ImplSDL2_UpdateGamepads@@YAXXZ 00000001400b37a0 f   toasty.obj
 0001:000b48c0       ?stbi__cpuid3@@YAHXZ       00000001400b58c0 f   toasty.obj
 0001:000b4920       ?stbi__sse2_available@@YAHXZ 00000001400b5920 f   toasty.obj
 0001:000b4960       ?stbi__refill_buffer@@YAXPEAUstbi__context@@@Z 00000001400b5960 f   toasty.obj
 0001:000b4a50       ?stbi__start_mem@@YAXPEAUstbi__context@@PEBEH@Z 00000001400b5a50 f   toasty.obj
 0001:000b4af0       ?stbi__start_callbacks@@YAXPEAUstbi__context@@PEAUstbi_io_callbacks@@PEAX@Z 00000001400b5af0 f   toasty.obj
 0001:000b4bb0       ?stbi__stdio_read@@YAHPEAXPEADH@Z 00000001400b5bb0 f   toasty.obj
 0001:000b4bf0       ?stbi__stdio_skip@@YAXPEAXH@Z 00000001400b5bf0 f   toasty.obj
 0001:000b4c50       ?stbi__stdio_eof@@YAHPEAX@Z 00000001400b5c50 f   toasty.obj
 0001:000b4ca0       ?stbi__start_file@@YAXPEAUstbi__context@@PEAU_iobuf@@@Z 00000001400b5ca0 f   toasty.obj
 0001:000b4cd0       ?stbi__rewind@@YAXPEAUstbi__context@@@Z 00000001400b5cd0 f   toasty.obj
 0001:000b4d10       ?stbi__jpeg_test@@YAHPEAUstbi__context@@@Z 00000001400b5d10 f   toasty.obj
 0001:000b4d90       ?stbi__jpeg_load@@YAPEAXPEAUstbi__context@@PEAH11HPEAUstbi__result_info@@@Z 00000001400b5d90 f   toasty.obj
 0001:000b4e50       ?stbi__jpeg_info@@YAHPEAUstbi__context@@PEAH11@Z 00000001400b5e50 f   toasty.obj
 0001:000b4ee0       ?stbi__png_test@@YAHPEAUstbi__context@@@Z 00000001400b5ee0 f   toasty.obj
 0001:000b4f10       ?stbi__png_load@@YAPEAXPEAUstbi__context@@PEAH11HPEAUstbi__result_info@@@Z 00000001400b5f10 f   toasty.obj
 0001:000b4f80       ?stbi__png_info@@YAHPEAUstbi__context@@PEAH11@Z 00000001400b5f80 f   toasty.obj
 0001:000b4fd0       ?stbi__png_is16@@YAHPEAUstbi__context@@@Z 00000001400b5fd0 f   toasty.obj
 0001:000b5030       ?stbi__bmp_test@@YAHPEAUstbi__context@@@Z 00000001400b6030 f   toasty.obj
 0001:000b5060       ?stbi__bmp_load@@YAPEAXPEAUstbi__context@@PEAH11HPEAUstbi__result_info@@@Z 00000001400b6060 f   toasty.obj
 0001:000b6230       ?stbi__bmp_info@@YAHPEAUstbi__context@@PEAH11@Z 00000001400b7230 f   toasty.obj
 0001:000b6330       ?stbi__tga_test@@YAHPEAUstbi__context@@@Z 00000001400b7330 f   toasty.obj
 0001:000b64d0       ?stbi__tga_load@@YAPEAXPEAUstbi__context@@PEAH11HPEAUstbi__result_info@@@Z 00000001400b74d0 f   toasty.obj
 0001:000b6f60       ?stbi__tga_info@@YAHPEAUstbi__context@@PEAH11@Z 00000001400b7f60 f   toasty.obj
 0001:000b71d0       ?stbi__psd_test@@YAHPEAUstbi__context@@@Z 00000001400b81d0 f   toasty.obj
 0001:000b7220       ?stbi__psd_load@@YAPEAXPEAUstbi__context@@PEAH11HPEAUstbi__result_info@@H@Z 00000001400b8220 f   toasty.obj
 0001:000b7dc0       ?stbi__psd_info@@YAHPEAUstbi__context@@PEAH11@Z 00000001400b8dc0 f   toasty.obj
 0001:000b7f10       ?stbi__psd_is16@@YAHPEAUstbi__context@@@Z 00000001400b8f10 f   toasty.obj
 0001:000b7fe0       ?stbi__hdr_test@@YAHPEAUstbi__context@@@Z 00000001400b8fe0 f   toasty.obj
 0001:000b8040       ?stbi__hdr_load@@YAPEAMPEAUstbi__context@@PEAH11HPEAUstbi__result_info@@@Z 00000001400b9040 f   toasty.obj
 0001:000b8970       ?stbi__hdr_info@@YAHPEAUstbi__context@@PEAH11@Z 00000001400b9970 f   toasty.obj
 0001:000b8ba0       ?stbi__pic_test@@YAHPEAUstbi__context@@@Z 00000001400b9ba0 f   toasty.obj
 0001:000b8bd0       ?stbi__pic_load@@YAPEAXPEAUstbi__context@@PEAH11HPEAUstbi__result_info@@@Z 00000001400b9bd0 f   toasty.obj
 0001:000b8e70       ?stbi__pic_info@@YAHPEAUstbi__context@@PEAH11@Z 00000001400b9e70 f   toasty.obj
 0001:000b9100       ?stbi__gif_test@@YAHPEAUstbi__context@@@Z 00000001400ba100 f   toasty.obj
 0001:000b9130       ?stbi__gif_load@@YAPEAXPEAUstbi__context@@PEAH11HPEAUstbi__result_info@@@Z 00000001400ba130 f   toasty.obj
 0001:000b9280       ?stbi__load_gif_main@@YAPEAXPEAUstbi__context@@PEAPEAHPEAH222H@Z 00000001400ba280 f   toasty.obj
 0001:000b9680       ?stbi__gif_info@@YAHPEAUstbi__context@@PEAH11@Z 00000001400ba680 f   toasty.obj
 0001:000b96c0       ?stbi__pnm_test@@YAHPEAUstbi__context@@@Z 00000001400ba6c0 f   toasty.obj
 0001:000b9730       ?stbi__pnm_load@@YAPEAXPEAUstbi__context@@PEAH11HPEAUstbi__result_info@@@Z 00000001400ba730 f   toasty.obj
 0001:000b99d0       ?stbi__pnm_info@@YAHPEAUstbi__context@@PEAH11@Z 00000001400ba9d0 f   toasty.obj
 0001:000b9b60       ?stbi__pnm_is16@@YAHPEAUstbi__context@@@Z 00000001400bab60 f   toasty.obj
 0001:000b9ba0       ?stbi__err@@YAHPEBD@Z      00000001400baba0 f   toasty.obj
 0001:000b9be0       ?stbi__malloc@@YAPEAX_K@Z  00000001400babe0 f   toasty.obj
 0001:000b9c00       ?stbi__addsizes_valid@@YAHHH@Z 00000001400bac00 f   toasty.obj
 0001:000b9c50       ?stbi__mul2sizes_valid@@YAHHH@Z 00000001400bac50 f   toasty.obj
 0001:000b9cb0       ?stbi__mad2sizes_valid@@YAHHHH@Z 00000001400bacb0 f   toasty.obj
 0001:000b9d10       ?stbi__mad3sizes_valid@@YAHHHHH@Z 00000001400bad10 f   toasty.obj
 0001:000b9d90       ?stbi__mad4sizes_valid@@YAHHHHHH@Z 00000001400bad90 f   toasty.obj
 0001:000b9e30       ?stbi__malloc_mad2@@YAPEAXHHH@Z 00000001400bae30 f   toasty.obj
 0001:000b9e80       ?stbi__malloc_mad3@@YAPEAXHHHH@Z 00000001400bae80 f   toasty.obj
 0001:000b9ee0       ?stbi__malloc_mad4@@YAPEAXHHHHH@Z 00000001400baee0 f   toasty.obj
 0001:000b9f50       ?stbi__ldr_to_hdr@@YAPEAMPEAEHHH@Z 00000001400baf50 f   toasty.obj
 0001:000ba120       ?stbi__hdr_to_ldr@@YAPEAEPEAMHHH@Z 00000001400bb120 f   toasty.obj
 0001:000ba350       ?stbi__load_main@@YAPEAXPEAUstbi__context@@PEAH11HPEAUstbi__result_info@@H@Z 00000001400bb350 f   toasty.obj
 0001:000ba690       ?stbi__convert_16_to_8@@YAPEAEPEAGHHH@Z 00000001400bb690 f   toasty.obj
 0001:000ba760       ?stbi__convert_8_to_16@@YAPEAGPEAEHHH@Z 00000001400bb760 f   toasty.obj
 0001:000ba840       ?stbi__vertical_flip@@YAXPEAXHHH@Z 00000001400bb840 f   toasty.obj
 0001:000ba9e0       ?stbi__vertical_flip_slices@@YAXPEAXHHHH@Z 00000001400bb9e0 f   toasty.obj
 0001:000baa70       ?stbi__load_and_postprocess_8bit@@YAPEAEPEAUstbi__context@@PEAH11H@Z 00000001400bba70 f   toasty.obj
 0001:000bac40       ?stbi__load_and_postprocess_16bit@@YAPEAGPEAUstbi__context@@PEAH11H@Z 00000001400bbc40 f   toasty.obj
 0001:000bae20       ?stbi__float_postprocess@@YAXPEAMPEAH11H@Z 00000001400bbe20 f   toasty.obj
 0001:000baef0       ?stbi__fopen@@YAPEAU_iobuf@@PEBD0@Z 00000001400bbef0 f   toasty.obj
 0001:000baf30       ?stbi__loadf_main@@YAPEAMPEAUstbi__context@@PEAH11H@Z 00000001400bbf30 f   toasty.obj
 0001:000bb0a0       ?stbi__get8@@YAEPEAUstbi__context@@@Z 00000001400bc0a0 f   toasty.obj
 0001:000bb150       ?stbi__at_eof@@YAHPEAUstbi__context@@@Z 00000001400bc150 f   toasty.obj
 0001:000bb1d0       ?stbi__skip@@YAXPEAUstbi__context@@H@Z 00000001400bc1d0 f   toasty.obj
 0001:000bb2b0       ?stbi__getn@@YAHPEAUstbi__context@@PEAEH@Z 00000001400bc2b0 f   toasty.obj
 0001:000bb410       ?stbi__get16be@@YAHPEAUstbi__context@@@Z 00000001400bc410 f   toasty.obj
 0001:000bb460       ?stbi__get32be@@YAIPEAUstbi__context@@@Z 00000001400bc460 f   toasty.obj
 0001:000bb4a0       ?stbi__get16le@@YAHPEAUstbi__context@@@Z 00000001400bc4a0 f   toasty.obj
 0001:000bb4e0       ?stbi__get32le@@YAIPEAUstbi__context@@@Z 00000001400bc4e0 f   toasty.obj
 0001:000bb520       ?stbi__compute_y@@YAEHHH@Z 00000001400bc520 f   toasty.obj
 0001:000bb550       ?stbi__convert_format@@YAPEAEPEAEHHII@Z 00000001400bc550 f   toasty.obj
 0001:000bbf54       $LN66                      00000001400bcf54     toasty.obj
 0001:000bbfd0       ?stbi__compute_y_16@@YAGHHH@Z 00000001400bcfd0 f   toasty.obj
 0001:000bc000       ?stbi__convert_format16@@YAPEAGPEAGHHII@Z 00000001400bd000 f   toasty.obj
 0001:000bca38       $LN66                      00000001400bda38     toasty.obj
 0001:000bcab0       ?stbi__build_huffman@@YAHPEAUstbi__huffman@@PEAH@Z 00000001400bdab0 f   toasty.obj
 0001:000bcd40       ?stbi__build_fast_ac@@YAXPEAFPEAUstbi__huffman@@@Z 00000001400bdd40 f   toasty.obj
 0001:000bcec0       ?stbi__grow_buffer_unsafe@@YAXPEAUstbi__jpeg@@@Z 00000001400bdec0 f   toasty.obj
 0001:000bcfd0       ?stbi__jpeg_huff_decode@@YAHPEAUstbi__jpeg@@PEAUstbi__huffman@@@Z 00000001400bdfd0 f   toasty.obj
 0001:000bd270       ?stbi__extend_receive@@YAHPEAUstbi__jpeg@@H@Z 00000001400be270 f   toasty.obj
 0001:000bd350       ?stbi__jpeg_get_bits@@YAHPEAUstbi__jpeg@@H@Z 00000001400be350 f   toasty.obj
 0001:000bd400       ?stbi__jpeg_get_bit@@YAHPEAUstbi__jpeg@@@Z 00000001400be400 f   toasty.obj
 0001:000bd480       ?stbi__jpeg_decode_block@@YAHPEAUstbi__jpeg@@QEAFPEAUstbi__huffman@@2PEAFHPEAG@Z 00000001400be480 f   toasty.obj
 0001:000bd770       ?stbi__jpeg_decode_block_prog_dc@@YAHPEAUstbi__jpeg@@QEAFPEAUstbi__huffman@@H@Z 00000001400be770 f   toasty.obj
 0001:000bd910       ?stbi__jpeg_decode_block_prog_ac@@YAHPEAUstbi__jpeg@@QEAFPEAUstbi__huffman@@PEAF@Z 00000001400be910 f   toasty.obj
 0001:000bdf70       ?stbi__clamp@@YAEH@Z       00000001400bef70 f   toasty.obj
 0001:000bdfb0       ?stbi__idct_block@@YAXPEAEHQEAF@Z 00000001400befb0 f   toasty.obj
 0001:000bea60       ?stbi__idct_simd@@YAXPEAEHQEAF@Z 00000001400bfa60 f   toasty.obj
 0001:000c1570       ?stbi__get_marker@@YAEPEAUstbi__jpeg@@@Z 00000001400c2570 f   toasty.obj
 0001:000c1600       ?stbi__jpeg_reset@@YAXPEAUstbi__jpeg@@@Z 00000001400c2600 f   toasty.obj
 0001:000c1700       ?stbi__parse_entropy_coded_data@@YAHPEAUstbi__jpeg@@@Z 00000001400c2700 f   toasty.obj
 0001:000c2360       ?stbi__jpeg_dequantize@@YAXPEAFPEAG@Z 00000001400c3360 f   toasty.obj
 0001:000c23c0       ?stbi__jpeg_finish@@YAXPEAUstbi__jpeg@@@Z 00000001400c33c0 f   toasty.obj
 0001:000c2590       ?stbi__process_marker@@YAHPEAUstbi__jpeg@@H@Z 00000001400c3590 f   toasty.obj
 0001:000c2c50       ?stbi__process_scan_header@@YAHPEAUstbi__jpeg@@@Z 00000001400c3c50 f   toasty.obj
 0001:000c2f90       ?stbi__free_jpeg_components@@YAHPEAUstbi__jpeg@@HH@Z 00000001400c3f90 f   toasty.obj
 0001:000c3100       ?stbi__process_frame_header@@YAHPEAUstbi__jpeg@@H@Z 00000001400c4100 f   toasty.obj
 0001:000c3a20       ?stbi__decode_jpeg_header@@YAHPEAUstbi__jpeg@@H@Z 00000001400c4a20 f   toasty.obj
 0001:000c3b80       ?stbi__decode_jpeg_image@@YAHPEAUstbi__jpeg@@@Z 00000001400c4b80 f   toasty.obj
 0001:000c3d70       ?resample_row_1@@YAPEAEPEAE00HH@Z 00000001400c4d70 f   toasty.obj
 0001:000c3d90       ?stbi__resample_row_v_2@@YAPEAEPEAE00HH@Z 00000001400c4d90 f   toasty.obj
 0001:000c3e10       ?stbi__resample_row_h_2@@YAPEAEPEAE00HH@Z 00000001400c4e10 f   toasty.obj
 0001:000c3ff0       ?stbi__resample_row_hv_2@@YAPEAEPEAE00HH@Z 00000001400c4ff0 f   toasty.obj
 0001:000c4180       ?stbi__resample_row_hv_2_simd@@YAPEAEPEAE00HH@Z 00000001400c5180 f   toasty.obj
 0001:000c47f0       ?stbi__resample_row_generic@@YAPEAEPEAE00HH@Z 00000001400c57f0 f   toasty.obj
 0001:000c4880       ?stbi__YCbCr_to_RGB_row@@YAXPEAEPEBE11HH@Z 00000001400c5880 f   toasty.obj
 0001:000c4a50       ?stbi__YCbCr_to_RGB_simd@@YAXPEAEPEBE11HH@Z 00000001400c5a50 f   toasty.obj
 0001:000c5220       ?stbi__setup_jpeg@@YAXPEAUstbi__jpeg@@@Z 00000001400c6220 f   toasty.obj
 0001:000c52b0       ?stbi__cleanup_jpeg@@YAXPEAUstbi__jpeg@@@Z 00000001400c62b0 f   toasty.obj
 0001:000c52e0       ?stbi__blinn_8x8@@YAEEE@Z  00000001400c62e0 f   toasty.obj
 0001:000c5320       ?load_jpeg_image@@YAPEAEPEAUstbi__jpeg@@PEAH11H@Z 00000001400c6320 f   toasty.obj
 0001:000c64d0       ?stbi__jpeg_info_raw@@YAHPEAUstbi__jpeg@@PEAH11@Z 00000001400c74d0 f   toasty.obj
 0001:000c6590       ?stbi__bitreverse16@@YAHH@Z 00000001400c7590 f   toasty.obj
 0001:000c6620       ?stbi__bit_reverse@@YAHHH@Z 00000001400c7620 f   toasty.obj
 0001:000c6670       ?stbi__zbuild_huffman@@YAHPEAUstbi__zhuffman@@PEBEH@Z 00000001400c7670 f   toasty.obj
 0001:000c6a00       ?stbi__zeof@@YAHPEAUstbi__zbuf@@@Z 00000001400c7a00 f   toasty.obj
 0001:000c6a40       ?stbi__zget8@@YAEPEAUstbi__zbuf@@@Z 00000001400c7a40 f   toasty.obj
 0001:000c6aa0       ?stbi__fill_bits@@YAXPEAUstbi__zbuf@@@Z 00000001400c7aa0 f   toasty.obj
 0001:000c6b40       ?stbi__zreceive@@YAIPEAUstbi__zbuf@@H@Z 00000001400c7b40 f   toasty.obj
 0001:000c6be0       ?stbi__zhuffman_decode_slowpath@@YAHPEAUstbi__zbuf@@PEAUstbi__zhuffman@@@Z 00000001400c7be0 f   toasty.obj
 0001:000c6d10       ?stbi__zhuffman_decode@@YAHPEAUstbi__zbuf@@PEAUstbi__zhuffman@@@Z 00000001400c7d10 f   toasty.obj
 0001:000c6de0       ?stbi__zexpand@@YAHPEAUstbi__zbuf@@PEADH@Z 00000001400c7de0 f   toasty.obj
 0001:000c6f30       ?stbi__parse_huffman_block@@YAHPEAUstbi__zbuf@@@Z 00000001400c7f30 f   toasty.obj
 0001:000c7200       ?stbi__compute_huffman_codes@@YAHPEAUstbi__zbuf@@@Z 00000001400c8200 f   toasty.obj
 0001:000c7520       ?stbi__parse_uncompressed_block@@YAHPEAUstbi__zbuf@@@Z 00000001400c8520 f   toasty.obj
 0001:000c7720       ?stbi__parse_zlib_header@@YAHPEAUstbi__zbuf@@@Z 00000001400c8720 f   toasty.obj
 0001:000c77e0       ?stbi__parse_zlib@@YAHPEAUstbi__zbuf@@H@Z 00000001400c87e0 f   toasty.obj
 0001:000c7910       ?stbi__do_zlib@@YAHPEAUstbi__zbuf@@PEADHHH@Z 00000001400c8910 f   toasty.obj
 0001:000c7990       ?stbi__get_chunk_header@@YA?AUstbi__pngchunk@@PEAUstbi__context@@@Z 00000001400c8990 f   toasty.obj
 0001:000c79d0       ?stbi__check_png_header@@YAHPEAUstbi__context@@@Z 00000001400c89d0 f   toasty.obj
 0001:000c7a40       ?stbi__paeth@@YAHHHH@Z     00000001400c8a40 f   toasty.obj
 0001:000c7af0       ?stbi__create_png_image_raw@@YAHPEAUstbi__png@@PEAEIHIIHH@Z 00000001400c8af0 f   toasty.obj
 0001:000c9338       $LN168                     00000001400ca338     toasty.obj
 0001:000c9354       $LN167                     00000001400ca354     toasty.obj
 0001:000c9370       $LN166                     00000001400ca370     toasty.obj
 0001:000c93a0       ?stbi__create_png_image@@YAHPEAUstbi__png@@PEAEIHHHH@Z 00000001400ca3a0 f   toasty.obj
 0001:000c98b0       ?stbi__compute_transparency@@YAHPEAUstbi__png@@QEAEH@Z 00000001400ca8b0 f   toasty.obj
 0001:000c9a80       ?stbi__compute_transparency16@@YAHPEAUstbi__png@@QEAGH@Z 00000001400caa80 f   toasty.obj
 0001:000c9c50       ?stbi__expand_png_palette@@YAHPEAUstbi__png@@PEAEHH@Z 00000001400cac50 f   toasty.obj
 0001:000c9ee0       ?stbi__de_iphone@@YAXPEAUstbi__png@@@Z 00000001400caee0 f   toasty.obj
 0001:000ca210       ?stbi__parse_png_file@@YAHPEAUstbi__png@@HH@Z 00000001400cb210 f   toasty.obj
 0001:000caf80       ?stbi__do_png@@YAPEAXPEAUstbi__png@@PEAH11HPEAUstbi__result_info@@@Z 00000001400cbf80 f   toasty.obj
 0001:000cb1d0       ?stbi__png_info_raw@@YAHPEAUstbi__png@@PEAH11@Z 00000001400cc1d0 f   toasty.obj
 0001:000cb270       ?stbi__bmp_test_raw@@YAHPEAUstbi__context@@@Z 00000001400cc270 f   toasty.obj
 0001:000cb330       ?stbi__high_bit@@YAHI@Z    00000001400cc330 f   toasty.obj
 0001:000cb3e0       ?stbi__bitcount@@YAHI@Z    00000001400cc3e0 f   toasty.obj
 0001:000cb470       ?stbi__shiftsigned@@YAHIHH@Z 00000001400cc470 f   toasty.obj
 0001:000cb550       ?stbi__bmp_set_mask_defaults@@YAHPEAUstbi__bmp_data@@H@Z 00000001400cc550 f   toasty.obj
 0001:000cb630       ?stbi__bmp_parse_header@@YAPEAXPEAUstbi__context@@PEAUstbi__bmp_data@@@Z 00000001400cc630 f   toasty.obj
 0001:000cbb90       ?stbi__tga_get_comp@@YAHHHPEAH@Z 00000001400ccb90 f   toasty.obj
 0001:000cbc30       ?stbi__tga_read_rgb16@@YAXPEAUstbi__context@@PEAE@Z 00000001400ccc30 f   toasty.obj
 0001:000cbd00       ?stbi__psd_decode_rle@@YAHPEAUstbi__context@@PEAEH@Z 00000001400ccd00 f   toasty.obj
 0001:000cbe50       ?stbi__pic_is4@@YAHPEAUstbi__context@@PEBD@Z 00000001400cce50 f   toasty.obj
 0001:000cbeb0       ?stbi__pic_test_core@@YAHPEAUstbi__context@@@Z 00000001400cceb0 f   toasty.obj
 0001:000cbf30       ?stbi__readval@@YAPEAEPEAUstbi__context@@HPEAE@Z 00000001400ccf30 f   toasty.obj
 0001:000cbfe0       ?stbi__copyval@@YAXHPEAEPEBE@Z 00000001400ccfe0 f   toasty.obj
 0001:000cc060       ?stbi__pic_load_core@@YAPEAEPEAUstbi__context@@HHPEAHPEAE@Z 00000001400cd060 f   toasty.obj
 0001:000cc6a0       ?stbi__gif_test_raw@@YAHPEAUstbi__context@@@Z 00000001400cd6a0 f   toasty.obj
 0001:000cc740       ?stbi__gif_parse_colortable@@YAXPEAUstbi__context@@QEAY03EHH@Z 00000001400cd740 f   toasty.obj
 0001:000cc840       ?stbi__gif_header@@YAHPEAUstbi__context@@PEAUstbi__gif@@PEAHH@Z 00000001400cd840 f   toasty.obj
 0001:000cca60       ?stbi__gif_info_raw@@YAHPEAUstbi__context@@PEAH11@Z 00000001400cda60 f   toasty.obj
 0001:000ccb20       ?stbi__out_gif_code@@YAXPEAUstbi__gif@@G@Z 00000001400cdb20 f   toasty.obj
 0001:000ccdc0       ?stbi__process_gif_raster@@YAPEAEPEAUstbi__context@@PEAUstbi__gif@@@Z 00000001400cddc0 f   toasty.obj
 0001:000cd210       ?stbi__gif_load_next@@YAPEAEPEAUstbi__context@@PEAUstbi__gif@@PEAHHPEAE@Z 00000001400ce210 f   toasty.obj
 0001:000cdc00       ?stbi__load_gif_main_outofmem@@YAPEAXPEAUstbi__gif@@PEAEPEAPEAH@Z 00000001400cec00 f   toasty.obj
 0001:000cdcb0       ?stbi__hdr_test_core@@YAHPEAUstbi__context@@PEBD@Z 00000001400cecb0 f   toasty.obj
 0001:000cdd30       ?stbi__hdr_gettoken@@YAPEADPEAUstbi__context@@PEAD@Z 00000001400ced30 f   toasty.obj
 0001:000cddf0       ?stbi__hdr_convert@@YAXPEAMPEAEH@Z 00000001400cedf0 f   toasty.obj
 0001:000ce060       ?stbi__pnm_isspace@@YAHD@Z 00000001400cf060 f   toasty.obj
 0001:000ce0d0       ?stbi__pnm_skip_whitespace@@YAXPEAUstbi__context@@PEAD@Z 00000001400cf0d0 f   toasty.obj
 0001:000ce180       ?stbi__pnm_isdigit@@YAHD@Z 00000001400cf180 f   toasty.obj
 0001:000ce1c0       ?stbi__pnm_getinteger@@YAHPEAUstbi__context@@PEAD@Z 00000001400cf1c0 f   toasty.obj
 0001:000ce230       ?stbi__info_main@@YAHPEAUstbi__context@@PEAH11@Z 00000001400cf230 f   toasty.obj
 0001:000ce3c0       ?stbi__is_16_main@@YAHPEAUstbi__context@@@Z 00000001400cf3c0 f   toasty.obj
 0001:000d0fe0       ??$ImClamp@I@@YAIIII@Z     00000001400d1fe0 f   toasty.obj
 0001:000d1040       ??$ImSwap@I@@YAXAEAI0@Z    00000001400d2040 f   toasty.obj
 0001:000d1080       ??$ImMin@I@@YAIII@Z        00000001400d2080 f   toasty.obj
 0001:000d10c0       ??$ImLerp@I@@YAIIIM@Z      00000001400d20c0 f   toasty.obj
 0001:000d1100       ??$ImClamp@_J@@YA_J_J00@Z  00000001400d2100 f   toasty.obj
 0001:000d1170       ??$ImSwap@_J@@YAXAEA_J0@Z  00000001400d2170 f   toasty.obj
 0001:000d11c0       ??$ImSwap@N@@YAXAEAN0@Z    00000001400d21c0 f   toasty.obj
 0001:000d1210       ??$ImMin@_J@@YA_J_J0@Z     00000001400d2210 f   toasty.obj
 0001:000d1250       ??$ImLerp@_J@@YA_J_J0M@Z   00000001400d2250 f   toasty.obj
 0001:000d12a0       ??$ImClamp@_K@@YA_K_K00@Z  00000001400d22a0 f   toasty.obj
 0001:000d1310       ??$ImSwap@_K@@YAXAEA_K0@Z  00000001400d2310 f   toasty.obj
 0001:000d1360       ??$ImLerp@_K@@YA_K_K0M@Z   00000001400d2360 f   toasty.obj
 0001:000d1420       ??$ImClamp@N@@YANNNN@Z     00000001400d2420 f   toasty.obj
 0001:000d14a0       ??$ImMin@N@@YANNN@Z        00000001400d24a0 f   toasty.obj
 0001:000d14f0       ??$ImLerp@N@@YANNNM@Z      00000001400d24f0 f   toasty.obj
 0001:00138a04       ?ArrayUnwindFilter@@YAHPEAU_EXCEPTION_POINTERS@@@Z 0000000140139a04 f   MSVCRT:ehvecdtr.obj
 0001:00138b50       ?find_pe_section@@YAPEAU_IMAGE_SECTION_HEADER@@QEAE_K@Z 0000000140139b50 f   MSVCRT:utility.obj
 0001:00138bb4       ?is_potentially_valid_image_base@@YA_NQEAX@Z 0000000140139bb4 f   MSVCRT:utility.obj
 0001:001393f8       capture_current_context    000000014013a3f8 f   MSVCRT:gs_report.obj
 0001:00139480       capture_previous_context   000000014013a480 f   MSVCRT:gs_report.obj
 0001:00139510       ?__scrt_initialize_thread_safe_statics@@YAHXZ 000000014013a510 f   MSVCRT:thread_safe_statics.obj
 0001:00139614       ?__scrt_initialize_thread_safe_statics_platform_specific@@YAXXZ 000000014013a614 f   MSVCRT:thread_safe_statics.obj
 0001:001396f8       ?__scrt_uninitialize_thread_safe_statics@@YAXXZ 000000014013a6f8 f   MSVCRT:thread_safe_statics.obj
 0001:00139a90       $$000000                   000000014013aa90     MSVCRT:chkstk.obj
 0001:00139b10       $$000000                   000000014013ab10     MSVCRT:amdsecgs.obj
 0001:00139b94       ?pre_c_initialization@@YAHXZ 000000014013ab94 f   MSVCRT:exe_main.obj
 0001:00139c78       ?post_pgo_initialization@@YAHXZ 000000014013ac78 f   MSVCRT:exe_main.obj
 0001:00139c8c       ?pre_cpp_initialization@@YAXXZ 000000014013ac8c f   MSVCRT:exe_main.obj
 0001:00139cac       ?__scrt_common_main@@YAHXZ 000000014013acac f   MSVCRT:exe_main.obj
 0001:00139cc4       ?__scrt_common_main_seh@@YAHXZ 000000014013acc4 f   MSVCRT:exe_main.obj
 0001:00139ea0       ?invoke_main@@YAHXZ        000000014013aea0 f   MSVCRT:exe_main.obj
 0001:00139fec       __castguard_check_failure_os_handled_wrapper 000000014013afec f   MSVCRT:guard_support.obj
 0001:0013a014       __castguard_compat_check   000000014013b014 f   MSVCRT:guard_support.obj
 0001:0013a130       __castguard_slow_path_compat_check 000000014013b130 f   MSVCRT:guard_support.obj
 0001:0013a714       __get_entropy              000000014013b714 f   MSVCRT:gs_support.obj
 0001:0013abe0       main_getcmdline            000000014013bbe0 f   SDL2main:SDL_windows_main.obj
 0001:0013e2d0       $$000000                   000000014013f2d0     MSVCRT:guard_dispatch.obj
 0001:0013e2f0       $$000000                   000000014013f2f0     MSVCRT:guard_xfg_dispatch.obj
 0001:0013f310       ?dtor$0@?0??CreateContext@ImGui@@YAPEAUImGuiContext@@PEAUImFontAtlas@@@Z@4HA 0000000140140310 f   toasty.obj
 0001:0013f333       ?dtor$0@?0??ShowStyleEditor@ImGui@@YAXPEAUImGuiStyle@@@Z@4HA 0000000140140333 f   toasty.obj
 0001:0013f34e       ?dtor$1@?0??ShowStyleEditor@ImGui@@YAXPEAUImGuiStyle@@@Z@4HA 000000014014034e f   toasty.obj
 0001:0013f369       ?dtor$0@?0??ListBox@ImGui@@YA_NPEBDPEAHP6A_NPEAXHPEAPEBD@Z2HH@Z@4HA 0000000140140369 f   toasty.obj
 0001:0013f381       ?dtor$0@?0???0ImGuiIO@@QEAA@XZ@4HA 0000000140140381 f   toasty.obj
 0001:0013f3a0       ?dtor$0@?0???0ImGuiTextFilter@@QEAA@PEBD@Z@4HA 00000001401403a0 f   toasty.obj
 0001:0013f3bf       ?dtor$0@?0??Begin@ImGuiListClipper@@QEAAXHM@Z@4HA 00000001401403bf f   toasty.obj
 0001:0013f3d7       ?dtor$0@?0??Split@ImDrawListSplitter@@QEAAXPEAUImDrawList@@H@Z@4HA 00000001401403d7 f   toasty.obj
 0001:0013f3fa       ?dtor$0@?0??CloneOutput@ImDrawList@@QEBAPEAU1@XZ@4HA 00000001401403fa f   toasty.obj
 0001:0013f41d       ?dtor$0@?0??DeIndexAllBuffers@ImDrawData@@QEAAXXZ@4HA 000000014014041d f   toasty.obj
 0001:0013f435       ?dtor$0@?0???0ImFontAtlas@@QEAA@XZ@4HA 0000000140140435 f   toasty.obj
 0001:0013f451       ?dtor$1@?0???0ImFontAtlas@@QEAA@XZ@4HA 0000000140140451 f   toasty.obj
 0001:0013f46d       ?dtor$2@?0???0ImFontAtlas@@QEAA@XZ@4HA 000000014014046d f   toasty.obj
 0001:0013f489       ?dtor$0@?0??AddFont@ImFontAtlas@@QEAAPEAUImFont@@PEBUImFontConfig@@@Z@4HA 0000000140140489 f   toasty.obj
 0001:0013f4ac       ?dtor$0@?0???0ImFont@@QEAA@XZ@4HA 00000001401404ac f   toasty.obj
 0001:0013f4c4       ?dtor$1@?0???0ImFont@@QEAA@XZ@4HA 00000001401404c4 f   toasty.obj
 0001:0013f4e0       ?dtor$0@?0??ImFileOpen@@YAPEAU_iobuf@@PEBD0@Z@4HA 00000001401404e0 f   toasty.obj
 0001:0013f4f8       ?dtor$0@?0???0ImGuiWindow@@QEAA@PEAUImGuiContext@@PEBD@Z@4HA 00000001401404f8 f   toasty.obj
 0001:0013f517       ?dtor$1@?0???0ImGuiWindow@@QEAA@PEAUImGuiContext@@PEBD@Z@4HA 0000000140140517 f   toasty.obj
 0001:0013f536       ?dtor$2@?0???0ImGuiWindow@@QEAA@PEAUImGuiContext@@PEBD@Z@4HA 0000000140140536 f   toasty.obj
 0001:0013f555       ?dtor$3@?0???0ImGuiWindow@@QEAA@PEAUImGuiContext@@PEBD@Z@4HA 0000000140140555 f   toasty.obj
 0001:0013f574       ?dtor$4@?0???0ImGuiWindow@@QEAA@PEAUImGuiContext@@PEBD@Z@4HA 0000000140140574 f   toasty.obj
 0001:0013f593       ?dtor$0@?0???0ImGuiTabBar@@QEAA@XZ@4HA 0000000140140593 f   toasty.obj
 0001:0013f5ab       ?dtor$0@?0??Initialize@ImGui@@YAXXZ@4HA 00000001401405ab f   toasty.obj
 0001:0013f5ce       ?dtor$0@?0??CreateNewWindowSettings@ImGui@@YAPEAUImGuiWindowSettings@@PEBD@Z@4HA 00000001401405ce f   toasty.obj
 0001:0013f5f1       ?dtor$0@?0??FindOrCreateColumns@ImGui@@YAPEAUImGuiOldColumns@@PEAUImGuiWindow@@I@Z@4HA 00000001401405f1 f   toasty.obj
 0001:0013f609       ?dtor$0@?0??BeginTableEx@ImGui@@YA_NPEBDIHHAEBUImVec2@@M@Z@4HA 0000000140140609 f   toasty.obj
 0001:0013f624       ?dtor$0@?0??TableGcCompactSettings@ImGui@@YAXXZ@4HA 0000000140140624 f   toasty.obj
 0001:0013f63c       ?dtor$0@?0??InputTextEx@ImGui@@YA_NPEBD0PEADHAEBUImVec2@@HP6AHPEAUImGuiInputTextCallbackData@@@ZPEAX@Z@4HA 000000014014063c f   toasty.obj
 0001:0013f657       ?dtor$0@?0??DebugNodeDrawList@ImGui@@YAXPEAUImGuiWindow@@PEBUImDrawList@@PEBD@Z@4HA 0000000140140657 f   toasty.obj
 0001:0013f672       ?dtor$0@?0??ImFontAtlasBuildPackCustomRects@@YAXPEAUImFontAtlas@@PEAX@Z@4HA 0000000140140672 f   toasty.obj
 0001:0013f68a       ?dtor$0@?0??CreateNewWindow@@YAPEAUImGuiWindow@@PEBDH@Z@4HA 000000014014068a f   toasty.obj
 0001:0013f6ad       ?dtor$0@?0??GetViewportDrawList@@YAPEAUImDrawList@@PEAUImGuiViewportP@@_KPEBD@Z@4HA 00000001401406ad f   toasty.obj
 0001:0013f6d0       ?dtor$0@?0??TableSettingsInit@@YAXPEAUImGuiTableSettings@@IHH@Z@4HA 00000001401406d0 f   toasty.obj
 0001:0013f6f6       ?dtor$1@?0??TableSettingsInit@@YAXPEAUImGuiTableSettings@@IHH@Z@4HA 00000001401406f6 f   toasty.obj
 0001:0013f719       ?dtor$0@?0??ImFontAtlasBuildWithStbTruetype@@YA_NPEAUImFontAtlas@@@Z@4HA 0000000140140719 f   toasty.obj
 0001:0013f734       ?dtor$1@?0??ImFontAtlasBuildWithStbTruetype@@YA_NPEAUImFontAtlas@@@Z@4HA 0000000140140734 f   toasty.obj
 0001:0013f74f       ?dtor$2@?0??ImFontAtlasBuildWithStbTruetype@@YA_NPEAUImFontAtlas@@@Z@4HA 000000014014074f f   toasty.obj
 0001:0013f76a       ?dtor$3@?0??ImFontAtlasBuildWithStbTruetype@@YA_NPEAUImFontAtlas@@@Z@4HA 000000014014076a f   toasty.obj
 0001:0013f785       ?dtor$0@?0??ShowExampleAppDocuments@@YAXPEA_N@Z@4HA 0000000140140785 f   toasty.obj
 0001:0013f7a0       ?dtor$1@?0??ShowExampleAppDocuments@@YAXPEA_N@Z@4HA 00000001401407a0 f   toasty.obj
 0001:0013f7bb       ?dtor$0@?0??ShowExampleAppConsole@@YAXPEA_N@Z@4HA 00000001401407bb f   toasty.obj
 0001:0013f7d6       ?dtor$0@?0??ShowExampleAppLog@@YAXPEA_N@Z@4HA 00000001401407d6 f   toasty.obj
 0001:0013f7f1       ?dtor$0@?0??ShowExampleAppLongText@@YAXPEA_N@Z@4HA 00000001401407f1 f   toasty.obj
 0001:0013f80c       ?dtor$1@?0??ShowExampleAppLongText@@YAXPEA_N@Z@4HA 000000014014080c f   toasty.obj
 0001:0013f824       ?dtor$0@?0??ShowExampleAppCustomRendering@@YAXPEA_N@Z@4HA 0000000140140824 f   toasty.obj
 0001:0013f83f       ?dtor$0@?0??ShowDemoWindowWidgets@@YAXXZ@4HA 000000014014083f f   toasty.obj
 0001:0013f85a       ?dtor$1@?0??ShowDemoWindowWidgets@@YAXXZ@4HA 000000014014085a f   toasty.obj
 0001:0013f875       ?dtor$0@?0??ShowDemoWindowTables@@YAXXZ@4HA 0000000140140875 f   toasty.obj
 0001:0013f890       ?dtor$1@?0??ShowDemoWindowTables@@YAXXZ@4HA 0000000140140890 f   toasty.obj
 0001:0013f8ab       ?dtor$2@?0??ShowDemoWindowTables@@YAXXZ@4HA 00000001401408ab f   toasty.obj
 0001:0013f8c6       ?dtor$3@?0??ShowDemoWindowTables@@YAXXZ@4HA 00000001401408c6 f   toasty.obj
 0001:0013f8e1       ?dtor$4@?0??ShowDemoWindowTables@@YAXXZ@4HA 00000001401408e1 f   toasty.obj
 0001:0013f8fc       ?dtor$5@?0??ShowDemoWindowTables@@YAXXZ@4HA 00000001401408fc f   toasty.obj
 0001:0013f917       ?dtor$6@?0??ShowDemoWindowTables@@YAXXZ@4HA 0000000140140917 f   toasty.obj
 0001:0013f932       ?dtor$0@?0??ShowDemoWindowColumns@@YAXXZ@4HA 0000000140140932 f   toasty.obj
 0001:0013f94a       ?dtor$0@?0??ShowDemoWindowMisc@@YAXXZ@4HA 000000014014094a f   toasty.obj
 0001:0013f965       ?dtor$0@?0??ImGui_ImplOpenGL3_Init@@YA_NPEBD@Z@4HA 0000000140140965 f   toasty.obj
 0001:0013f988       ?dtor$0@?0??CheckShader@@YA_NIPEBD@Z@4HA 0000000140140988 f   toasty.obj
 0001:0013f9a0       ?dtor$0@?0??CheckProgram@@YA_NIPEBD@Z@4HA 00000001401409a0 f   toasty.obj
 0001:0013f9b8       ?dtor$0@?0??ImGui_ImplSDL2_Init@@YA_NPEAUSDL_Window@@PEAUSDL_Renderer@@@Z@4HA 00000001401409b8 f   toasty.obj
 0001:0013f9db       ?dtor$0@?0??CreateTexture@@YA?AUtexture@@V?$basic_string@DU?$char_traits@D@std@@V?$allocator@D@2@@std@@W4texture_type@@@Z@4HA 00000001401409db f   toasty.obj
 0001:0013f9f6       ?dtor$2@?0??CreateTexture@@YA?AUtexture@@V?$basic_string@DU?$char_traits@D@std@@V?$allocator@D@2@@std@@W4texture_type@@@Z@4HA 00000001401409f6 f   toasty.obj
 0001:0013fa11       ?dtor$0@?0??ExtractTexture@@YAXPEBUaiMaterial@@V?$basic_string@DU?$char_traits@D@std@@V?$allocator@D@2@@std@@W4texture_type@@AEAV?$vector@Utexture@@V?$allocator@Utexture@@@std@@@3@@Z@4HA 0000000140140a11 f   toasty.obj
 0001:0013fa2c       ?dtor$1@?0??ExtractTexture@@YAXPEBUaiMaterial@@V?$basic_string@DU?$char_traits@D@std@@V?$allocator@D@2@@std@@W4texture_type@@AEAV?$vector@Utexture@@V?$allocator@Utexture@@@std@@@3@@Z@4HA 0000000140140a2c f   toasty.obj
 0001:0013fa47       ?dtor$2@?0??ExtractTexture@@YAXPEBUaiMaterial@@V?$basic_string@DU?$char_traits@D@std@@V?$allocator@D@2@@std@@W4texture_type@@AEAV?$vector@Utexture@@V?$allocator@Utexture@@@std@@@3@@Z@4HA 0000000140140a47 f   toasty.obj
 0001:0013fa62       ?dtor$4@?0??ExtractTexture@@YAXPEBUaiMaterial@@V?$basic_string@DU?$char_traits@D@std@@V?$allocator@D@2@@std@@W4texture_type@@AEAV?$vector@Utexture@@V?$allocator@Utexture@@@std@@@3@@Z@4HA 0000000140140a62 f   toasty.obj
 0001:0013fa7d       ?dtor$6@?0??ProcessMesh@@YAXPEBUaiScene@@PEBUmodel@@PEBUaiMesh@@AEAV?$vector@Umesh@@V?$allocator@Umesh@@@std@@@std@@@Z@4HA 0000000140140a7d f   toasty.obj
 0001:0013fa98       ?dtor$7@?0??ProcessMesh@@YAXPEBUaiScene@@PEBUmodel@@PEBUaiMesh@@AEAV?$vector@Umesh@@V?$allocator@Umesh@@@std@@@std@@@Z@4HA 0000000140140a98 f   toasty.obj
 0001:0013fab3       ?dtor$0@?0??CreateModel@@YA?AUmodel@@V?$basic_string@DU?$char_traits@D@std@@V?$allocator@D@2@@std@@@Z@4HA 0000000140140ab3 f   toasty.obj
 0001:0013face       ?dtor$4@?0??CreateModel@@YA?AUmodel@@V?$basic_string@DU?$char_traits@D@std@@V?$allocator@D@2@@std@@@Z@4HA 0000000140140ace f   toasty.obj
 0001:0013fae6       ?dtor$6@?0??CreateModel@@YA?AUmodel@@V?$basic_string@DU?$char_traits@D@std@@V?$allocator@D@2@@std@@@Z@4HA 0000000140140ae6 f   toasty.obj
 0001:0013fd00       ?dtor$0@?0???$_Construct_n@AEBQEAIAEBQEAI@?$vector@IV?$allocator@I@std@@@std@@AEAAX_KAEBQEAI1@Z@4HA 0000000140140d00 f   toasty.obj
 0001:0013fd20       ?dtor$0@?0???$_Construct_n@AEBQEAUtexture@@AEBQEAU1@@?$vector@Utexture@@V?$allocator@Utexture@@@std@@@std@@AEAAX_KAEBQEAUtexture@@1@Z@4HA 0000000140140d20 f   toasty.obj
 0001:0013fd40       ?dtor$0@?0???$_Construct_n@AEBQEAUvertex@@AEBQEAU1@@?$vector@Uvertex@@V?$allocator@Uvertex@@@std@@@std@@AEAAX_KAEBQEAUvertex@@1@Z@4HA 0000000140140d40 f   toasty.obj
 0001:0013fd60       ?catch$0@?0???$_Emplace_reallocate@AEBI@?$vector@IV?$allocator@I@std@@@std@@QEAAPEAIQEAIAEBI@Z@4HA 0000000140140d60 f   toasty.obj
 0001:0013fd6d       __catch$??$_Emplace_reallocate@AEBI@?$vector@IV?$allocator@I@std@@@std@@QEAAPEAIQEAIAEBI@Z$0 0000000140140d6d f   toasty.obj
 0001:0013fdc0       ?catch$0@?0???$_Emplace_reallocate@AEBUmesh@@@?$vector@Umesh@@V?$allocator@Umesh@@@std@@@std@@QEAAPEAUmesh@@QEAU2@AEBU2@@Z@4HA 0000000140140dc0 f   toasty.obj
 0001:0013fdcd       __catch$??$_Emplace_reallocate@AEBUmesh@@@?$vector@Umesh@@V?$allocator@Umesh@@@std@@@std@@QEAAPEAUmesh@@QEAU2@AEBU2@@Z$0 0000000140140dcd f   toasty.obj
 0001:0013fe20       ?catch$0@?0???$_Emplace_reallocate@AEBUtexture@@@?$vector@Utexture@@V?$allocator@Utexture@@@std@@@std@@QEAAPEAUtexture@@QEAU2@AEBU2@@Z@4HA 0000000140140e20 f   toasty.obj
 0001:0013fe2d       __catch$??$_Emplace_reallocate@AEBUtexture@@@?$vector@Utexture@@V?$allocator@Utexture@@@std@@@std@@QEAAPEAUtexture@@QEAU2@AEBU2@@Z$0 0000000140140e2d f   toasty.obj
 0001:0013fe80       ?catch$0@?0???$_Emplace_reallocate@AEBUvertex@@@?$vector@Uvertex@@V?$allocator@Uvertex@@@std@@@std@@QEAAPEAUvertex@@QEAU2@AEBU2@@Z@4HA 0000000140140e80 f   toasty.obj
 0001:0013fe8d       __catch$??$_Emplace_reallocate@AEBUvertex@@@?$vector@Uvertex@@V?$allocator@Uvertex@@@std@@@std@@QEAAPEAUvertex@@QEAU2@AEBU2@@Z$0 0000000140140e8d f   toasty.obj
 0001:0013fee0       ?dtor$0@?0???$_Uninitialized_copy@PEAIV?$allocator@I@std@@@std@@YAPEAIQEAI0PEAIAEAV?$allocator@I@0@@Z@4HA 0000000140140ee0 f   toasty.obj
 0001:0013ff00       ?dtor$0@?0???$_Uninitialized_copy@PEAUtexture@@V?$allocator@Utexture@@@std@@@std@@YAPEAUtexture@@QEAU1@0PEAU1@AEAV?$allocator@Utexture@@@0@@Z@4HA 0000000140140f00 f   toasty.obj
 0001:0013ff20       ?dtor$0@?0???$_Uninitialized_copy@PEAUvertex@@V?$allocator@Uvertex@@@std@@@std@@YAPEAUvertex@@QEAU1@0PEAU1@AEAV?$allocator@Uvertex@@@0@@Z@4HA 0000000140140f20 f   toasty.obj
 0001:0013ff40       ?dtor$0@?0???$_Uninitialized_move@PEAIV?$allocator@I@std@@@std@@YAPEAIQEAI0PEAIAEAV?$allocator@I@0@@Z@4HA 0000000140140f40 f   toasty.obj
 0001:0013ff60       ?dtor$0@?0???$_Uninitialized_move@PEAUmesh@@V?$allocator@Umesh@@@std@@@std@@YAPEAUmesh@@QEAU1@0PEAU1@AEAV?$allocator@Umesh@@@0@@Z@4HA 0000000140140f60 f   toasty.obj
 0001:0013ff80       ?dtor$0@?0???$_Uninitialized_move@PEAUtexture@@V?$allocator@Utexture@@@std@@@std@@YAPEAUtexture@@QEAU1@0PEAU1@AEAV?$allocator@Utexture@@@0@@Z@4HA 0000000140140f80 f   toasty.obj
 0001:0013ffa0       ?dtor$0@?0???$_Uninitialized_move@PEAUvertex@@V?$allocator@Uvertex@@@std@@@std@@YAPEAUvertex@@QEAU1@0PEAU1@AEAV?$allocator@Uvertex@@@0@@Z@4HA 0000000140140fa0 f   toasty.obj
 0001:0013ffc0       ?dtor$0@?0???0?$ImPool@UImGuiTabBar@@@@QEAA@XZ@4HA 0000000140140fc0 f   toasty.obj
 0001:0013ffe0       ?dtor$0@?0???0?$ImPool@UImGuiTable@@@@QEAA@XZ@4HA 0000000140140fe0 f   toasty.obj
 0001:00140000       ?dtor$0@?0???0?$basic_string@DU?$char_traits@D@std@@V?$allocator@D@2@@std@@QEAA@AEBV01@@Z@4HA 0000000140141000 f   toasty.obj
 0001:00140020       ?dtor$0@?0???0?$basic_string@DU?$char_traits@D@std@@V?$allocator@D@2@@std@@QEAA@AEBV01@_K1AEBV?$allocator@D@1@@Z@4HA 0000000140141020 f   toasty.obj
 0001:00140040       ?dtor$0@?0???0?$basic_string@DU?$char_traits@D@std@@V?$allocator@D@2@@std@@QEAA@QEBD@Z@4HA 0000000140141040 f   toasty.obj
 0001:00140060       ?dtor$0@?0???0?$basic_string@DU?$char_traits@D@std@@V?$allocator@D@2@@std@@QEAA@U_String_constructor_concat_tag@1@AEBV01@QEBD_K23@Z@4HA 0000000140141060 f   toasty.obj
 0001:00140090       ?dtor$0@?0???0ExampleAppConsole@@QEAA@XZ@4HA 0000000140141090 f   toasty.obj
 0001:001400c0       ?dtor$1@?0???0ExampleAppConsole@@QEAA@XZ@4HA 00000001401410c0 f   toasty.obj
 0001:001400f0       ?dtor$2@?0???0ExampleAppConsole@@QEAA@XZ@4HA 00000001401410f0 f   toasty.obj
 0001:00140120       ?dtor$3@?0???0ExampleAppConsole@@QEAA@XZ@4HA 0000000140141120 f   toasty.obj
 0001:00140150       ?dtor$0@?0???0ExampleAppDocuments@@QEAA@XZ@4HA 0000000140141150 f   toasty.obj
 0001:00140180       ?dtor$0@?0???0ExampleAppLog@@QEAA@XZ@4HA 0000000140141180 f   toasty.obj
 0001:001401a0       ?dtor$1@?0???0ExampleAppLog@@QEAA@XZ@4HA 00000001401411a0 f   toasty.obj
 0001:001401d0       ?dtor$2@?0???0ExampleAppLog@@QEAA@XZ@4HA 00000001401411d0 f   toasty.obj
 0001:00140200       ?dtor$0@?0???0ImDrawChannel@@QEAA@XZ@4HA 0000000140141200 f   toasty.obj
 0001:00140220       ?dtor$0@?0???0ImDrawList@@QEAA@PEBUImDrawListSharedData@@@Z@4HA 0000000140141220 f   toasty.obj
 0001:00140240       ?dtor$1@?0???0ImDrawList@@QEAA@PEBUImDrawListSharedData@@@Z@4HA 0000000140141240 f   toasty.obj
 0001:00140270       ?dtor$2@?0???0ImDrawList@@QEAA@PEBUImDrawListSharedData@@@Z@4HA 0000000140141270 f   toasty.obj
 0001:001402a0       ?dtor$3@?0???0ImDrawList@@QEAA@PEBUImDrawListSharedData@@@Z@4HA 00000001401412a0 f   toasty.obj
 0001:001402d0       ?dtor$4@?0???0ImDrawList@@QEAA@PEBUImDrawListSharedData@@@Z@4HA 00000001401412d0 f   toasty.obj
 0001:00140300       ?dtor$5@?0???0ImDrawList@@QEAA@PEBUImDrawListSharedData@@@Z@4HA 0000000140141300 f   toasty.obj
 0001:00140330       ?dtor$0@?0???0ImGuiContext@@QEAA@PEAUImFontAtlas@@@Z@4HA 0000000140141330 f   toasty.obj
 0001:00140360       ?dtor$1@?0???0ImGuiContext@@QEAA@PEAUImFontAtlas@@@Z@4HA 0000000140141360 f   toasty.obj
 0001:00140390       ?dtor$2@?0???0ImGuiContext@@QEAA@PEAUImFontAtlas@@@Z@4HA 0000000140141390 f   toasty.obj
 0001:001403c0       ?dtor$3@?0???0ImGuiContext@@QEAA@PEAUImFontAtlas@@@Z@4HA 00000001401413c0 f   toasty.obj
 0001:001403f0       ?dtor$4@?0???0ImGuiContext@@QEAA@PEAUImFontAtlas@@@Z@4HA 00000001401413f0 f   toasty.obj
 0001:00140420       ?dtor$5@?0???0ImGuiContext@@QEAA@PEAUImFontAtlas@@@Z@4HA 0000000140141420 f   toasty.obj
 0001:00140450       ?dtor$6@?0???0ImGuiContext@@QEAA@PEAUImFontAtlas@@@Z@4HA 0000000140141450 f   toasty.obj
 0001:00140480       ?dtor$7@?0???0ImGuiContext@@QEAA@PEAUImFontAtlas@@@Z@4HA 0000000140141480 f   toasty.obj
 0001:001404b0       ?dtor$8@?0???0ImGuiContext@@QEAA@PEAUImFontAtlas@@@Z@4HA 00000001401414b0 f   toasty.obj
 0001:001404e0       ?dtor$9@?0???0ImGuiContext@@QEAA@PEAUImFontAtlas@@@Z@4HA 00000001401414e0 f   toasty.obj
 0001:00140510       ?dtor$10@?0???0ImGuiContext@@QEAA@PEAUImFontAtlas@@@Z@4HA 0000000140141510 f   toasty.obj
 0001:00140540       ?dtor$11@?0???0ImGuiContext@@QEAA@PEAUImFontAtlas@@@Z@4HA 0000000140141540 f   toasty.obj
 0001:00140570       ?dtor$12@?0???0ImGuiContext@@QEAA@PEAUImFontAtlas@@@Z@4HA 0000000140141570 f   toasty.obj
 0001:001405a0       ?dtor$13@?0???0ImGuiContext@@QEAA@PEAUImFontAtlas@@@Z@4HA 00000001401415a0 f   toasty.obj
 0001:001405d0       ?dtor$14@?0???0ImGuiContext@@QEAA@PEAUImFontAtlas@@@Z@4HA 00000001401415d0 f   toasty.obj
 0001:00140600       ?dtor$15@?0???0ImGuiContext@@QEAA@PEAUImFontAtlas@@@Z@4HA 0000000140141600 f   toasty.obj
 0001:00140630       ?dtor$16@?0???0ImGuiContext@@QEAA@PEAUImFontAtlas@@@Z@4HA 0000000140141630 f   toasty.obj
 0001:00140660       ?dtor$17@?0???0ImGuiContext@@QEAA@PEAUImFontAtlas@@@Z@4HA 0000000140141660 f   toasty.obj
 0001:00140690       ?dtor$18@?0???0ImGuiContext@@QEAA@PEAUImFontAtlas@@@Z@4HA 0000000140141690 f   toasty.obj
 0001:001406c0       ?dtor$19@?0???0ImGuiContext@@QEAA@PEAUImFontAtlas@@@Z@4HA 00000001401416c0 f   toasty.obj
 0001:001406f0       ?dtor$20@?0???0ImGuiContext@@QEAA@PEAUImFontAtlas@@@Z@4HA 00000001401416f0 f   toasty.obj
 0001:00140720       ?dtor$21@?0???0ImGuiContext@@QEAA@PEAUImFontAtlas@@@Z@4HA 0000000140141720 f   toasty.obj
